
GccApplication1.elf:     file format elf32-avr

Sections:
Idx Name          Size      VMA       LMA       File off  Algn
  0 .data         00000032  00800100  0000257e  00002612  2**0
                  CONTENTS, ALLOC, LOAD, DATA
  1 .text         0000257e  00000000  00000000  00000094  2**1
                  CONTENTS, ALLOC, LOAD, READONLY, CODE
  2 .bss          00000273  00800132  00800132  00002644  2**0
                  ALLOC
  3 .comment      00000030  00000000  00000000  00002644  2**0
                  CONTENTS, READONLY
  4 .note.gnu.avr.deviceinfo 0000003c  00000000  00000000  00002674  2**2
                  CONTENTS, READONLY
  5 .debug_aranges 000019a0  00000000  00000000  000026b0  2**0
                  CONTENTS, READONLY, DEBUGGING
  6 .debug_info   000367c8  00000000  00000000  00004050  2**0
                  CONTENTS, READONLY, DEBUGGING
  7 .debug_abbrev 00002626  00000000  00000000  0003a818  2**0
                  CONTENTS, READONLY, DEBUGGING
  8 .debug_line   00009a64  00000000  00000000  0003ce3e  2**0
                  CONTENTS, READONLY, DEBUGGING
  9 .debug_frame  00009388  00000000  00000000  000468a4  2**2
                  CONTENTS, READONLY, DEBUGGING
 10 .debug_str    0000c8dd  00000000  00000000  0004fc2c  2**0
                  CONTENTS, READONLY, DEBUGGING
 11 .debug_loc    0003a981  00000000  00000000  0005c509  2**0
                  CONTENTS, READONLY, DEBUGGING
 12 .debug_ranges 00001970  00000000  00000000  00096e8a  2**0
                  CONTENTS, READONLY, DEBUGGING

Disassembly of section .text:

00000000 <__vectors>:
       0:	0c 94 ac 07 	jmp	0xf58	; 0xf58 <__ctors_end>
       4:	0c 94 c9 07 	jmp	0xf92	; 0xf92 <__bad_interrupt>
       8:	0c 94 c9 07 	jmp	0xf92	; 0xf92 <__bad_interrupt>
       c:	0c 94 c9 07 	jmp	0xf92	; 0xf92 <__bad_interrupt>
      10:	0c 94 c9 07 	jmp	0xf92	; 0xf92 <__bad_interrupt>
      14:	0c 94 c9 07 	jmp	0xf92	; 0xf92 <__bad_interrupt>
      18:	0c 94 c9 07 	jmp	0xf92	; 0xf92 <__bad_interrupt>
      1c:	0c 94 c9 07 	jmp	0xf92	; 0xf92 <__bad_interrupt>
      20:	0c 94 c9 07 	jmp	0xf92	; 0xf92 <__bad_interrupt>
      24:	0c 94 c9 07 	jmp	0xf92	; 0xf92 <__bad_interrupt>
      28:	0c 94 c9 07 	jmp	0xf92	; 0xf92 <__bad_interrupt>
      2c:	0c 94 c9 07 	jmp	0xf92	; 0xf92 <__bad_interrupt>
      30:	0c 94 c9 07 	jmp	0xf92	; 0xf92 <__bad_interrupt>
      34:	0c 94 c9 07 	jmp	0xf92	; 0xf92 <__bad_interrupt>
      38:	0c 94 c9 07 	jmp	0xf92	; 0xf92 <__bad_interrupt>
      3c:	0c 94 c9 07 	jmp	0xf92	; 0xf92 <__bad_interrupt>
      40:	0c 94 c9 07 	jmp	0xf92	; 0xf92 <__bad_interrupt>
      44:	0c 94 c9 07 	jmp	0xf92	; 0xf92 <__bad_interrupt>
      48:	0c 94 c9 07 	jmp	0xf92	; 0xf92 <__bad_interrupt>
      4c:	0c 94 c9 07 	jmp	0xf92	; 0xf92 <__bad_interrupt>
      50:	0c 94 c9 07 	jmp	0xf92	; 0xf92 <__bad_interrupt>
      54:	0c 94 c9 07 	jmp	0xf92	; 0xf92 <__bad_interrupt>
      58:	0c 94 c9 07 	jmp	0xf92	; 0xf92 <__bad_interrupt>
      5c:	0c 94 c9 07 	jmp	0xf92	; 0xf92 <__bad_interrupt>
      60:	0c 94 c9 07 	jmp	0xf92	; 0xf92 <__bad_interrupt>
      64:	0c 94 c9 07 	jmp	0xf92	; 0xf92 <__bad_interrupt>
      68:	0c 94 c9 07 	jmp	0xf92	; 0xf92 <__bad_interrupt>
      6c:	0c 94 c9 07 	jmp	0xf92	; 0xf92 <__bad_interrupt>
      70:	25 08       	sbc	r2, r5
      72:	7b 08       	sbc	r7, r11
      74:	7b 08       	sbc	r7, r11
      76:	7b 08       	sbc	r7, r11
      78:	7b 08       	sbc	r7, r11
      7a:	7b 08       	sbc	r7, r11
      7c:	7b 08       	sbc	r7, r11
      7e:	7b 08       	sbc	r7, r11
      80:	7b 08       	sbc	r7, r11
      82:	7b 08       	sbc	r7, r11
      84:	7b 08       	sbc	r7, r11
      86:	7b 08       	sbc	r7, r11
      88:	7b 08       	sbc	r7, r11
      8a:	7b 08       	sbc	r7, r11
      8c:	7b 08       	sbc	r7, r11
      8e:	7b 08       	sbc	r7, r11
      90:	7b 08       	sbc	r7, r11
      92:	7b 08       	sbc	r7, r11
      94:	7b 08       	sbc	r7, r11
      96:	7b 08       	sbc	r7, r11
      98:	7b 08       	sbc	r7, r11
      9a:	7b 08       	sbc	r7, r11
      9c:	7b 08       	sbc	r7, r11
      9e:	7b 08       	sbc	r7, r11
      a0:	33 08       	sbc	r3, r3
      a2:	39 08       	sbc	r3, r9
      a4:	3f 08       	sbc	r3, r15
      a6:	45 08       	sbc	r4, r5
      a8:	4b 08       	sbc	r4, r11
      aa:	51 08       	sbc	r5, r1
      ac:	57 08       	sbc	r5, r7
      ae:	5d 08       	sbc	r5, r13
      b0:	63 08       	sbc	r6, r3
      b2:	69 08       	sbc	r6, r9
      b4:	6f 08       	sbc	r6, r15
      b6:	75 08       	sbc	r7, r5

000000b8 <__trampolines_end>:
      b8:	5f 00       	.word	0x005f	; ????
      ba:	04 03       	mulsu	r16, r20
      bc:	05 05       	cpc	r16, r5
      be:	05 06       	cpc	r0, r21
      c0:	06 21       	and	r16, r6
      c2:	22 fe       	sbrs	r2, 2
      c4:	f9 19       	sub	r31, r9
      c6:	f9 19       	sub	r31, r9
      c8:	fc 04       	cpc	r15, r12
      ca:	17 0a       	sbc	r1, r23
      cc:	97 0e       	add	r9, r23
      ce:	83 20       	and	r8, r3
      d0:	06 00       	.word	0x0006	; ????
      d2:	c4 30       	cpi	r28, 0x04	; 4
      d4:	05 21       	and	r16, r5
      d6:	12 24       	eor	r1, r2
      d8:	4f 50       	subi	r20, 0x0F	; 15
      da:	0d 89       	ldd	r16, Y+21	; 0x15
      dc:	83 07       	cpc	r24, r19
      de:	13 22       	and	r1, r19
      e0:	fa cf       	rjmp	.-12     	; 0xd6 <__trampolines_end+0x1e>
      e2:	25 0e       	add	r2, r21
      e4:	22 24       	eor	r2, r2
      e6:	00 22       	and	r0, r16
      e8:	12 09       	sbc	r17, r2
      ea:	c9 b8       	out	0x09, r12	; 9
      ec:	85 19       	sub	r24, r5
      ee:	6f 26       	eor	r6, r31
      f0:	a2 42       	sbci	r26, 0x22	; 34
      f2:	a2 42       	sbci	r26, 0x22	; 34
      f4:	a2 42       	sbci	r26, 0x22	; 34
      f6:	a2 22       	and	r10, r18
      f8:	00 23       	and	r16, r16
      fa:	39 f0       	breq	.+14     	; 0x10a <__trampolines_end+0x52>
      fc:	4a 70       	andi	r20, 0x0A	; 10
      fe:	36 21       	and	r19, r6
     100:	41 21       	and	r20, r1
     102:	41 21       	and	r20, r1
     104:	b9 99       	sbic	0x17, 1	; 23
     106:	39 21       	and	r19, r9
     108:	41 21       	and	r20, r1
     10a:	41 21       	and	r20, r1
     10c:	a1 83       	std	Z+1, r26	; 0x01
     10e:	83 88       	ldd	r8, Z+19	; 0x13
     110:	83 83       	std	Z+3, r24	; 0x03
     112:	28 21       	and	r18, r8
     114:	b9 99       	sbic	0x17, 1	; 23
     116:	39 a1       	ldd	r19, Y+33	; 0x21
     118:	39 21       	and	r19, r9
     11a:	a1 83       	std	Z+1, r26	; 0x01
     11c:	83 88       	ldd	r8, Z+19	; 0x13
     11e:	83 83       	std	Z+3, r24	; 0x03
     120:	28 21       	and	r18, r8
     122:	41 21       	and	r20, r1
     124:	b9 99       	sbic	0x17, 1	; 23
     126:	b9 99       	sbic	0x17, 1	; 23
     128:	39 21       	and	r19, r9
     12a:	41 21       	and	r20, r1
     12c:	41 21       	and	r20, r1
     12e:	41 21       	and	r20, r1
     130:	29 00       	.word	0x0029	; ????
     132:	24 3c       	cpi	r18, 0xC4	; 196
     134:	ee 4b       	sbci	r30, 0xBE	; 190
     136:	4e b6       	in	r4, 0x3e	; 62
     138:	e8 b4       	in	r14, 0x28	; 40
     13a:	66 07       	cpc	r22, r22
     13c:	33 23       	and	r19, r19
     13e:	21 6b       	ori	r18, 0xB1	; 177
     140:	62 26       	eor	r6, r18
     142:	84 42       	sbci	r24, 0x24	; 36
     144:	28 84       	ldd	r2, Y+8	; 0x08
     146:	42 28       	or	r4, r2
     148:	84 62       	ori	r24, 0x24	; 36
     14a:	44 84       	ldd	r4, Z+12	; 0x0c
     14c:	e2 66       	ori	r30, 0x62	; 98
     14e:	e2 2a       	or	r14, r18
     150:	02 1f       	adc	r16, r18
     152:	c4 1d       	adc	r28, r4
     154:	08 de       	rcall	.-1008   	; 0xfffffd66 <__eeprom_end+0xff7efd66>
     156:	85 94       	asr	r8
     158:	c5 50       	subi	r28, 0x05	; 5
     15a:	c8 04       	cpc	r12, r8
     15c:	9d 44       	sbci	r25, 0x4D	; 77
     15e:	99 44       	sbci	r25, 0x49	; 73
     160:	d5 04       	cpc	r13, r5
     162:	15 05       	cpc	r17, r5
     164:	49 cc       	rjmp	.-1902   	; 0xfffff9f8 <__eeprom_end+0xff7ef9f8>
     166:	84 90       	lpm	r8, Z
     168:	1c 50       	subi	r17, 0x0C	; 12
     16a:	9d 46       	sbci	r25, 0x6D	; 109
     16c:	67 07       	cpc	r22, r23
     16e:	25 50       	subi	r18, 0x05	; 5
     170:	38 c7       	rjmp	.+3696   	; 0xfe2 <u8x8_avr_delay+0x4c>
     172:	6f b7       	in	r22, 0x3f	; 63
     174:	c9 48       	sbci	r28, 0x89	; 137
     176:	b3 c1       	rjmp	.+870    	; 0x4de <__LOCK_REGION_LENGTH__+0xde>
     178:	91 19       	sub	r25, r1
     17a:	c2 a1       	ldd	r28, Z+34	; 0x22
     17c:	03 c1       	rjmp	.+518    	; 0x384 <__trampolines_end+0x2cc>
     17e:	21 85       	ldd	r18, Z+9	; 0x09
     180:	53 42       	sbci	r21, 0x23	; 35
     182:	82 53       	subi	r24, 0x32	; 50
     184:	32 82       	std	Z+2, r3	; 0x02
     186:	54 32       	cpi	r21, 0x24	; 36
     188:	82 63       	ori	r24, 0x32	; 50
     18a:	22 92       	st	-Z, r2
     18c:	53 32       	cpi	r21, 0x23	; 35
     18e:	a1 53       	subi	r26, 0x31	; 49
     190:	22 a2       	std	Z+34, r2	; 0x22
     192:	43 32       	cpi	r20, 0x23	; 35
     194:	61 33       	cpi	r22, 0x31	; 49
     196:	23 32       	cpi	r18, 0x23	; 35
     198:	42 36       	cpi	r20, 0x62	; 98
     19a:	45 41       	sbci	r20, 0x15	; 21
     19c:	33 a2       	std	Z+35, r3	; 0x23
     19e:	32 43       	sbci	r19, 0x32	; 50
     1a0:	92 32       	cpi	r25, 0x22	; 34
     1a2:	44 92       	xch	Z, r4
     1a4:	32 53       	subi	r19, 0x32	; 50
     1a6:	82 32       	cpi	r24, 0x22	; 34
     1a8:	54 82       	std	Z+4, r5	; 0x04
     1aa:	32 63       	ori	r19, 0x32	; 50
     1ac:	72 42       	sbci	r23, 0x22	; 34
     1ae:	53 82       	std	Z+3, r5	; 0x03
     1b0:	42 53       	subi	r20, 0x32	; 50
     1b2:	72 52       	subi	r23, 0x22	; 34
     1b4:	43 82       	std	Z+3, r4	; 0x03
     1b6:	71 23       	and	r23, r17
     1b8:	82 82       	std	Z+2, r8	; 0x02
     1ba:	95 f1       	brhs	.+100    	; 0x220 <__trampolines_end+0x168>
     1bc:	30 00       	.word	0x0030	; ????
     1be:	26 43       	sbci	r18, 0x36	; 54
     1c0:	36 4b       	sbci	r19, 0xB6	; 182
     1c2:	70 3f       	cpi	r23, 0xF0	; 240
     1c4:	73 0a       	sbc	r7, r19
     1c6:	6a a1       	ldd	r22, Y+34	; 0x22
     1c8:	e1 a9       	ldd	r30, Z+49	; 0x31
     1ca:	d9 a9       	ldd	r29, Y+49	; 0x31
     1cc:	d9 a9       	ldd	r29, Y+49	; 0x31
     1ce:	d9 29       	or	r29, r9
     1d0:	e1 a1       	ldd	r30, Z+33	; 0x21
     1d2:	61 92       	st	Z+, r6
     1d4:	69 8a       	std	Y+17, r6	; 0x11
     1d6:	79 00       	.word	0x0079	; ????
     1d8:	7b 08       	sbc	r7, r11
     1da:	7a 10       	cpse	r7, r10
     1dc:	9b 03       	fmulsu	r17, r19
     1de:	91 09       	sbc	r25, r1
     1e0:	aa 9a       	sbi	0x15, 2	; 21
     1e2:	19 aa       	std	Y+49, r1	; 0x31
     1e4:	a1 99       	sbic	0x14, 1	; 20
     1e6:	22 a1       	ldd	r18, Z+34	; 0x22
     1e8:	29 22       	and	r2, r25
     1ea:	a1 a9       	ldd	r26, Z+49	; 0x31
     1ec:	12 a9       	ldd	r17, Z+50	; 0x32
     1ee:	b1 0a       	sbc	r11, r17
     1f0:	29 32       	cpi	r18, 0x29	; 41
     1f2:	ab 3a       	cpi	r26, 0xAB	; 171
     1f4:	32 3b       	cpi	r19, 0xB2	; 178
     1f6:	22 09       	sbc	r18, r2
     1f8:	9b 03       	fmulsu	r17, r19
     1fa:	9a 83       	std	Y+2, r25	; 0x02
     1fc:	91 a3       	std	Z+33, r25	; 0x21
     1fe:	2b 1a       	sub	r2, r27
     200:	00 27       	eor	r16, r16
     202:	0b 03       	fmul	r16, r19
     204:	c9 f8       	.word	0xf8c9	; ????
     206:	84 83       	std	Z+4, r24	; 0x04
     208:	8a 90       	ld	r8, -Y
     20a:	2c 00       	.word	0x002c	; ????
     20c:	28 16       	cp	r2, r24
     20e:	a8 4b       	sbci	r26, 0xB8	; 184
     210:	6e bd       	out	0x2e, r22	; 46
     212:	a8 29       	or	r26, r8
     214:	9d a9       	ldd	r25, Y+53	; 0x35
     216:	12 d3       	rcall	.+1572   	; 0x83c <__stack+0x33d>
     218:	6a cf       	rjmp	.-300    	; 0xee <__trampolines_end+0x36>
     21a:	74 27       	eor	r23, r20
     21c:	26 17       	cp	r18, r22
     21e:	a7 d9       	rcall	.-3250   	; 0xfffff56e <__eeprom_end+0xff7ef56e>
     220:	98 00       	.word	0x0098	; ????
     222:	29 1a       	sub	r2, r25
     224:	a8 4b       	sbci	r26, 0xB8	; 184
     226:	6e 05       	cpc	r22, r14
     228:	b1 31       	cpi	r27, 0x11	; 17
     22a:	39 75       	andi	r19, 0x59	; 89
     22c:	71 62       	ori	r23, 0x21	; 33
     22e:	72 62       	ori	r23, 0x22	; 34
     230:	9a 4d       	sbci	r25, 0xDA	; 218
     232:	ed 4a       	sbci	r30, 0xAD	; 173
     234:	4c 2b       	or	r20, r28
     236:	31 a9       	ldd	r19, Z+49	; 0x31
     238:	29 9d       	mul	r18, r9
     23a:	89 01       	movw	r16, r18
     23c:	2a 1b       	sub	r18, r26
     23e:	cc c9       	rjmp	.-3176   	; 0xfffff5d8 <__eeprom_end+0xff7ef5d8>
     240:	35 2e       	mov	r3, r21
     242:	51 55       	subi	r21, 0x51	; 81
     244:	32 22       	and	r3, r18
     246:	26 22       	and	r2, r22
     248:	13 07       	cpc	r17, r19
     24a:	43 66       	ori	r20, 0x63	; 99
     24c:	55 07       	cpc	r21, r21
     24e:	22 23       	and	r18, r18
     250:	22 35       	cpi	r18, 0x52	; 82
     252:	22 53       	subi	r18, 0x32	; 50
     254:	a2 aa       	std	Z+50, r10	; 0x32
     256:	00 2b       	or	r16, r16
     258:	0f 30       	cpi	r16, 0x0F	; 15
     25a:	ca 8f       	std	Y+26, r28	; 0x1a
     25c:	3e 71       	andi	r19, 0x1E	; 30
     25e:	7d 77       	andi	r23, 0x7D	; 125
     260:	f0 01       	movw	r30, r0
     262:	9d b8       	out	0x0d, r9	; 13
     264:	7e 07       	cpc	r23, r30
     266:	2c 0f       	add	r18, r28
     268:	45 49       	sbci	r20, 0x95	; 149
     26a:	2d 8d       	ldd	r18, Y+29	; 0x1d
     26c:	89 83       	std	Y+1, r24	; 0x01
     26e:	09 1a       	sub	r0, r25
     270:	25 4a       	sbci	r18, 0xA5	; 165
     272:	46 82       	std	Z+6, r4	; 0x06
     274:	00 2d       	mov	r16, r0
     276:	08 68       	ori	r16, 0x88	; 136
     278:	c4 73       	andi	r28, 0x34	; 52
     27a:	85 0f       	add	r24, r21
     27c:	06 2e       	mov	r0, r22
     27e:	0b 84       	ldd	r0, Y+11	; 0x0b
     280:	48 30       	cpi	r20, 0x08	; 8
     282:	0d 89       	ldd	r16, Y+21	; 0x15
     284:	83 08       	sbc	r8, r3
     286:	09 00       	.word	0x0009	; ????
     288:	2f 18       	sub	r2, r15
     28a:	2a 3f       	cpi	r18, 0xFA	; 250
     28c:	30 45       	sbci	r19, 0x50	; 80
     28e:	ed 04       	cpc	r14, r13
     290:	d5 09       	sbc	r29, r5
     292:	aa 13       	cpse	r26, r26
     294:	54 27       	eor	r21, r20
     296:	a8 4e       	sbci	r26, 0xE8	; 232
     298:	50 9d       	mul	r21, r0
     29a:	a0 3a       	cpi	r26, 0xA0	; 160
     29c:	41 75       	andi	r20, 0x51	; 81
     29e:	82 00       	.word	0x0082	; ????
     2a0:	30 34       	cpi	r19, 0x40	; 64
     2a2:	10 4b       	sbci	r17, 0xB0	; 176
     2a4:	50 36       	cpi	r21, 0x60	; 96
     2a6:	d2 83       	std	Z+2, r29	; 0x02
     2a8:	b8 a1       	ldd	r27, Y+32	; 0x20
     2aa:	31 55       	subi	r19, 0x51	; 81
     2ac:	63 33       	cpi	r22, 0x33	; 51
     2ae:	64 24       	eor	r6, r4
     2b0:	83 13       	cpse	r24, r19
     2b2:	84 07       	cpc	r24, r20
     2b4:	81 07       	cpc	r24, r17
     2b6:	81 07       	cpc	r24, r17
     2b8:	81 07       	cpc	r24, r17
     2ba:	81 07       	cpc	r24, r17
     2bc:	81 07       	cpc	r24, r17
     2be:	81 07       	cpc	r24, r17
     2c0:	81 07       	cpc	r24, r17
     2c2:	81 07       	cpc	r24, r17
     2c4:	81 14       	cp	r8, r1
     2c6:	83 23       	and	r24, r19
     2c8:	64 34       	cpi	r22, 0x44	; 68
     2ca:	63 53       	subi	r22, 0x33	; 51
     2cc:	62 62       	ori	r22, 0x22	; 34
     2ce:	43 73       	andi	r20, 0x33	; 51
     2d0:	07 a1       	ldd	r16, Z+39	; 0x27
     2d2:	64 00       	.word	0x0064	; ????
     2d4:	31 10       	cpse	r3, r1
     2d6:	0d 4f       	sbci	r16, 0xFD	; 253
     2d8:	50 36       	cpi	r21, 0x60	; 96
     2da:	d1 a9       	ldd	r29, Z+49	; 0x31
     2dc:	83 d0       	rcall	.+262    	; 0x3e4 <__trampolines_end+0x32c>
     2de:	fd ff       	.word	0xfffd	; ????
     2e0:	2f 8b       	std	Y+23, r18	; 0x17
     2e2:	0e 0c       	add	r0, r14
     2e4:	32 27       	eor	r19, r18
     2e6:	0f 47       	sbci	r16, 0x7F	; 127
     2e8:	50 2e       	mov	r5, r16
     2ea:	bb 83       	std	Y+3, r27	; 0x03
     2ec:	a1 b1       	in	r26, 0x01	; 1
     2ee:	11 41       	sbci	r17, 0x11	; 17
     2f0:	8a c1       	rjmp	.+788    	; 0x606 <__stack+0x107>
     2f2:	09 ba       	out	0x19, r0	; 25
     2f4:	09 ba       	out	0x19, r0	; 25
     2f6:	09 ba       	out	0x19, r0	; 25
     2f8:	11 39       	cpi	r17, 0x91	; 145
     2fa:	da e1       	ldi	r29, 0x1A	; 26
     2fc:	d9 59       	subi	r29, 0x99	; 153
     2fe:	da 3d       	cpi	r29, 0xDA	; 218
     300:	0b 9a       	sbi	0x01, 3	; 1
     302:	8b 99       	sbic	0x11, 3	; 17
     304:	13 19       	sub	r17, r3
     306:	94 38       	cpi	r25, 0x84	; 132
     308:	f8 03       	fmulsu	r23, r16
     30a:	01 33       	cpi	r16, 0x31	; 49
     30c:	27 0f       	add	r18, r23
     30e:	47 50       	subi	r20, 0x07	; 7
     310:	2e bb       	out	0x1e, r18	; 30
     312:	83 a1       	ldd	r24, Z+35	; 0x23
     314:	a9 99       	sbic	0x15, 1	; 21
     316:	b9 11       	cpse	r27, r9
     318:	b2 11       	cpse	r27, r2
     31a:	b2 19       	sub	r27, r2
     31c:	b9 e1       	ldi	r27, 0x19	; 25
     31e:	d9 a5       	ldd	r29, Y+41	; 0x29
     320:	84 07       	cpc	r24, r20
     322:	b1 c5       	rjmp	.+2914   	; 0xe86 <__stack+0x987>
     324:	c4 c3       	rjmp	.+1928   	; 0xaae <__stack+0x5af>
     326:	14 92       	xch	Z, r1
     328:	87 ef       	ldi	r24, 0xF7	; 247
     32a:	0e 47       	sbci	r16, 0x7E	; 126
     32c:	88 6a       	ori	r24, 0xA8	; 168
     32e:	0e e6       	ldi	r16, 0x6E	; 110
     330:	ac 00       	.word	0x00ac	; ????
     332:	34 28       	or	r3, r4
     334:	10 47       	sbci	r17, 0x70	; 112
     336:	50 56       	subi	r21, 0x60	; 96
     338:	71 e9       	ldi	r23, 0x91	; 145
     33a:	61 da       	rcall	.-2878   	; 0xfffff7fe <__eeprom_end+0xff7ef7fe>
     33c:	a6 12       	cpse	r10, r22
     33e:	93 22       	and	r9, r19
     340:	93 22       	and	r9, r19
     342:	83 32       	cpi	r24, 0x23	; 35
     344:	73 42       	sbci	r23, 0x23	; 35
     346:	73 42       	sbci	r23, 0x23	; 35
     348:	63 52       	subi	r22, 0x23	; 35
     34a:	53 62       	ori	r21, 0x23	; 35
     34c:	53 62       	ori	r21, 0x23	; 35
     34e:	43 72       	andi	r20, 0x23	; 35
     350:	43 07       	cpc	r20, r19
     352:	1f 50       	subi	r17, 0x0F	; 15
     354:	4e 6f       	ori	r20, 0xFE	; 254
     356:	5c 79       	andi	r21, 0x9C	; 156
     358:	20 01       	movw	r4, r0
     35a:	35 28       	or	r3, r5
     35c:	0e 4b       	sbci	r16, 0xBE	; 190
     35e:	50 96       	adiw	r26, 0x10	; 16
     360:	b9 98       	cbi	0x17, 1	; 23
     362:	03 9a       	sbi	0x00, 3	; 0
     364:	83 a1       	ldd	r24, Z+35	; 0x23
     366:	03 29       	or	r16, r3
     368:	61 e1       	ldi	r22, 0x11	; 17
     36a:	60 35       	cpi	r22, 0x50	; 80
     36c:	54 12       	cpse	r5, r20
     36e:	07 31       	cpi	r16, 0x17	; 23
     370:	35 24       	eor	r3, r5
     372:	63 23       	and	r22, r19
     374:	72 b4       	in	r7, 0x22	; 34
     376:	5b 08       	sbc	r5, r11
     378:	de 3d       	cpi	r29, 0xDE	; 222
     37a:	bb 1b       	sub	r27, r27
     37c:	99 22       	and	r9, r25
     37e:	39 a0       	ldd	r3, Y+33	; 0x21
     380:	b2 02       	muls	r27, r18
     382:	36 2f       	mov	r19, r22
     384:	0f 47       	sbci	r16, 0x7F	; 127
     386:	50 36       	cpi	r21, 0x60	; 96
     388:	bb 83       	std	Y+3, r27	; 0x03
     38a:	a1 a1       	ldd	r26, Z+33	; 0x21
     38c:	92 31       	cpi	r25, 0x12	; 18
     38e:	92 31       	cpi	r25, 0x12	; 18
     390:	12 41       	sbci	r17, 0x12	; 18
     392:	91 e1       	ldi	r25, 0x11	; 17
     394:	b5 34       	cpi	r27, 0x45	; 69
     396:	44 14       	cp	r4, r4
     398:	07 21       	and	r16, r7
     39a:	37 14       	cp	r3, r7
     39c:	56 13       	cpse	r21, r22
     39e:	65 07       	cpc	r22, r21
     3a0:	81 0f       	add	r24, r17
     3a2:	27 06       	cpc	r2, r23
     3a4:	27 06       	cpc	r2, r23
     3a6:	27 e6       	ldi	r18, 0x67	; 103
     3a8:	48 c6       	rjmp	.+3216   	; 0x103a <u8x8_gpio_and_delay+0x12>
     3aa:	66 a6       	std	Z+46, r6	; 0x2e
     3ac:	88 0e       	add	r8, r24
     3ae:	04 ab       	std	Z+52, r16	; 0x34
     3b0:	00 37       	cpi	r16, 0x70	; 112
     3b2:	1b 0d       	add	r17, r11
     3b4:	4f 50       	subi	r20, 0x0F	; 15
     3b6:	86 3f       	cpi	r24, 0xF6	; 246
     3b8:	b0 8c       	ldd	r11, Z+24	; 0x18
     3ba:	10 94       	com	r1
     3bc:	88 0c       	add	r8, r8
     3be:	09 14       	cp	r0, r9
     3c0:	09 8c       	ldd	r0, Y+25	; 0x19
     3c2:	55 2a       	or	r5, r21
     3c4:	ab 54       	subi	r26, 0x4B	; 75
     3c6:	56 e9       	ldi	r21, 0x96	; 150
     3c8:	96 3c       	cpi	r25, 0xC6	; 198
     3ca:	15 03       	mulsu	r17, r21
     3cc:	38 2f       	mov	r19, r24
     3ce:	0f 47       	sbci	r16, 0x7F	; 127
     3d0:	50 2e       	mov	r5, r16
     3d2:	bb 83       	std	Y+3, r27	; 0x03
     3d4:	21 a2       	std	Z+33, r2	; 0x21
     3d6:	65 23       	and	r22, r21
     3d8:	73 23       	and	r23, r19
     3da:	83 22       	and	r8, r19
     3dc:	83 22       	and	r8, r19
     3de:	64 42       	sbci	r22, 0x24	; 36
     3e0:	44 43       	sbci	r20, 0x34	; 52
     3e2:	16 63       	ori	r17, 0x36	; 54
     3e4:	07 91       	elpm	r16, Z+
     3e6:	87 07       	cpc	r24, r23
     3e8:	51 13       	cpse	r21, r17
     3ea:	37 43       	sbci	r19, 0x37	; 55
     3ec:	25 73       	andi	r18, 0x35	; 53
     3ee:	14 73       	andi	r17, 0x34	; 52
     3f0:	97 2e       	mov	r9, r23
     3f2:	27 e6       	ldi	r18, 0x67	; 103
     3f4:	46 a8       	ldd	r4, Z+54	; 0x36
     3f6:	68 0e       	add	r6, r24
     3f8:	c8 8e       	std	Y+24, r12	; 0x18
     3fa:	00 39       	cpi	r16, 0x90	; 144
     3fc:	2f 0f       	add	r18, r31
     3fe:	47 50       	subi	r20, 0x07	; 7
     400:	26 bb       	out	0x16, r18	; 22
     402:	83 21       	and	r24, r3
     404:	36 63       	ori	r19, 0x36	; 54
     406:	23 64       	ori	r18, 0x43	; 67
     408:	14 83       	std	Z+4, r17	; 0x04
     40a:	13 83       	std	Z+3, r17	; 0x03
     40c:	13 83       	std	Z+3, r17	; 0x03
     40e:	0f e2       	ldi	r16, 0x2F	; 47
     410:	0e c2       	rjmp	.+1052   	; 0x82e <__stack+0x32f>
     412:	2a 88       	ldd	r2, Y+18	; 0x12
     414:	2c 88       	ldd	r2, Y+20	; 0x14
     416:	4c 0e       	add	r4, r28
     418:	22 68       	ori	r18, 0x82	; 130
     41a:	4c 68       	ori	r20, 0x8C	; 140
     41c:	69 87       	std	Y+9, r22	; 0x09
     41e:	47 e4       	ldi	r20, 0x47	; 71
     420:	46 c8       	rjmp	.-3956   	; 0xfffff4ae <__eeprom_end+0xff7ef4ae>
     422:	46 a8       	ldd	r4, Z+54	; 0x36
     424:	66 58       	subi	r22, 0x86	; 134
     426:	1d c8       	rjmp	.-4038   	; 0xfffff462 <__eeprom_end+0xff7ef462>
     428:	d9 01       	movw	r26, r18
     42a:	3a 10       	cpse	r3, r10
     42c:	04 4e       	sbci	r16, 0xE4	; 228
     42e:	30 0d       	add	r19, r0
     430:	89 83       	std	Y+1, r24	; 0x01
     432:	08 79       	andi	r16, 0x98	; 152
     434:	44 12       	cpse	r4, r20
     436:	07 11       	cpse	r16, r7
     438:	12 00       	.word	0x0012	; ????
     43a:	3b 14       	cp	r3, r11
     43c:	a5 c6       	rjmp	.+3402   	; 0x1188 <init+0x20>
     43e:	2d 15       	cp	r18, r13
     440:	11 0a       	sbc	r1, r17
     442:	12 79       	andi	r17, 0x92	; 146
     444:	d4 22       	and	r13, r20
     446:	14 24       	eor	r1, r4
     448:	33 32       	cpi	r19, 0x23	; 35
     44a:	31 22       	and	r3, r17
     44c:	6a 00       	.word	0x006a	; ????
     44e:	3c 12       	cpse	r3, r28
     450:	50 ca       	rjmp	.-2912   	; 0xfffff8f2 <__eeprom_end+0xff7ef8f2>
     452:	8f 7e       	andi	r24, 0xEF	; 239
     454:	80 e8       	ldi	r24, 0x80	; 128
     456:	d9 ca       	rjmp	.-2638   	; 0xfffffa0a <__eeprom_end+0xff7efa0a>
     458:	3e 25       	eor	r19, r14
     45a:	a6 ee       	ldi	r26, 0xE6	; 230
     45c:	d7 f3       	brie	.-12     	; 0x452 <__LOCK_REGION_LENGTH__+0x52>
     45e:	00 01       	movw	r0, r0
     460:	3d 0d       	add	r19, r13
     462:	10 49       	sbci	r17, 0x90	; 144
     464:	92 86       	std	Z+10, r9	; 0x0a
     466:	1f d0       	rcall	.+62     	; 0x4a6 <__LOCK_REGION_LENGTH__+0xa6>
     468:	e3 e8       	ldi	r30, 0x83	; 131
     46a:	e0 03       	fmuls	r22, r16
     46c:	02 3e       	cpi	r16, 0xE2	; 226
     46e:	12 50       	subi	r17, 0x02	; 2
     470:	ca 8f       	std	Y+26, r28	; 0x1a
     472:	86 78       	andi	r24, 0x86	; 134
     474:	80 e9       	ldi	r24, 0x90	; 144
     476:	7e 4d       	sbci	r23, 0xDE	; 222
     478:	4c 5a       	subi	r20, 0xAC	; 172
     47a:	d9 b7       	in	r29, 0x39	; 57
     47c:	d3 f1       	brvs	.+116    	; 0x4f2 <__LOCK_REGION_LENGTH__+0xf2>
     47e:	00 3f       	cpi	r16, 0xF0	; 240
     480:	1d 2c       	mov	r1, r13
     482:	47 d0       	rcall	.+142    	; 0x512 <__stack+0x13>
     484:	95 a3       	std	Z+37, r25	; 0x25
     486:	91 0a       	sbc	r9, r17
     488:	b1 09       	sbc	r27, r1
     48a:	b1 33       	cpi	r27, 0x31	; 49
     48c:	67 83       	std	Z+7, r22	; 0x07
     48e:	ec 08       	sbc	r14, r12
     490:	57 2a       	or	r5, r23
     492:	8d 0d       	add	r24, r13
     494:	55 8f       	std	Z+29, r21	; 0x1d
     496:	85 24       	eor	r8, r5
     498:	21 a5       	ldd	r18, Z+41	; 0x29
     49a:	18 00       	.word	0x0018	; ????
     49c:	40 4a       	sbci	r20, 0xA0	; 160
     49e:	36 47       	sbci	r19, 0x76	; 118
     4a0:	30 c7       	rjmp	.+3680   	; 0x1302 <u8g2_m_16_4_f+0xa>
     4a2:	eb 03       	fmulsu	r22, r19
     4a4:	ca a2       	std	Y+34, r12	; 0x22
     4a6:	3a ca       	rjmp	.-2956   	; 0xfffff91c <__eeprom_end+0xff7ef91c>
     4a8:	b1 d9       	rcall	.-3230   	; 0xfffff80c <__eeprom_end+0xff7ef80c>
     4aa:	21 f1       	breq	.+72     	; 0x4f4 <__LOCK_REGION_LENGTH__+0xf4>
     4ac:	19 79       	andi	r17, 0x99	; 153
     4ae:	00 11       	cpse	r16, r0
     4b0:	a9 8a       	std	Y+17, r10	; 0x11
     4b2:	11 45       	sbci	r17, 0x51	; 81
     4b4:	23 35       	cpi	r18, 0x53	; 83
     4b6:	35 33       	cpi	r19, 0x35	; 53
     4b8:	35 8c       	ldd	r3, Z+29	; 0x1d
     4ba:	68 68       	ori	r22, 0x88	; 136
     4bc:	a6 86       	std	Z+14, r10	; 0x0e
     4be:	48 a8       	ldd	r4, Y+48	; 0x30
     4c0:	86 48       	sbci	r24, 0x86	; 134
     4c2:	88 88       	ldd	r8, Y+16	; 0x10
     4c4:	22 44       	sbci	r18, 0x42	; 66
     4c6:	a6 68       	ori	r26, 0x86	; 134
     4c8:	24 44       	sbci	r18, 0x44	; 68
     4ca:	a6 86       	std	Z+14, r10	; 0x0e
     4cc:	24 44       	sbci	r18, 0x44	; 68
     4ce:	86 68       	ori	r24, 0x86	; 134
     4d0:	94 c8       	rjmp	.-3800   	; 0xfffff5fa <__eeprom_end+0xff7ef5fa>
     4d2:	94 08       	sbc	r9, r4
     4d4:	89 4c       	sbci	r24, 0xC9	; 201
     4d6:	58 88       	ldd	r5, Y+16	; 0x10
     4d8:	89 94       	.word	0x9489	; ????
     4da:	90 c8       	rjmp	.-3808   	; 0xfffff5fc <__eeprom_end+0xff7ef5fc>
     4dc:	4c 0f       	add	r20, r28
     4de:	cd 8e       	std	Y+29, r12	; 0x1d
     4e0:	95 11       	cpse	r25, r5
     4e2:	1e 54       	subi	r17, 0x4E	; 78
     4e4:	df 01       	movw	r26, r30
     4e6:	41 3d       	cpi	r20, 0xD1	; 209
     4e8:	37 43       	sbci	r19, 0x37	; 55
     4ea:	f0 de       	rcall	.-544    	; 0x2cc <__trampolines_end+0x214>
     4ec:	78 b0       	in	r7, 0x08	; 8
     4ee:	79 a8       	ldd	r7, Y+49	; 0x31
     4f0:	79 20       	and	r7, r9
     4f2:	7a a0       	ldd	r7, Y+34	; 0x22
     4f4:	7a 98       	cbi	0x0f, 2	; 15
     4f6:	7a 10       	cpse	r7, r10
     4f8:	89 79       	andi	r24, 0x99	; 153
     4fa:	10 09       	sbc	r17, r0
     4fc:	7a 00       	.word	0x007a	; ????
     4fe:	11 7a       	andi	r17, 0xA1	; 161
     500:	00 99       	sbic	0x00, 0	; 0
     502:	79 00       	.word	0x0079	; ????
     504:	19 6a       	ori	r17, 0xA9	; 169
     506:	a9 69       	ori	r26, 0x99	; 153
     508:	29 62       	ori	r18, 0x29	; 41
     50a:	29 5a       	subi	r18, 0xA9	; 169
     50c:	b9 d9       	rcall	.-3214   	; 0xfffff880 <__eeprom_end+0xff7ef880>
     50e:	03 d3       	rcall	.+1542   	; 0xb16 <__stack+0x617>
     510:	03 4b       	sbci	r16, 0xB3	; 179
     512:	c9 49       	sbci	r28, 0x99	; 153
     514:	49 42       	sbci	r20, 0x29	; 41
     516:	49 3a       	cpi	r20, 0xA9	; 169
     518:	59 32       	cpi	r21, 0x29	; 41
     51a:	59 aa       	std	Y+49, r5	; 0x31
     51c:	d9 9a       	sbi	0x1b, 1	; 27
     51e:	ca 8b       	std	Y+18, r28	; 0x12
     520:	bb 03       	fmulsu	r19, r19
     522:	01 42       	sbci	r16, 0x21	; 33
     524:	3c 34       	cpi	r19, 0x4C	; 76
     526:	47 f0       	brie	.+16     	; 0x538 <__stack+0x39>
     528:	86 07       	cpc	r24, r22
     52a:	71 07       	cpc	r23, r17
     52c:	07 71       	andi	r16, 0x17	; 23
     52e:	63 65       	ori	r22, 0x53	; 83
     530:	83 63       	ori	r24, 0x33	; 51
     532:	83 54       	subi	r24, 0x43	; 67
     534:	83 54       	subi	r24, 0x43	; 67
     536:	83 54       	subi	r24, 0x43	; 67
     538:	83 54       	subi	r24, 0x43	; 67
     53a:	83 63       	ori	r24, 0x33	; 51
     53c:	83 63       	ori	r24, 0x33	; 51
     53e:	73 73       	andi	r23, 0x33	; 51
     540:	07 85       	ldd	r16, Z+15	; 0x0f
     542:	07 a3       	std	Z+39, r16	; 0x27
     544:	53 75       	andi	r21, 0x53	; 83
     546:	73 64       	ori	r23, 0x43	; 67
     548:	83 54       	subi	r24, 0x43	; 67
     54a:	93 44       	sbci	r25, 0x43	; 67
     54c:	93 44       	sbci	r25, 0x43	; 67
     54e:	93 44       	sbci	r25, 0x43	; 67
     550:	93 44       	sbci	r25, 0x43	; 67
     552:	93 44       	sbci	r25, 0x43	; 67
     554:	83 54       	subi	r24, 0x43	; 67
     556:	73 35       	cpi	r23, 0x53	; 83
     558:	07 07       	cpc	r16, r23
     55a:	22 07       	cpc	r18, r18
     55c:	07 42       	sbci	r16, 0x27	; 39
     55e:	00 43       	sbci	r16, 0x30	; 48
     560:	39 34       	cpi	r19, 0x49	; 73
     562:	47 d0       	rcall	.+142    	; 0x5f2 <__stack+0xf3>
     564:	be 1b       	sub	r27, r30
     566:	b1 03       	fmuls	r19, r17
     568:	0a a9       	ldd	r16, Y+50	; 0x32
     56a:	b9 a2       	std	Y+33, r11	; 0x21
     56c:	49 1a       	sub	r4, r25
     56e:	d2 99       	sbic	0x1a, 2	; 26
     570:	d9 11       	cpse	r29, r9
     572:	62 11       	cpse	r22, r2
     574:	62 09       	sbc	r22, r2
     576:	f2 08       	sbc	r15, r2
     578:	f2 08       	sbc	r15, r2
     57a:	7a 08       	sbc	r7, r10
     57c:	7a 08       	sbc	r7, r10
     57e:	7a 08       	sbc	r7, r10
     580:	7a 08       	sbc	r7, r10
     582:	7a 08       	sbc	r7, r10
     584:	7a 08       	sbc	r7, r10
     586:	72 09       	sbc	r23, r2
     588:	6a 09       	sbc	r22, r10
     58a:	6a 09       	sbc	r22, r10
     58c:	62 19       	sub	r22, r2
     58e:	5a a1       	ldd	r21, Y+34	; 0x22
     590:	51 31       	cpi	r21, 0x11	; 17
     592:	b2 c1       	rjmp	.+868    	; 0x8f8 <__stack+0x3f9>
     594:	03 da       	rcall	.-3066   	; 0xfffff99c <__eeprom_end+0xff7ef99c>
     596:	33 00       	.word	0x0033	; ????
     598:	44 3c       	cpi	r20, 0xC4	; 196
     59a:	36 47       	sbci	r19, 0x76	; 118
     59c:	30 87       	std	Z+8, r19	; 0x08
     59e:	07 91       	elpm	r16, Z+
     5a0:	07 07       	cpc	r16, r23
     5a2:	82 73       	andi	r24, 0x32	; 50
     5a4:	75 93       	las	Z, r23
     5a6:	64 a3       	std	Z+36, r22	; 0x24
     5a8:	63 a3       	std	Z+35, r22	; 0x23
     5aa:	54 a3       	std	Z+36, r21	; 0x24
     5ac:	54 b3       	in	r21, 0x14	; 20
     5ae:	44 b3       	in	r20, 0x14	; 20
     5b0:	44 b3       	in	r20, 0x14	; 20
     5b2:	44 b3       	in	r20, 0x14	; 20
     5b4:	44 b3       	in	r20, 0x14	; 20
     5b6:	44 b3       	in	r20, 0x14	; 20
     5b8:	44 b3       	in	r20, 0x14	; 20
     5ba:	44 b3       	in	r20, 0x14	; 20
     5bc:	44 b3       	in	r20, 0x14	; 20
     5be:	44 b3       	in	r20, 0x14	; 20
     5c0:	44 b3       	in	r20, 0x14	; 20
     5c2:	44 b3       	in	r20, 0x14	; 20
     5c4:	53 a3       	std	Z+35, r21	; 0x23
     5c6:	54 a3       	std	Z+36, r21	; 0x24
     5c8:	63 93       	.word	0x9363	; ????
     5ca:	73 73       	andi	r23, 0x33	; 51
     5cc:	55 07       	cpc	r21, r21
     5ce:	07 42       	sbci	r16, 0x27	; 39
     5d0:	07 07       	cpc	r16, r23
     5d2:	71 00       	.word	0x0071	; ????
     5d4:	45 3d       	cpi	r20, 0xD5	; 213
     5d6:	34 47       	sbci	r19, 0x74	; 116
     5d8:	10 87       	std	Z+8, r17	; 0x08
     5da:	07 26       	eor	r0, r23
     5dc:	07 07       	cpc	r16, r23
     5de:	44 83       	std	Z+4, r20	; 0x04
     5e0:	45 a3       	std	Z+37, r20	; 0x25
     5e2:	43 a3       	std	Z+35, r20	; 0x23
     5e4:	43 b3       	in	r20, 0x13	; 19
     5e6:	42 63       	ori	r20, 0x32	; 50
     5e8:	41 42       	sbci	r20, 0x21	; 33
     5ea:	63 51       	subi	r22, 0x13	; 19
     5ec:	41 63       	ori	r20, 0x31	; 49
     5ee:	51 41       	sbci	r21, 0x11	; 17
     5f0:	53 a2       	std	Z+35, r5	; 0x23
     5f2:	33 a4       	ldd	r3, Z+43	; 0x2b
     5f4:	07 a3       	std	Z+39, r16	; 0x27
     5f6:	07 a3       	std	Z+39, r16	; 0x27
     5f8:	33 a4       	ldd	r3, Z+43	; 0x2b
     5fa:	53 a2       	std	Z+35, r5	; 0x23
     5fc:	53 a2       	std	Z+35, r5	; 0x23
     5fe:	63 51       	subi	r22, 0x13	; 19
     600:	41 63       	ori	r20, 0x31	; 49
     602:	51 41       	sbci	r21, 0x11	; 17
     604:	c3 41       	sbci	r28, 0x13	; 19
     606:	b3 42       	sbci	r27, 0x23	; 35
     608:	b3 42       	sbci	r27, 0x23	; 35
     60a:	a3 43       	sbci	r26, 0x33	; 51
     60c:	83 25       	eor	r24, r3
     60e:	07 3f       	cpi	r16, 0xF7	; 247
     610:	18 46       	sbci	r17, 0x68	; 104
     612:	3b 34       	cpi	r19, 0x4B	; 75
     614:	47 d0       	rcall	.+142    	; 0x6a4 <__stack+0x1a5>
     616:	86 07       	cpc	r24, r22
     618:	26 07       	cpc	r18, r22
     61a:	07 44       	sbci	r16, 0x47	; 71
     61c:	83 45       	sbci	r24, 0x53	; 83
     61e:	a3 43       	sbci	r26, 0x33	; 51
     620:	b3 42       	sbci	r27, 0x23	; 35
     622:	b3 42       	sbci	r27, 0x23	; 35
     624:	c3 41       	sbci	r28, 0x13	; 19
     626:	63 51       	subi	r22, 0x13	; 19
     628:	41 63       	ori	r20, 0x31	; 49
     62a:	51 41       	sbci	r21, 0x11	; 17
     62c:	53 a2       	std	Z+35, r5	; 0x23
     62e:	53 a2       	std	Z+35, r5	; 0x23
     630:	33 a4       	ldd	r3, Z+43	; 0x2b
     632:	07 a3       	std	Z+39, r16	; 0x27
     634:	07 a3       	std	Z+39, r16	; 0x27
     636:	43 a3       	std	Z+35, r20	; 0x23
     638:	53 a2       	std	Z+35, r5	; 0x23
     63a:	63 a1       	ldd	r22, Z+35	; 0x23
     63c:	63 a1       	ldd	r22, Z+35	; 0x23
     63e:	63 a1       	ldd	r22, Z+35	; 0x23
     640:	f3 20       	and	r15, r3
     642:	f3 20       	and	r15, r3
     644:	f3 20       	and	r15, r3
     646:	f3 00       	.word	0x00f3	; ????
     648:	b7 07       	cpc	r27, r23
     64a:	94 00       	.word	0x0094	; ????
     64c:	47 41       	sbci	r20, 0x17	; 23
     64e:	38 47       	sbci	r19, 0x78	; 120
     650:	10 bf       	out	0x30, r17	; 48
     652:	83 18       	sub	r8, r3
     654:	c9 83       	std	Y+1, r28	; 0x01
     656:	0a 41       	sbci	r16, 0x1A	; 26
     658:	32 3b       	cpi	r19, 0xB2	; 178
     65a:	4a 32       	cpi	r20, 0x2A	; 42
     65c:	da b1       	in	r29, 0x0a	; 10
     65e:	e1 29       	or	r30, r1
     660:	6a a9       	ldd	r22, Y+50	; 0x32
     662:	71 a9       	ldd	r23, Z+49	; 0x31
     664:	79 80       	ldd	r7, Y+1	; 0x01
     666:	20 7a       	andi	r18, 0xA0	; 160
     668:	80 20       	and	r8, r0
     66a:	7a 28       	or	r7, r10
     66c:	7a 28       	or	r7, r10
     66e:	7a 28       	or	r7, r10
     670:	7a 28       	or	r7, r10
     672:	ca 83       	std	Y+2, r28	; 0x02
     674:	83 e0       	ldi	r24, 0x03	; 3
     676:	1a ea       	ldi	r17, 0xAA	; 170
     678:	a9 e9       	ldi	r26, 0x99	; 153
     67a:	a9 e9       	ldi	r26, 0x99	; 153
     67c:	29 e2       	ldi	r18, 0x29	; 41
     67e:	b1 59       	subi	r27, 0x91	; 145
     680:	ba 51       	subi	r27, 0x1A	; 26
     682:	42 3a       	cpi	r20, 0xA2	; 162
     684:	09 c9       	rjmp	.-3566   	; 0xfffff898 <__eeprom_end+0xff7ef898>
     686:	03 12       	cpse	r0, r19
     688:	d9 83       	std	Y+1, r29	; 0x01
     68a:	a0 20       	and	r10, r0
     68c:	00 48       	sbci	r16, 0x80	; 128
     68e:	3e 39       	cpi	r19, 0x9E	; 158
     690:	47 70       	andi	r20, 0x07	; 7
     692:	87 03       	fmuls	r16, r23
     694:	9a 03       	fmulsu	r17, r18
     696:	92 bb       	out	0x12, r25	; 18
     698:	b3 d9       	rcall	.-3226   	; 0xfffffa00 <__eeprom_end+0xff7efa00>
     69a:	c1 d9       	rcall	.-3198   	; 0xfffffa1e <__eeprom_end+0xff7efa1e>
     69c:	c1 d9       	rcall	.-3198   	; 0xfffffa20 <__eeprom_end+0xff7efa20>
     69e:	c1 d9       	rcall	.-3198   	; 0xfffffa22 <__eeprom_end+0xff7efa22>
     6a0:	c1 d9       	rcall	.-3198   	; 0xfffffa24 <__eeprom_end+0xff7efa24>
     6a2:	c1 d9       	rcall	.-3198   	; 0xfffffa26 <__eeprom_end+0xff7efa26>
     6a4:	c1 d9       	rcall	.-3198   	; 0xfffffa28 <__eeprom_end+0xff7efa28>
     6a6:	c1 d9       	rcall	.-3198   	; 0xfffffa2a <__eeprom_end+0xff7efa2a>
     6a8:	c1 d9       	rcall	.-3198   	; 0xfffffa2c <__eeprom_end+0xff7efa2c>
     6aa:	c1 83       	std	Z+1, r28	; 0x01
     6ac:	83 c1       	rjmp	.+774    	; 0x9b4 <__stack+0x4b5>
     6ae:	83 83       	std	Z+3, r24	; 0x03
     6b0:	c1 d9       	rcall	.-3198   	; 0xfffffa34 <__eeprom_end+0xff7efa34>
     6b2:	c1 d9       	rcall	.-3198   	; 0xfffffa36 <__eeprom_end+0xff7efa36>
     6b4:	c1 d9       	rcall	.-3198   	; 0xfffffa38 <__eeprom_end+0xff7efa38>
     6b6:	c1 d9       	rcall	.-3198   	; 0xfffffa3a <__eeprom_end+0xff7efa3a>
     6b8:	c1 d9       	rcall	.-3198   	; 0xfffffa3c <__eeprom_end+0xff7efa3c>
     6ba:	c1 d9       	rcall	.-3198   	; 0xfffffa3e <__eeprom_end+0xff7efa3e>
     6bc:	c1 d9       	rcall	.-3198   	; 0xfffffa40 <__eeprom_end+0xff7efa40>
     6be:	c1 d9       	rcall	.-3198   	; 0xfffffa42 <__eeprom_end+0xff7efa42>
     6c0:	c1 d9       	rcall	.-3198   	; 0xfffffa44 <__eeprom_end+0xff7efa44>
     6c2:	c1 d9       	rcall	.-3198   	; 0xfffffa46 <__eeprom_end+0xff7efa46>
     6c4:	b1 bb       	out	0x11, r27	; 17
     6c6:	93 03       	fmuls	r17, r19
     6c8:	9a 03       	fmulsu	r17, r18
     6ca:	02 49       	sbci	r16, 0x92	; 146
     6cc:	10 2b       	or	r17, r16
     6ce:	47 b0       	in	r4, 0x07	; 7
     6d0:	85 03       	fmuls	r16, r21
     6d2:	92 b3       	in	r25, 0x12	; 18
     6d4:	c1 fd       	sbrc	r28, 1
     6d6:	ff 9f       	mul	r31, r31
     6d8:	9d 1c       	adc	r9, r13
     6da:	10 4a       	sbci	r17, 0xA0	; 160
     6dc:	1e 31       	cpi	r17, 0x1E	; 30
     6de:	43 50       	subi	r20, 0x03	; 3
     6e0:	b6 03       	fmuls	r19, r22
     6e2:	ca ea       	ldi	r28, 0xAA	; 170
     6e4:	f1 fd       	sbrc	r31, 1
     6e6:	bf 1a       	sub	r11, r31
     6e8:	1b aa       	std	Y+51, r1	; 0x33
     6ea:	1a aa       	std	Y+50, r1	; 0x32
     6ec:	1a aa       	std	Y+50, r1	; 0x32
     6ee:	1a 22       	and	r1, r26
     6f0:	1b 92       	.word	0x921b	; ????
     6f2:	23 1a       	sub	r2, r19
     6f4:	1b 3b       	cpi	r17, 0xBB	; 187
     6f6:	20 bc       	out	0x20, r2	; 32
     6f8:	03 4b       	sbci	r16, 0xB3	; 179
     6fa:	3e 39       	cpi	r19, 0x9E	; 158
     6fc:	47 30       	cpi	r20, 0x07	; 7
     6fe:	87 03       	fmuls	r16, r23
     700:	9a 83       	std	Y+2, r25	; 0x02
     702:	99 b3       	in	r25, 0x19	; 25
     704:	bb 49       	sbci	r27, 0x9B	; 155
     706:	ca a5       	ldd	r28, Y+42	; 0x2a
     708:	83 b3       	in	r24, 0x13	; 19
     70a:	83 c2       	rjmp	.+1286   	; 0xc12 <__stack+0x713>
     70c:	73 d2       	rcall	.+1254   	; 0xbf4 <__stack+0x6f5>
     70e:	63 e2       	ldi	r22, 0x23	; 35
     710:	53 e3       	ldi	r21, 0x33	; 51
     712:	43 f3       	brvs	.-48     	; 0x6e4 <__stack+0x1e5>
     714:	00 33       	cpi	r16, 0x30	; 48
     716:	f3 10       	cpse	r15, r3
     718:	23 f5       	brvc	.+72     	; 0x762 <__stack+0x263>
     71a:	00 13       	cpse	r16, r16
     71c:	e7 16       	cp	r14, r23
     71e:	e4 35       	cpi	r30, 0x54	; 84
     720:	d4 54       	subi	r29, 0x44	; 68
     722:	c4 63       	ori	r28, 0x34	; 52
     724:	b5 73       	andi	r27, 0x35	; 53
     726:	b4 83       	std	Z+4, r27	; 0x04
     728:	a4 83       	std	Z+4, r26	; 0x04
     72a:	95 93       	las	Z, r25
     72c:	94 a3       	std	Z+36, r25	; 0x24
     72e:	84 a3       	std	Z+36, r24	; 0x24
     730:	55 a6       	std	Z+45, r5	; 0x2d
     732:	25 07       	cpc	r18, r21
     734:	63 07       	cpc	r22, r19
     736:	02 4c       	sbci	r16, 0xC2	; 194
     738:	3b 34       	cpi	r19, 0x4B	; 75
     73a:	47 d0       	rcall	.+142    	; 0x7ca <__stack+0x2cb>
     73c:	86 03       	fmuls	r16, r22
     73e:	da 7b       	andi	r29, 0xBA	; 186
     740:	80 79       	andi	r24, 0x90	; 144
     742:	90 79       	andi	r25, 0x90	; 144
     744:	90 79       	andi	r25, 0x90	; 144
     746:	90 79       	andi	r25, 0x90	; 144
     748:	90 79       	andi	r25, 0x90	; 144
     74a:	90 79       	andi	r25, 0x90	; 144
     74c:	90 79       	andi	r25, 0x90	; 144
     74e:	90 79       	andi	r25, 0x90	; 144
     750:	90 79       	andi	r25, 0x90	; 144
     752:	90 79       	andi	r25, 0x90	; 144
     754:	90 79       	andi	r25, 0x90	; 144
     756:	90 79       	andi	r25, 0x90	; 144
     758:	90 79       	andi	r25, 0x90	; 144
     75a:	90 79       	andi	r25, 0x90	; 144
     75c:	90 e1       	ldi	r25, 0x10	; 16
     75e:	a0 e1       	ldi	r26, 0x10	; 16
     760:	a0 e1       	ldi	r26, 0x10	; 16
     762:	a0 59       	subi	r26, 0x90	; 144
     764:	a1 59       	subi	r26, 0x91	; 145
     766:	a1 d1       	rcall	.+834    	; 0xaaa <__stack+0x5ab>
     768:	a1 c1       	rjmp	.+834    	; 0xaac <__stack+0x5ad>
     76a:	92 83       	std	Z+2, r25	; 0x02
     76c:	83 89       	ldd	r24, Z+19	; 0x13
     76e:	83 83       	std	Z+3, r24	; 0x03
     770:	0a 00       	.word	0x000a	; ????
     772:	4d 5f       	subi	r20, 0xFD	; 253
     774:	3d 43       	sbci	r19, 0x3D	; 61
     776:	d0 8f       	std	Z+24, r29	; 0x18
     778:	83 d8       	rcall	.-3834   	; 0xfffff880 <__eeprom_end+0xff7ef880>
     77a:	03 19       	sub	r16, r3
     77c:	5b bb       	out	0x1b, r21	; 27
     77e:	da 42       	sbci	r29, 0x2A	; 42
     780:	d3 42       	sbci	r29, 0x23	; 35
     782:	89 49       	sbci	r24, 0x99	; 153
     784:	89 41       	sbci	r24, 0x19	; 25
     786:	89 49       	sbci	r24, 0x99	; 153
     788:	89 41       	sbci	r24, 0x19	; 25
     78a:	09 c2       	rjmp	.+1042   	; 0xb9e <__stack+0x69f>
     78c:	90 41       	sbci	r25, 0x10	; 16
     78e:	91 39       	cpi	r25, 0x91	; 145
     790:	91 41       	sbci	r25, 0x11	; 17
     792:	91 39       	cpi	r25, 0x91	; 145
     794:	91 41       	sbci	r25, 0x11	; 17
     796:	11 b2       	in	r1, 0x11	; 17
     798:	98 41       	sbci	r25, 0x18	; 24
     79a:	99 29       	or	r25, r9
     79c:	99 41       	sbci	r25, 0x19	; 25
     79e:	99 29       	or	r25, r9
     7a0:	99 41       	sbci	r25, 0x19	; 25
     7a2:	19 22       	and	r1, r25
     7a4:	99 41       	sbci	r25, 0x19	; 25
     7a6:	a1 19       	sub	r26, r1
     7a8:	a1 41       	sbci	r26, 0x11	; 17
     7aa:	a1 19       	sub	r26, r1
     7ac:	a1 41       	sbci	r26, 0x11	; 17
     7ae:	21 12       	cpse	r2, r17
     7b0:	a1 41       	sbci	r26, 0x11	; 17
     7b2:	a9 91       	ld	r26, Y+
     7b4:	a8 41       	sbci	r26, 0x18	; 24
     7b6:	a9 09       	sbc	r26, r9
     7b8:	a9 41       	sbci	r26, 0x19	; 25
     7ba:	29 ab       	std	Y+49, r18	; 0x31
     7bc:	41 a9       	ldd	r20, Z+49	; 0x31
     7be:	b2 41       	sbci	r27, 0x12	; 18
     7c0:	31 b2       	in	r3, 0x11	; 17
     7c2:	41 31       	cpi	r20, 0x11	; 17
     7c4:	b2 41       	sbci	r27, 0x12	; 18
     7c6:	b1 b9       	out	0x01, r27	; 1
     7c8:	31 2b       	or	r19, r17
     7ca:	a9 93       	st	Y+, r26
     7cc:	83 19       	sub	r24, r3
     7ce:	99 03       	fmulsu	r17, r17
     7d0:	02 4e       	sbci	r16, 0xE2	; 226
     7d2:	49 3a       	cpi	r20, 0xA9	; 169
     7d4:	47 90       	elpm	r4, Z+
     7d6:	87 83       	std	Z+7, r24	; 0x07
     7d8:	c0 83       	st	Z, r28
     7da:	99 52       	subi	r25, 0x29	; 41
     7dc:	b3 5a       	subi	r27, 0xA3	; 163
     7de:	41 53       	subi	r20, 0x31	; 49
     7e0:	41 53       	subi	r20, 0x31	; 49
     7e2:	41 09       	sbc	r20, r1
     7e4:	4a 41       	sbci	r20, 0x1A	; 26
     7e6:	89 42       	sbci	r24, 0x29	; 41
     7e8:	25 75       	andi	r18, 0x55	; 85
     7ea:	82 32       	cpi	r24, 0x22	; 34
     7ec:	74 82       	std	Z+4, r7	; 0x04
     7ee:	32 65       	ori	r19, 0x52	; 82
     7f0:	82 42       	sbci	r24, 0x22	; 34
     7f2:	55 82       	std	Z+5, r5	; 0x05
     7f4:	52 54       	subi	r21, 0x42	; 66
     7f6:	82 52       	subi	r24, 0x22	; 34
     7f8:	45 82       	std	Z+5, r4	; 0x05
     7fa:	62 35       	cpi	r22, 0x52	; 82
     7fc:	82 72       	andi	r24, 0x22	; 34
     7fe:	34 82       	std	Z+4, r3	; 0x04
     800:	72 25       	eor	r23, r2
     802:	82 82       	std	Z+2, r8	; 0x02
     804:	24 82       	std	Z+4, r2	; 0x04
     806:	92 14       	cp	r9, r2
     808:	82 a2       	std	Z+34, r8	; 0x22
     80a:	13 82       	std	Z+3, r1	; 0x03
     80c:	a2 86       	std	Z+10, r10	; 0x0a
     80e:	b2 85       	ldd	r27, Z+10	; 0x0a
     810:	c2 84       	ldd	r12, Z+10	; 0x0a
     812:	c2 64       	ori	r28, 0x42	; 66
     814:	b6 43       	sbci	r27, 0x36	; 54
     816:	07 a3       	std	Z+39, r16	; 0x27
     818:	42 00       	.word	0x0042	; ????
     81a:	4f 38       	cpi	r20, 0x8F	; 143
     81c:	36 47       	sbci	r19, 0x76	; 118
     81e:	10 bf       	out	0x30, r17	; 48
     820:	83 e0       	ldi	r24, 0x03	; 3
     822:	83 4a       	sbci	r24, 0xA3	; 163
     824:	32 ba       	out	0x12, r3	; 18
     826:	d1 29       	or	r29, r1
     828:	52 a2       	std	Z+34, r5	; 0x22
     82a:	e1 19       	sub	r30, r1
     82c:	62 92       	st	-Z, r6
     82e:	f1 09       	sbc	r31, r1
     830:	f2 83       	std	Z+2, r31	; 0x02
     832:	f0 7b       	andi	r31, 0xB0	; 176
     834:	08 7b       	andi	r16, 0xB8	; 184
     836:	08 7b       	andi	r16, 0xB8	; 184
     838:	08 7b       	andi	r16, 0xB8	; 184
     83a:	08 7b       	andi	r16, 0xB8	; 184
     83c:	88 f3       	brcs	.-30     	; 0x820 <__stack+0x321>
     83e:	83 f0       	brvs	.+32     	; 0x860 <__stack+0x361>
     840:	91 f1       	breq	.+100    	; 0x8a6 <__stack+0x3a7>
     842:	11 62       	ori	r17, 0x21	; 33
     844:	9a e1       	ldi	r25, 0x1A	; 26
     846:	21 52       	subi	r18, 0x21	; 33
     848:	aa d1       	rcall	.+852    	; 0xb9e <__stack+0x69f>
     84a:	39 32       	cpi	r19, 0x29	; 41
     84c:	ca 83       	std	Y+2, r28	; 0x02
     84e:	e2 83       	std	Z+2, r30	; 0x02
     850:	38 00       	.word	0x0038	; ????
     852:	50 39       	cpi	r21, 0x90	; 144
     854:	34 47       	sbci	r19, 0x74	; 116
     856:	d0 86       	std	Z+8, r13	; 0x08
     858:	07 71       	andi	r16, 0x17	; 23
     85a:	07 07       	cpc	r16, r23
     85c:	71 63       	ori	r23, 0x31	; 49
     85e:	65 83       	std	Z+5, r22	; 0x05
     860:	54 93       	xch	Z, r21
     862:	44 93       	xch	Z, r20
     864:	44 a3       	std	Z+36, r20	; 0x24
     866:	43 a3       	std	Z+35, r20	; 0x23
     868:	43 93       	.word	0x9343	; ????
     86a:	44 93       	xch	Z, r20
     86c:	44 83       	std	Z+4, r20	; 0x04
     86e:	54 63       	ori	r21, 0x34	; 52
     870:	65 07       	cpc	r22, r21
     872:	76 07       	cpc	r23, r22
     874:	94 f3       	brlt	.-28     	; 0x85a <__stack+0x35b>
     876:	20 f3       	brcs	.-56     	; 0x840 <__stack+0x341>
     878:	20 f3       	brcs	.-56     	; 0x842 <__stack+0x343>
     87a:	20 f3       	brcs	.-56     	; 0x844 <__stack+0x345>
     87c:	20 f3       	brcs	.-56     	; 0x846 <__stack+0x347>
     87e:	20 f3       	brcs	.-56     	; 0x848 <__stack+0x349>
     880:	20 f3       	brcs	.-56     	; 0x84a <__stack+0x34b>
     882:	20 f3       	brcs	.-56     	; 0x84c <__stack+0x34d>
     884:	20 f3       	brcs	.-56     	; 0x84e <__stack+0x34f>
     886:	00 b7       	in	r16, 0x30	; 48
     888:	07 94       	ror	r0
     88a:	00 51       	subi	r16, 0x10	; 16
     88c:	52 f7       	brpl	.-44     	; 0x862 <__stack+0x363>
     88e:	47 0d       	add	r20, r7
     890:	c7 f3       	brie	.-16     	; 0x882 <__stack+0x383>
     892:	03 52       	subi	r16, 0x23	; 35
     894:	3a 96       	adiw	r30, 0x0a	; 10
     896:	54 b4       	in	r5, 0x24	; 36
     898:	44 d3       	rcall	.+1672   	; 0xf22 <__stack+0xa23>
     89a:	33 d4       	rcall	.+2150   	; 0x1102 <u8x8_gpio_and_delay+0xda>
     89c:	24 f3       	brlt	.-56     	; 0x866 <__stack+0x367>
     89e:	00 13       	cpse	r16, r16
     8a0:	f4 00       	.word	0x00f4	; ????
     8a2:	07 f1       	brie	.+64     	; 0x8e4 <__stack+0x3e5>
     8a4:	00 f7       	brcc	.-64     	; 0x866 <__stack+0x367>
     8a6:	20 f6       	brcc	.-120    	; 0x830 <__stack+0x331>
     8a8:	20 f6       	brcc	.-120    	; 0x832 <__stack+0x333>
     8aa:	20 f6       	brcc	.-120    	; 0x834 <__stack+0x335>
     8ac:	20 f7       	brcc	.-56     	; 0x876 <__stack+0x377>
     8ae:	00 07       	cpc	r16, r16
     8b0:	f1 00       	.word	0x00f1	; ????
     8b2:	14 53       	subi	r17, 0x34	; 52
     8b4:	55 23       	and	r21, r21
     8b6:	24 13       	cpse	r18, r20
     8b8:	34 24       	eor	r3, r4
     8ba:	24 42       	sbci	r18, 0x24	; 36
     8bc:	23 43       	sbci	r18, 0x33	; 51
     8be:	14 61       	ori	r17, 0x14	; 20
     8c0:	12 63       	ori	r17, 0x32	; 50
     8c2:	13 61       	ori	r17, 0x13	; 19
     8c4:	12 63       	ori	r17, 0x32	; 50
     8c6:	0d ab       	std	Y+53, r16	; 0x35
     8c8:	68 0f       	add	r22, r24
     8ca:	c8 0f       	add	r28, r24
     8cc:	e6 81       	ldd	r30, Z+6	; 0x06
     8ce:	68 e4       	ldi	r22, 0x48	; 72
     8d0:	01 66       	ori	r16, 0x61	; 97
     8d2:	e4 01       	movw	r28, r8
     8d4:	48 e2       	ldi	r20, 0x28	; 40
     8d6:	21 ee       	ldi	r18, 0xE1	; 225
     8d8:	41 ea       	ldi	r20, 0xA1	; 161
     8da:	81 66       	ori	r24, 0x61	; 97
     8dc:	00 52       	subi	r16, 0x20	; 32
     8de:	3f 35       	cpi	r19, 0x5F	; 95
     8e0:	47 f0       	brie	.+16     	; 0x8f2 <__stack+0x3f3>
     8e2:	86 07       	cpc	r24, r22
     8e4:	81 07       	cpc	r24, r17
     8e6:	07 81       	ldd	r16, Z+7	; 0x07
     8e8:	63 75       	andi	r22, 0x53	; 83
     8ea:	83 73       	andi	r24, 0x33	; 51
     8ec:	83 64       	ori	r24, 0x43	; 67
     8ee:	93 63       	ori	r25, 0x33	; 51
     8f0:	93 63       	ori	r25, 0x33	; 51
     8f2:	83 64       	ori	r24, 0x43	; 67
     8f4:	83 64       	ori	r24, 0x43	; 67
     8f6:	83 73       	andi	r24, 0x33	; 51
     8f8:	73 74       	andi	r23, 0x43	; 67
     8fa:	53 94       	inc	r5
     8fc:	07 b3       	in	r16, 0x17	; 23
     8fe:	07 a4       	ldd	r0, Z+47	; 0x2f
     900:	53 94       	inc	r5
     902:	63 93       	.word	0x9363	; ????
     904:	63 84       	ldd	r6, Z+11	; 0x0b
     906:	73 83       	std	Z+3, r23	; 0x03
     908:	73 83       	std	Z+3, r23	; 0x03
     90a:	73 33       	cpi	r23, 0x33	; 51
     90c:	41 73       	andi	r20, 0x31	; 49
     90e:	33 41       	sbci	r19, 0x13	; 19
     910:	73 33       	cpi	r23, 0x33	; 51
     912:	41 73       	andi	r20, 0x31	; 49
     914:	14 22       	and	r1, r20
     916:	67 15       	cp	r22, r7
     918:	07 44       	sbci	r16, 0x47	; 71
     91a:	24 00       	.word	0x0024	; ????
     91c:	53 31       	cpi	r21, 0x13	; 19
     91e:	31 4b       	sbci	r19, 0xB1	; 177
     920:	90 a6       	std	Z+40, r9	; 0x28
     922:	83 98       	cbi	0x10, 3	; 16
     924:	98 03       	fmulsu	r17, r16
     926:	0a 91       	ld	r16, -Y
     928:	b9 12       	cpse	r11, r25
     92a:	d1 89       	ldd	r29, Z+17	; 0x11
     92c:	d1 89       	ldd	r29, Z+17	; 0x11
     92e:	59 89       	ldd	r21, Y+17	; 0x11
     930:	e1 08       	sbc	r14, r1
     932:	da 08       	sbc	r13, r10
     934:	72 db       	rcall	.-2332   	; 0x1a <__FUSE_REGION_LENGTH__+0x17>
     936:	83 c9       	rjmp	.-3322   	; 0xfffffc3e <__eeprom_end+0xff7efc3e>
     938:	03 c2       	rjmp	.+1030   	; 0xd40 <__stack+0x841>
     93a:	83 d9       	rcall	.-3322   	; 0xfffffc42 <__eeprom_end+0xff7efc42>
     93c:	6b e3       	ldi	r22, 0x3B	; 59
     93e:	ea e2       	ldi	r30, 0x2A	; 42
     940:	c6 a6       	std	Z+46, r12	; 0x2e
     942:	07 91       	elpm	r16, Z+
     944:	13 75       	andi	r17, 0x53	; 83
     946:	23 12       	cpse	r2, r19
     948:	07 34       	cpi	r16, 0x47	; 71
     94a:	41 57       	subi	r20, 0x71	; 113
     94c:	00 54       	subi	r16, 0x40	; 64
     94e:	35 33       	cpi	r19, 0x35	; 53
     950:	47 b0       	in	r4, 0x07	; 7
     952:	86 7f       	andi	r24, 0xF6	; 246
     954:	34 73       	andi	r19, 0x34	; 52
     956:	10 35       	cpi	r17, 0x50	; 80
     958:	55 36       	cpi	r21, 0x65	; 101
     95a:	46 b6       	in	r4, 0x36	; 54
     95c:	6e 4e       	sbci	r22, 0xEE	; 238
     95e:	6e 4e       	sbci	r22, 0xEE	; 238
     960:	6e 2e       	mov	r6, r30
     962:	70 1e       	adc	r7, r16
     964:	62 1e       	adc	r6, r18
     966:	62 1e       	adc	r6, r18
     968:	62 1e       	adc	r6, r18
     96a:	62 1e       	adc	r6, r18
     96c:	62 1e       	adc	r6, r18
     96e:	62 1e       	adc	r6, r18
     970:	62 1e       	adc	r6, r18
     972:	62 1e       	adc	r6, r18
     974:	62 1e       	adc	r6, r18
     976:	62 1e       	adc	r6, r18
     978:	62 1e       	adc	r6, r18
     97a:	62 1e       	adc	r6, r18
     97c:	62 fc       	sbrc	r6, 2
     97e:	f4 80       	ldd	r15, Z+4	; 0x04
     980:	08 00       	.word	0x0008	; ????
     982:	55 3b       	cpi	r21, 0xB5	; 181
     984:	3a 43       	sbci	r19, 0x3A	; 58
     986:	50 87       	std	Z+8, r21	; 0x08
     988:	03 aa       	std	Z+51, r0	; 0x33
     98a:	83 91       	.word	0x9183	; ????
     98c:	4b b3       	in	r20, 0x1b	; 27
     98e:	69 c1       	rjmp	.+722    	; 0xc62 <__stack+0x763>
     990:	69 c1       	rjmp	.+722    	; 0xc64 <__stack+0x765>
     992:	69 c1       	rjmp	.+722    	; 0xc66 <__stack+0x767>
     994:	69 c1       	rjmp	.+722    	; 0xc68 <__stack+0x769>
     996:	69 c1       	rjmp	.+722    	; 0xc6a <__stack+0x76b>
     998:	69 c1       	rjmp	.+722    	; 0xc6c <__stack+0x76d>
     99a:	69 c1       	rjmp	.+722    	; 0xc6e <__stack+0x76f>
     99c:	69 c1       	rjmp	.+722    	; 0xc70 <__stack+0x771>
     99e:	69 c1       	rjmp	.+722    	; 0xc72 <__stack+0x773>
     9a0:	69 c1       	rjmp	.+722    	; 0xc74 <__stack+0x775>
     9a2:	69 c1       	rjmp	.+722    	; 0xc76 <__stack+0x777>
     9a4:	69 c1       	rjmp	.+722    	; 0xc78 <__stack+0x779>
     9a6:	69 c1       	rjmp	.+722    	; 0xc7a <__stack+0x77b>
     9a8:	69 c1       	rjmp	.+722    	; 0xc7c <__stack+0x77d>
     9aa:	69 c1       	rjmp	.+722    	; 0xc7e <__stack+0x77f>
     9ac:	69 c1       	rjmp	.+722    	; 0xc80 <__stack+0x781>
     9ae:	69 41       	sbci	r22, 0x19	; 25
     9b0:	5a d1       	rcall	.+692    	; 0xc66 <__stack+0x767>
     9b2:	59 51       	subi	r21, 0x19	; 25
     9b4:	4a e1       	ldi	r20, 0x1A	; 26
     9b6:	2a ea       	ldi	r18, 0xAA	; 170
     9b8:	03 7a       	andi	r16, 0xA3	; 163
     9ba:	90 53       	subi	r25, 0x30	; 48
     9bc:	00 56       	subi	r16, 0x60	; 96
     9be:	3e 37       	cpi	r19, 0x7E	; 126
     9c0:	43 f0       	brvs	.+16     	; 0x9d2 <__stack+0x4d3>
     9c2:	86 83       	std	Z+6, r24	; 0x06
     9c4:	a1 03       	fmuls	r18, r17
     9c6:	91 ca       	rjmp	.-2782   	; 0xfffffeea <__eeprom_end+0xff7efeea>
     9c8:	2a d2       	rcall	.+1108   	; 0xe1e <__stack+0x91f>
     9ca:	31 d2       	rcall	.+1122   	; 0xe2e <__stack+0x92f>
     9cc:	b9 51       	subi	r27, 0x19	; 25
     9ce:	41 4a       	sbci	r20, 0xA1	; 161
     9d0:	41 ca       	rjmp	.-2942   	; 0xfffffe54 <__eeprom_end+0xff7efe54>
     9d2:	d0 41       	sbci	r29, 0x10	; 16
     9d4:	51 3a       	cpi	r21, 0xA1	; 161
     9d6:	51 ba       	out	0x11, r5	; 17
     9d8:	e0 31       	cpi	r30, 0x10	; 16
     9da:	61 2a       	or	r6, r17
     9dc:	61 aa       	std	Z+49, r6	; 0x31
     9de:	f0 21       	and	r31, r0
     9e0:	71 1a       	sub	r7, r17
     9e2:	71 9a       	sbi	0x0e, 1	; 14
     9e4:	78 88       	ldd	r7, Y+16	; 0x10
     9e6:	11 79       	andi	r17, 0x91	; 145
     9e8:	08 0a       	sbc	r0, r24
     9ea:	79 08       	sbc	r7, r9
     9ec:	8a 78       	andi	r24, 0x8A	; 138
     9ee:	98 7a       	andi	r25, 0xA8	; 168
     9f0:	98 7a       	andi	r25, 0xA8	; 168
     9f2:	a0 79       	andi	r26, 0x90	; 144
     9f4:	a8 79       	andi	r26, 0x98	; 152
     9f6:	a8 79       	andi	r26, 0x98	; 152
     9f8:	b0 58       	subi	r27, 0x80	; 128
     9fa:	00 57       	subi	r16, 0x70	; 112
     9fc:	5b 3f       	cpi	r21, 0xFB	; 251
     9fe:	43 f0       	brvs	.+16     	; 0xa10 <__stack+0x511>
     a00:	87 83       	std	Z+7, r24	; 0x07
     a02:	98 03       	fmulsu	r17, r16
     a04:	99 83       	std	Y+1, r25	; 0x01
     a06:	08 b3       	in	r16, 0x18	; 24
     a08:	ba 1a       	sub	r11, r26
     a0a:	c2 c9       	rjmp	.-3196   	; 0xfffffd90 <__eeprom_end+0xff7efd90>
     a0c:	a9 c1       	rjmp	.+850    	; 0xd60 <__stack+0x861>
     a0e:	49 31       	cpi	r20, 0x19	; 25
     a10:	3a 42       	sbci	r19, 0x2A	; 42
     a12:	31 3a       	cpi	r19, 0xA1	; 161
     a14:	3a c1       	rjmp	.+628    	; 0xc8a <__stack+0x78b>
     a16:	39 3a       	cpi	r19, 0xA9	; 169
     a18:	c1 b9       	out	0x01, r28	; 1
     a1a:	32 41       	sbci	r19, 0x12	; 18
     a1c:	b2 32       	cpi	r27, 0x22	; 34
     a1e:	c9 29       	or	r28, r9
     a20:	89 29       	or	r24, r9
     a22:	d1 29       	or	r29, r1
     a24:	89 29       	or	r24, r9
     a26:	51 a2       	std	Z+33, r5	; 0x21
     a28:	10 22       	and	r1, r16
     a2a:	51 1a       	sub	r5, r17
     a2c:	99 21       	and	r25, r9
     a2e:	d9 19       	sub	r29, r9
     a30:	99 19       	sub	r25, r9
     a32:	e1 19       	sub	r30, r1
     a34:	19 12       	cpse	r1, r25
     a36:	61 92       	st	Z+, r6
     a38:	a8 11       	cpse	r26, r8
     a3a:	e9 09       	sbc	r30, r9
     a3c:	a9 91       	ld	r26, Y+
     a3e:	70 2b       	or	r23, r16
     a40:	73 b3       	in	r23, 0x13	; 19
     a42:	7a 00       	.word	0x007a	; ????
     a44:	ba 7a       	andi	r27, 0xAA	; 170
     a46:	00 3a       	cpi	r16, 0xA0	; 160
     a48:	7a 08       	sbc	r7, r10
     a4a:	3a 7a       	andi	r19, 0xAA	; 170
     a4c:	88 c9       	rjmp	.-3312   	; 0xfffffd5e <__eeprom_end+0xff7efd5e>
     a4e:	79 10       	cpse	r7, r9
     a50:	49 79       	andi	r20, 0x99	; 153
     a52:	18 49       	sbci	r17, 0x98	; 152
     a54:	49 00       	.word	0x0049	; ????
     a56:	58 3e       	cpi	r21, 0xE8	; 232
     a58:	37 43       	sbci	r19, 0x37	; 55
     a5a:	d0 86       	std	Z+8, r13	; 0x08
     a5c:	83 99       	sbic	0x10, 3	; 16
     a5e:	03 19       	sub	r16, r3
     a60:	bb b2       	in	r11, 0x1b	; 27
     a62:	c2 41       	sbci	r28, 0x12	; 18
     a64:	ba c9       	rjmp	.-3212   	; 0xfffffdda <__eeprom_end+0xff7efdda>
     a66:	32 59       	subi	r19, 0x92	; 146
     a68:	aa 61       	ori	r26, 0x1A	; 26
     a6a:	22 e9       	ldi	r18, 0x92	; 146
     a6c:	12 79       	andi	r17, 0x92	; 146
     a6e:	00 8a       	std	Z+16, r0	; 0x10
     a70:	79 08       	sbc	r7, r9
     a72:	7b 90       	.word	0x907b	; ????
     a74:	7a 20       	and	r7, r10
     a76:	7a a0       	ldd	r7, Y+34	; 0x22
     a78:	7a 98       	cbi	0x0f, 2	; 15
     a7a:	7a 90       	ld	r7, -Y
     a7c:	7b 80       	ldd	r7, Y+3	; 0x03
     a7e:	89 72       	andi	r24, 0x29	; 41
     a80:	19 ea       	ldi	r17, 0xA9	; 169
     a82:	21 62       	ori	r18, 0x21	; 33
     a84:	29 5a       	subi	r18, 0xA9	; 169
     a86:	39 ca       	rjmp	.-2958   	; 0xfffffefa <__eeprom_end+0xff7efefa>
     a88:	b9 42       	sbci	r27, 0x29	; 41
     a8a:	49 ba       	out	0x19, r4	; 25
     a8c:	51 aa       	std	Z+49, r5	; 0x31
     a8e:	ca 92       	st	-Y, r12
     a90:	03 a1       	ldd	r16, Z+35	; 0x23
     a92:	83 01       	movw	r16, r6
     a94:	59 3c       	cpi	r21, 0xC9	; 201
     a96:	37 43       	sbci	r19, 0x37	; 55
     a98:	f0 86       	std	Z+8, r15	; 0x08
     a9a:	03 a9       	ldd	r16, Z+51	; 0x33
     a9c:	03 09       	sbc	r16, r3
     a9e:	cb a2       	std	Y+35, r12	; 0x23
     aa0:	d2 31       	cpi	r29, 0x12	; 18
     aa2:	52 41       	sbci	r21, 0x12	; 18
     aa4:	c2 41       	sbci	r28, 0x12	; 18
     aa6:	42 51       	subi	r20, 0x12	; 18
     aa8:	32 d9       	rcall	.-3484   	; 0xfffffd0e <__eeprom_end+0xff7efd0e>
     aaa:	2a 61       	ori	r18, 0x1A	; 26
     aac:	22 e9       	ldi	r18, 0x92	; 146
     aae:	1a 71       	andi	r17, 0x1A	; 26
     ab0:	12 79       	andi	r17, 0x92	; 146
     ab2:	08 0a       	sbc	r0, r24
     ab4:	79 08       	sbc	r7, r9
     ab6:	7b 98       	cbi	0x0f, 3	; 15
     ab8:	7a 18       	sub	r7, r10
     aba:	7a a8       	ldd	r7, Y+50	; 0x32
     abc:	79 a8       	ldd	r7, Y+49	; 0x31
     abe:	79 a8       	ldd	r7, Y+49	; 0x31
     ac0:	79 a8       	ldd	r7, Y+49	; 0x31
     ac2:	79 a8       	ldd	r7, Y+49	; 0x31
     ac4:	79 a8       	ldd	r7, Y+49	; 0x31
     ac6:	79 a8       	ldd	r7, Y+49	; 0x31
     ac8:	79 a8       	ldd	r7, Y+49	; 0x31
     aca:	79 98       	cbi	0x0f, 1	; 15
     acc:	f3 03       	fmuls	r23, r19
     ace:	32 00       	.word	0x0032	; ????
     ad0:	5a 31       	cpi	r21, 0x1A	; 26
     ad2:	31 47       	sbci	r19, 0x71	; 113
     ad4:	70 8e       	std	Z+24, r7	; 0x18
     ad6:	83 03       	fmuls	r16, r19
     ad8:	89 83       	std	Y+1, r24	; 0x01
     ada:	03 09       	sbc	r16, r3
     adc:	3a 92       	st	-Y, r3
     ade:	41 12       	cpse	r4, r17
     ae0:	41 1a       	sub	r4, r17
     ae2:	b9 1a       	sub	r11, r25
     ae4:	39 a2       	std	Y+33, r3	; 0x21
     ae6:	b8 a2       	std	Y+32, r11	; 0x20
     ae8:	38 62       	ori	r19, 0x28	; 40
     aea:	6a 62       	ori	r22, 0x2A	; 42
     aec:	e2 62       	ori	r30, 0x22	; 34
     aee:	d6 74       	andi	r29, 0x46	; 70
     af0:	41 84       	ldd	r4, Z+9	; 0x09
     af2:	31 85       	ldd	r19, Z+9	; 0x09
     af4:	31 84       	ldd	r3, Z+9	; 0x09
     af6:	22 85       	ldd	r18, Z+10	; 0x0a
     af8:	22 94       	swap	r2
     afa:	12 94       	swap	r1
     afc:	13 84       	ldd	r1, Z+11	; 0x0b
     afe:	07 3f       	cpi	r16, 0xF7	; 247
     b00:	18 5b       	subi	r17, 0xB8	; 184
     b02:	0d a7       	std	Y+45, r16	; 0x2d
     b04:	4f 6e       	ori	r20, 0xEF	; 239
     b06:	85 03       	fmuls	r16, r21
     b08:	29 fd       	.word	0xfd29	; ????
     b0a:	ff ff       	.word	0xffff	; ????
     b0c:	57 07       	cpc	r21, r23
     b0e:	5c 1e       	adc	r5, r28
     b10:	2f 4b       	sbci	r18, 0xBF	; 191
     b12:	90 86       	std	Z+8, r9	; 0x08
     b14:	e9 e1       	ldi	r30, 0x19	; 25
     b16:	e9 e1       	ldi	r30, 0x19	; 25
     b18:	e9 e1       	ldi	r30, 0x19	; 25
     b1a:	e9 e1       	ldi	r30, 0x19	; 25
     b1c:	e9 e1       	ldi	r30, 0x19	; 25
     b1e:	e9 e1       	ldi	r30, 0x19	; 25
     b20:	d5 c3       	rjmp	.+1962   	; 0x12cc <u8g2_ClearBuffer+0x16>
     b22:	d3 c3       	rjmp	.+1958   	; 0x12ca <u8g2_ClearBuffer+0x14>
     b24:	d3 c3       	rjmp	.+1958   	; 0x12cc <u8g2_ClearBuffer+0x16>
     b26:	d3 c3       	rjmp	.+1958   	; 0x12ce <u8g2_ClearBuffer+0x18>
     b28:	d3 c3       	rjmp	.+1958   	; 0x12d0 <u8g2_ClearBuffer+0x1a>
     b2a:	d3 03       	fmuls	r21, r19
     b2c:	5d 0d       	add	r21, r13
     b2e:	a7 47       	sbci	r26, 0x77	; 119
     b30:	6e 85       	ldd	r22, Y+14	; 0x0e
     b32:	2b fd       	.word	0xfd2b	; ????
     b34:	ff ff       	.word	0xffff	; ????
     b36:	57 07       	cpc	r21, r23
     b38:	02 5e       	subi	r16, 0xE2	; 226
     b3a:	1c b0       	in	r1, 0x0c	; 12
     b3c:	49 96       	adiw	r24, 0x19	; 25
     b3e:	36 62       	ori	r19, 0x26	; 38
     b40:	5a 53       	subi	r21, 0x3A	; 58
     b42:	cb 91       	.word	0x91cb	; ????
     b44:	c1 91       	ld	r28, Z+
     b46:	b9 a1       	ldd	r27, Y+33	; 0x21
     b48:	b1 a1       	ldd	r27, Z+33	; 0x21
     b4a:	a9 b1       	in	r26, 0x09	; 9
     b4c:	a1 b1       	in	r26, 0x01	; 1
     b4e:	99 c1       	rjmp	.+818    	; 0xe82 <__stack+0x983>
     b50:	91 c1       	rjmp	.+802    	; 0xe74 <__stack+0x975>
     b52:	89 d1       	rcall	.+786    	; 0xe66 <__stack+0x967>
     b54:	01 5f       	subi	r16, 0xF1	; 241
     b56:	08 50       	subi	r16, 0x08	; 8
     b58:	40 0e       	add	r4, r16
     b5a:	86 1f       	adc	r24, r22
     b5c:	10 60       	ori	r17, 0x00	; 0
     b5e:	09 c7       	rjmp	.+3602   	; 0x1972 <u8g2_DrawGlyph+0x5c>
     b60:	c4 78       	andi	r28, 0x84	; 132
     b62:	05 a9       	ldd	r16, Z+53	; 0x35
     b64:	cd 14       	cp	r12, r13
     b66:	61 24       	eor	r6, r1
     b68:	10 46       	sbci	r17, 0x60	; 96
     b6a:	30 26       	eor	r3, r16
     b6c:	c3 83       	std	Z+3, r28	; 0x03
     b6e:	29 22       	and	r2, r25
     b70:	a2 b1       	in	r26, 0x02	; 2
     b72:	21 b9       	out	0x01, r18	; 1
     b74:	e9 51       	subi	r30, 0x19	; 25
     b76:	bb 03       	fmulsu	r19, r19
     b78:	29 a2       	std	Y+33, r2	; 0x21
     b7a:	65 33       	cpi	r22, 0x35	; 53
     b7c:	73 33       	cpi	r23, 0x33	; 51
     b7e:	73 33       	cpi	r23, 0x33	; 51
     b80:	63 34       	cpi	r22, 0x43	; 67
     b82:	34 17       	cp	r19, r20
     b84:	11 07       	cpc	r17, r17
     b86:	21 ad       	ldd	r18, Z+57	; 0x39
     b88:	26 00       	.word	0x0026	; ????
     b8a:	62 2b       	or	r22, r18
     b8c:	2f 43       	sbci	r18, 0x3F	; 63
     b8e:	30 1e       	adc	r3, r16
     b90:	d1 e2       	ldi	r29, 0x21	; 33
     b92:	fd 09       	sbc	r31, r13
     b94:	d9 c4       	rjmp	.+2482   	; 0x1548 <u8g2_font_decode_len>
     b96:	51 d1       	rcall	.+674    	; 0xe3a <__stack+0x93b>
     b98:	0c d5       	rcall	.+2584   	; 0x15b2 <u8g2_font_decode_len+0x6a>
     b9a:	0c d9       	rcall	.-3560   	; 0xfffffdb4 <__eeprom_end+0xff7efdb4>
     b9c:	c8 dc       	rcall	.-1648   	; 0x52e <__stack+0x2f>
     b9e:	c8 dc       	rcall	.-1648   	; 0x530 <__stack+0x31>
     ba0:	c8 dc       	rcall	.-1648   	; 0x532 <__stack+0x33>
     ba2:	c8 dc       	rcall	.-1648   	; 0x534 <__stack+0x35>
     ba4:	c8 dc       	rcall	.-1648   	; 0x536 <__stack+0x37>
     ba6:	c8 dc       	rcall	.-1648   	; 0x538 <__stack+0x39>
     ba8:	08 d9       	rcall	.-3568   	; 0xfffffdba <__eeprom_end+0xff7efdba>
     baa:	08 d5       	rcall	.+2576   	; 0x15bc <u8g2_font_decode_len+0x74>
     bac:	4c d1       	rcall	.+664    	; 0xe46 <__stack+0x947>
     bae:	8c c4       	rjmp	.+2328   	; 0x14c8 <u8g2_font_decode_get_unsigned_bits+0x5c>
     bb0:	41 50       	subi	r20, 0x01	; 1
     bb2:	10 11       	cpse	r17, r0
     bb4:	00 63       	ori	r16, 0x30	; 48
     bb6:	1c 0c       	add	r1, r12
     bb8:	46 d0       	rcall	.+140    	; 0xc46 <__stack+0x747>
     bba:	2d b2       	in	r2, 0x1d	; 29
     bbc:	83 98       	cbi	0x10, 3	; 16
     bbe:	a1 89       	ldd	r26, Z+17	; 0x11
     bc0:	21 8a       	std	Z+17, r2	; 0x11
     bc2:	a1 33       	cpi	r26, 0x31	; 49
     bc4:	89 c9       	rjmp	.-3310   	; 0xfffffed8 <__eeprom_end+0xff7efed8>
     bc6:	9d ce       	rjmp	.-710    	; 0x902 <__stack+0x403>
     bc8:	45 8c       	ldd	r4, Z+29	; 0x1d
     bca:	89 0c       	add	r8, r9
     bcc:	c9 1c       	adc	r12, r9
     bce:	84 d5       	rcall	.+2824   	; 0x16d8 <u8g2_font_decode_glyph+0x5c>
     bd0:	00 64       	ori	r16, 0x40	; 64
     bd2:	2a 30       	cpi	r18, 0x0A	; 10
     bd4:	47 50       	subi	r20, 0x07	; 7
     bd6:	66 d9       	rcall	.-3380   	; 0xfffffea4 <__eeprom_end+0xff7efea4>
     bd8:	ea fd       	.word	0xfdea	; ????
     bda:	8e 64       	ori	r24, 0x4E	; 78
     bdc:	ea 62       	ori	r30, 0x2A	; 42
     bde:	68 a8       	ldd	r6, Y+48	; 0x30
     be0:	66 8c       	ldd	r6, Z+30	; 0x1e
     be2:	66 8c       	ldd	r6, Z+30	; 0x1e
     be4:	64 70       	andi	r22, 0x04	; 4
     be6:	64 70       	andi	r22, 0x04	; 4
     be8:	64 70       	andi	r22, 0x04	; 4
     bea:	64 70       	andi	r22, 0x04	; 4
     bec:	64 70       	andi	r22, 0x04	; 4
     bee:	64 70       	andi	r22, 0x04	; 4
     bf0:	84 8c       	ldd	r8, Z+28	; 0x1c
     bf2:	66 8c       	ldd	r6, Z+30	; 0x1e
     bf4:	86 a8       	ldd	r8, Z+54	; 0x36
     bf6:	ea 62       	ori	r30, 0x2A	; 42
     bf8:	8e a4       	ldd	r8, Y+46	; 0x2e
     bfa:	00 65       	ori	r16, 0x50	; 80
     bfc:	1d 0e       	add	r1, r29
     bfe:	46 10       	cpse	r4, r6
     c00:	ae ba       	out	0x1e, r10	; 30
     c02:	03 a1       	ldd	r16, Z+35	; 0x23
     c04:	21 92       	st	Z+, r2
     c06:	b1 11       	cpse	r27, r1
     c08:	41 87       	std	Z+9, r20	; 0x09
     c0a:	07 07       	cpc	r16, r23
     c0c:	b6 6b       	ori	r27, 0xB6	; 182
     c0e:	29 23       	and	r18, r25
     c10:	06 25       	eor	r16, r6
     c12:	a8 66       	ori	r26, 0x68	; 104
     c14:	0e c6       	rjmp	.+3100   	; 0x1832 <u8g2_font_get_glyph_data+0x42>
     c16:	8c 00       	.word	0x008c	; ????
     c18:	66 19       	sub	r22, r6
     c1a:	2e 43       	sbci	r18, 0x3E	; 62
     c1c:	70 3d       	cpi	r23, 0xD0	; 208
     c1e:	b3 99       	sbic	0x16, 3	; 22
     c20:	a1 45       	sbci	r26, 0x51	; 81
     c22:	52 33       	cpi	r21, 0x32	; 50
     c24:	63 41       	sbci	r22, 0x13	; 19
     c26:	b3 1b       	sub	r27, r19
     c28:	1e cc       	rjmp	.-1988   	; 0x466 <__LOCK_REGION_LENGTH__+0x66>
     c2a:	cd ee       	ldi	r28, 0xED	; 237
     c2c:	ff e1       	ldi	r31, 0x1F	; 31
     c2e:	c1 10       	cpse	r12, r1
     c30:	00 67       	ori	r16, 0x70	; 112
     c32:	34 f0       	brlt	.+12     	; 0xc40 <__stack+0x741>
     c34:	c6 2c       	mov	r12, r6
     c36:	2e 92       	st	-X, r2
     c38:	9a 83       	std	Y+2, r25	; 0x02
     c3a:	09 91       	ld	r16, Y+
     c3c:	a1 11       	cpse	r26, r1
     c3e:	89 b1       	in	r24, 0x09	; 9
     c40:	a1 b1       	in	r26, 0x01	; 1
     c42:	a1 b1       	in	r26, 0x01	; 1
     c44:	a1 b1       	in	r26, 0x01	; 1
     c46:	a1 b1       	in	r26, 0x01	; 1
     c48:	a9 a1       	ldd	r26, Y+33	; 0x21
     c4a:	b9 83       	std	Y+1, r27	; 0x01
     c4c:	38 09       	sbc	r19, r8
     c4e:	42 71       	andi	r20, 0x12	; 18
     c50:	f1 83       	std	Z+1, r31	; 0x01
     c52:	b1 83       	std	Z+1, r27	; 0x01
     c54:	aa 83       	std	Y+2, r26	; 0x02
     c56:	22 b1       	in	r18, 0x02	; 2
     c58:	12 c9       	rjmp	.-3548   	; 0xfffffe7e <__eeprom_end+0xff7efe7e>
     c5a:	89 c9       	rjmp	.-3310   	; 0xffffff6e <__eeprom_end+0xff7eff6e>
     c5c:	89 c9       	rjmp	.-3310   	; 0xffffff70 <__eeprom_end+0xff7eff70>
     c5e:	89 2a       	or	r8, r25
     c60:	9a 83       	std	Y+2, r25	; 0x02
     c62:	3a 33       	cpi	r19, 0x3A	; 58
     c64:	00 68       	ori	r16, 0x80	; 128
     c66:	38 33       	cpi	r19, 0x38	; 56
     c68:	43 90       	.word	0x9043	; ????
     c6a:	26 69       	ori	r18, 0x96	; 150
     c6c:	7b 88       	ldd	r7, Y+19	; 0x13
     c6e:	79 88       	ldd	r7, Y+17	; 0x11
     c70:	79 88       	ldd	r7, Y+17	; 0x11
     c72:	79 88       	ldd	r7, Y+17	; 0x11
     c74:	79 88       	ldd	r7, Y+17	; 0x11
     c76:	79 88       	ldd	r7, Y+17	; 0x11
     c78:	79 88       	ldd	r7, Y+17	; 0x11
     c7a:	79 88       	ldd	r7, Y+17	; 0x11
     c7c:	99 d1       	rcall	.+818    	; 0xfb0 <u8x8_avr_delay+0x1a>
     c7e:	89 c3       	rjmp	.+1810   	; 0x1392 <u8g2_add_vector_x+0x4>
     c80:	1a 3a       	cpi	r17, 0xAA	; 170
     c82:	aa b9       	out	0x0a, r26	; 10
     c84:	65 73       	andi	r22, 0x35	; 53
     c86:	63 73       	andi	r22, 0x33	; 51
     c88:	63 73       	andi	r22, 0x33	; 51
     c8a:	63 73       	andi	r22, 0x33	; 51
     c8c:	63 73       	andi	r22, 0x33	; 51
     c8e:	63 73       	andi	r22, 0x33	; 51
     c90:	63 73       	andi	r22, 0x33	; 51
     c92:	63 73       	andi	r22, 0x33	; 51
     c94:	63 73       	andi	r22, 0x33	; 51
     c96:	63 73       	andi	r22, 0x33	; 51
     c98:	33 07       	cpc	r19, r19
     c9a:	21 07       	cpc	r18, r17
     c9c:	02 69       	ori	r16, 0x92	; 146
     c9e:	11 09       	sbc	r17, r1
     ca0:	47 50       	subi	r20, 0x07	; 7
     ca2:	1d 31       	cpi	r17, 0x1D	; 29
     ca4:	2a 32       	cpi	r18, 0x2A	; 42
     ca6:	79 d4       	rcall	.+2290   	; 0x159a <u8g2_font_decode_len+0x52>
     ca8:	33 66       	ori	r19, 0x63	; 99
     caa:	fb 7f       	andi	r31, 0xFB	; 251
     cac:	73 20       	and	r7, r3
     cae:	6a 19       	sub	r22, r10
     cb0:	e9 bb       	out	0x19, r30	; 25
     cb2:	4c 35       	cpi	r20, 0x5C	; 92
     cb4:	31 2a       	or	r3, r17
     cb6:	32 79       	andi	r19, 0x92	; 146
     cb8:	d4 33       	cpi	r29, 0x34	; 52
     cba:	66 fb       	bst	r22, 6
     cbc:	ff 8b       	std	Y+23, r31	; 0x17
     cbe:	20 1b       	sub	r18, r16
     cc0:	89 19       	sub	r24, r9
     cc2:	89 11       	cpse	r24, r9
     cc4:	99 1a       	sub	r9, r25
     cc6:	00 6b       	ori	r16, 0xB0	; 176
     cc8:	3a 33       	cpi	r19, 0x3A	; 58
     cca:	43 90       	.word	0x9043	; ????
     ccc:	26 69       	ori	r18, 0x96	; 150
     cce:	7b 88       	ldd	r7, Y+19	; 0x13
     cd0:	79 88       	ldd	r7, Y+17	; 0x11
     cd2:	79 88       	ldd	r7, Y+17	; 0x11
     cd4:	79 88       	ldd	r7, Y+17	; 0x11
     cd6:	79 88       	ldd	r7, Y+17	; 0x11
     cd8:	79 88       	ldd	r7, Y+17	; 0x11
     cda:	79 88       	ldd	r7, Y+17	; 0x11
     cdc:	79 88       	ldd	r7, Y+17	; 0x11
     cde:	99 83       	std	Y+1, r25	; 0x01
     ce0:	a8 29       	or	r26, r8
     ce2:	ba 29       	or	r27, r10
     ce4:	c9 21       	and	r28, r9
     ce6:	d1 19       	sub	r29, r1
     ce8:	d9 11       	cpse	r29, r9
     cea:	e1 89       	ldd	r30, Z+17	; 0x11
     cec:	e1 83       	std	Z+1, r30	; 0x01
     cee:	58 0a       	sbc	r5, r24
     cf0:	d2 19       	sub	r29, r2
     cf2:	ca 21       	and	r28, r10
     cf4:	c2 a9       	ldd	r28, Z+50	; 0x32
     cf6:	c1 b1       	in	r28, 0x01	; 1
     cf8:	b9 31       	cpi	r27, 0x19	; 25
     cfa:	b2 39       	cpi	r27, 0x92	; 146
     cfc:	92 83       	std	Z+2, r25	; 0x02
     cfe:	98 83       	st	Y, r25
     d00:	00 6c       	ori	r16, 0xC0	; 192
     d02:	0e 29       	or	r16, r14
     d04:	47 70       	andi	r20, 0x07	; 7
     d06:	25 b1       	in	r18, 0x05	; 5
     d08:	19 b3       	in	r17, 0x19	; 25
     d0a:	fd ff       	.word	0xfffd	; ????
     d0c:	bf 39       	cpi	r27, 0x9F	; 159
     d0e:	10 6d       	ori	r17, 0xD0	; 208
     d10:	1f 1b       	sub	r17, r31
     d12:	42 70       	andi	r20, 0x02	; 2
     d14:	9f 11       	cpse	r25, r15
     d16:	2a 32       	cpi	r18, 0x2A	; 42
     d18:	8b 93       	.word	0x938b	; ????
     d1a:	bb 9a       	sbi	0x17, 3	; 23
     d1c:	09 99       	sbic	0x01, 1	; 1
     d1e:	39 2a       	or	r3, r25
     d20:	aa 31       	cpi	r26, 0x1A	; 26
     d22:	2a aa       	std	Y+50, r2	; 0x32
     d24:	b1 fd       	sbrc	r27, 1
     d26:	ff ff       	.word	0xffff	; ????
     d28:	7f 73       	andi	r23, 0x3F	; 63
     d2a:	10 f2       	brcs	.-124    	; 0xcb0 <__stack+0x7b1>
     d2c:	20 00       	.word	0x0020	; ????
     d2e:	6e 28       	or	r6, r14
     d30:	13 42       	sbci	r17, 0x23	; 35
     d32:	70 9e       	mul	r7, r16
     d34:	19 32       	cpi	r17, 0x29	; 41
     d36:	8b 83       	std	Y+3, r24	; 0x03
     d38:	38 9b       	sbis	0x07, 0	; 7
     d3a:	39 b2       	in	r3, 0x19	; 25
     d3c:	31 b2       	in	r3, 0x11	; 17
     d3e:	75 63       	ori	r23, 0x35	; 53
     d40:	73 63       	ori	r23, 0x33	; 51
     d42:	73 63       	ori	r23, 0x33	; 51
     d44:	73 63       	ori	r23, 0x33	; 51
     d46:	73 63       	ori	r23, 0x33	; 51
     d48:	73 63       	ori	r23, 0x33	; 51
     d4a:	73 63       	ori	r23, 0x33	; 51
     d4c:	73 63       	ori	r23, 0x33	; 51
     d4e:	73 63       	ori	r23, 0x33	; 51
     d50:	73 33       	cpi	r23, 0x33	; 51
     d52:	07 31       	cpi	r16, 0x17	; 23
     d54:	07 01       	movw	r0, r14
     d56:	6f 1c       	adc	r6, r15
     d58:	0e 46       	sbci	r16, 0x6E	; 110
     d5a:	10 2e       	mov	r1, r16
     d5c:	c2 83       	std	Z+2, r28	; 0x02
     d5e:	a8 a1       	ldd	r26, Y+32	; 0x20
     d60:	99 b1       	in	r25, 0x09	; 9
     d62:	91 b1       	in	r25, 0x01	; 1
     d64:	89 41       	sbci	r24, 0x19	; 25
     d66:	3f 9c       	mul	r3, r15
     d68:	18 1b       	sub	r17, r24
     d6a:	19 9b       	sbis	0x03, 1	; 3
     d6c:	19 9a       	sbi	0x03, 1	; 3
     d6e:	3a 08       	sbc	r3, r10
     d70:	a4 02       	muls	r26, r20
     d72:	70 2d       	mov	r23, r0
     d74:	f0 c6       	rjmp	.+3552   	; 0x1b56 <u8g2_DrawHVLine+0x3e>
     d76:	6c 1e       	adc	r6, r28
     d78:	91 a2       	std	Z+33, r9	; 0x21
     d7a:	8a 83       	std	Y+2, r24	; 0x02
     d7c:	a0 22       	and	r10, r16
     d7e:	1a b2       	in	r1, 0x1a	; 26
     d80:	19 ba       	out	0x19, r1	; 25
     d82:	91 c1       	rjmp	.+802    	; 0x10a6 <u8x8_gpio_and_delay+0x7e>
     d84:	91 c1       	rjmp	.+802    	; 0x10a8 <u8x8_gpio_and_delay+0x80>
     d86:	91 c1       	rjmp	.+802    	; 0x10aa <u8x8_gpio_and_delay+0x82>
     d88:	91 c1       	rjmp	.+802    	; 0x10ac <u8x8_gpio_and_delay+0x84>
     d8a:	91 c1       	rjmp	.+802    	; 0x10ae <u8x8_gpio_and_delay+0x86>
     d8c:	91 c1       	rjmp	.+802    	; 0x10b0 <u8x8_gpio_and_delay+0x88>
     d8e:	11 b2       	in	r1, 0x11	; 17
     d90:	19 b2       	in	r1, 0x19	; 25
     d92:	99 a2       	std	Y+33, r9	; 0x21
     d94:	15 07       	cpc	r17, r21
     d96:	41 23       	and	r20, r17
     d98:	65 d3       	rcall	.+1738   	; 0x1464 <u8g2_read_font_info+0xb6>
     d9a:	3b 2e       	mov	r3, r27
     d9c:	3d 08       	sbc	r3, r13
     d9e:	04 71       	andi	r16, 0x14	; 20
     da0:	2c f0       	brlt	.+10     	; 0xdac <__stack+0x8ad>
     da2:	c6 2c       	mov	r12, r6
     da4:	ae 9a       	sbi	0x15, 6	; 21
     da6:	a8 83       	st	Y, r26
     da8:	08 a1       	ldd	r16, Y+32	; 0x20
     daa:	29 9a       	sbi	0x05, 1	; 5
     dac:	31 9a       	sbi	0x06, 1	; 6
     dae:	b9 91       	ld	r27, Y+
     db0:	c1 91       	ld	r28, Z+
     db2:	c1 91       	ld	r28, Z+
     db4:	c1 91       	ld	r28, Z+
     db6:	c1 91       	ld	r28, Z+
     db8:	c1 91       	ld	r28, Z+
     dba:	c1 11       	cpse	r28, r1
     dbc:	32 9a       	sbi	0x06, 2	; 6
     dbe:	31 a2       	std	Z+33, r3	; 0x21
     dc0:	a1 a2       	std	Z+33, r10	; 0x21
     dc2:	83 88       	ldd	r8, Z+19	; 0x13
     dc4:	b1 92       	st	Z+, r11
     dc6:	e9 3d       	cpi	r30, 0xD9	; 217
     dc8:	ae 3c       	cpi	r26, 0xCE	; 206
     dca:	08 72       	andi	r16, 0x28	; 40
     dcc:	14 0e       	add	r1, r20
     dce:	42 f0       	brmi	.+16     	; 0xde0 <__stack+0x8e1>
     dd0:	9d 19       	sub	r25, r13
     dd2:	0a 8b       	std	Y+18, r16	; 0x12
     dd4:	9b 12       	cpse	r9, r27
     dd6:	1a 8e       	std	Y+26, r1	; 0x1a
     dd8:	84 66       	ori	r24, 0x64	; 100
     dda:	f7 0f       	add	r31, r23
     ddc:	0f a4       	ldd	r0, Y+47	; 0x2f
     dde:	00 73       	andi	r16, 0x30	; 48
     de0:	20 0b       	sbc	r18, r16
     de2:	4a f0       	brmi	.+18     	; 0xdf6 <__stack+0x8f7>
     de4:	1d 0a       	sbc	r1, r29
     de6:	91 03       	fmuls	r17, r17
     de8:	89 a1       	ldd	r24, Y+33	; 0x21
     dea:	09 31       	cpi	r16, 0x19	; 25
     dec:	09 31       	cpi	r16, 0x19	; 25
     dee:	09 aa       	std	Y+49, r0	; 0x31
     df0:	88 ab       	std	Y+48, r24	; 0x30
     df2:	83 a0       	ldd	r8, Z+35	; 0x23
     df4:	83 b0       	in	r8, 0x03	; 3
     df6:	bb 3a       	cpi	r27, 0xAB	; 171
     df8:	ba aa       	std	Y+50, r11	; 0x32
     dfa:	03 8b       	std	Z+19, r16	; 0x13
     dfc:	90 1a       	sub	r9, r16
     dfe:	00 74       	andi	r16, 0x40	; 64
     e00:	1c ec       	ldi	r17, 0xCC	; 204
     e02:	42 b0       	in	r4, 0x02	; 2
     e04:	ad d8       	rcall	.-3750   	; 0xffffff60 <__eeprom_end+0xff7eff60>
     e06:	50 95       	com	r21
     e08:	0b c9       	rjmp	.-3562   	; 0x20 <__FUSE_REGION_LENGTH__+0x1d>
     e0a:	0e 88       	ldd	r0, Y+22	; 0x16
     e0c:	26 f7       	brtc	.-56     	; 0xdd6 <__stack+0x8d7>
     e0e:	57 31       	cpi	r21, 0x17	; 23
     e10:	53 31       	cpi	r21, 0x13	; 19
     e12:	43 32       	cpi	r20, 0x23	; 35
     e14:	43 32       	cpi	r20, 0x23	; 35
     e16:	24 52       	subi	r18, 0x24	; 36
     e18:	67 25       	eor	r22, r7
     e1a:	00 75       	andi	r16, 0x50	; 80
     e1c:	28 12       	cpse	r2, r24
     e1e:	42 90       	ld	r4, -Z
     e20:	9e b9       	out	0x0e, r25	; 14
     e22:	11 23       	and	r17, r17
     e24:	ab b9       	out	0x0b, r26	; 11
     e26:	a9 b9       	out	0x09, r26	; 9
     e28:	a9 b9       	out	0x09, r26	; 9
     e2a:	a9 b9       	out	0x09, r26	; 9
     e2c:	a9 b9       	out	0x09, r26	; 9
     e2e:	a9 b9       	out	0x09, r26	; 9
     e30:	a9 b9       	out	0x09, r26	; 9
     e32:	a9 b9       	out	0x09, r26	; 9
     e34:	a9 b9       	out	0x09, r26	; 9
     e36:	a9 31       	cpi	r26, 0x19	; 25
     e38:	aa 31       	cpi	r26, 0x1A	; 26
     e3a:	2a 1a       	sub	r2, r26
     e3c:	b3 83       	std	Z+3, r27	; 0x03
     e3e:	88 aa       	std	Y+48, r8	; 0x30
     e40:	9a 11       	cpse	r25, r10
     e42:	00 76       	andi	r16, 0x60	; 96
     e44:	23 11       	cpse	r18, r3
     e46:	42 30       	cpi	r20, 0x02	; 2
     e48:	86 83       	std	Z+6, r24	; 0x06
     e4a:	18 8b       	std	Y+16, r17	; 0x10
     e4c:	ba 19       	sub	r27, r10
     e4e:	3a 29       	or	r19, r10
     e50:	32 29       	or	r19, r2
     e52:	2a b9       	out	0x0a, r18	; 10
     e54:	29 39       	cpi	r18, 0x99	; 153
     e56:	a2 c8       	rjmp	.-3772   	; 0xffffff9c <__eeprom_end+0xff7eff9c>
     e58:	19 c9       	rjmp	.-3534   	; 0x8c <__SREG__+0x4d>
     e5a:	19 49       	sbci	r17, 0x99	; 153
     e5c:	0a d9       	rcall	.-3564   	; 0x72 <__SREG__+0x33>
     e5e:	09 d9       	rcall	.-3566   	; 0x72 <__SREG__+0x33>
     e60:	6a e6       	ldi	r22, 0x6A	; 106
     e62:	f2 00       	.word	0x00f2	; ????
     e64:	72 00       	.word	0x0072	; ????
     e66:	77 35       	cpi	r23, 0x57	; 87
     e68:	18 42       	sbci	r17, 0x28	; 40
     e6a:	10 87       	std	Z+8, r17	; 0x08
     e6c:	93 13       	cpse	r25, r19
     e6e:	0b 2a       	or	r0, r27
     e70:	b2 99       	sbic	0x16, 2	; 22
     e72:	b1 31       	cpi	r27, 0x11	; 17
     e74:	21 aa       	std	Z+49, r2	; 0x31
     e76:	ad 88       	ldd	r10, Y+21	; 0x15
     e78:	c4 a6       	std	Z+44, r12	; 0x2c
     e7a:	88 e4       	ldi	r24, 0x48	; 72
     e7c:	66 24       	eor	r6, r6
     e7e:	84 02       	muls	r24, r20
     e80:	67 42       	sbci	r22, 0x27	; 39
     e82:	46 04       	cpc	r4, r6
     e84:	29 44       	sbci	r18, 0x49	; 73
     e86:	46 24       	eor	r4, r6
     e88:	27 44       	sbci	r18, 0x47	; 71
     e8a:	26 44       	sbci	r18, 0x46	; 70
     e8c:	27 82       	std	Z+7, r2	; 0x07
     e8e:	24 64       	ori	r18, 0x44	; 68
     e90:	89 88       	ldd	r8, Y+17	; 0x11
     e92:	89 88       	ldd	r8, Y+17	; 0x11
     e94:	c7 a6       	std	Z+47, r12	; 0x2f
     e96:	c5 c4       	rjmp	.+2442   	; 0x1822 <u8g2_font_get_glyph_data+0x32>
     e98:	c5 e4       	ldi	r28, 0x45	; 69
     e9a:	00 78       	andi	r16, 0x80	; 128
     e9c:	23 10       	cpse	r2, r3
     e9e:	46 70       	andi	r20, 0x06	; 6
     ea0:	86 83       	std	Z+6, r24	; 0x06
     ea2:	88 13       	cpse	r24, r24
     ea4:	aa 29       	or	r26, r10
     ea6:	22 b9       	out	0x02, r18	; 2
     ea8:	19 41       	sbci	r17, 0x19	; 25
     eaa:	12 c9       	rjmp	.-3548   	; 0xd0 <__trampolines_end+0x18>
     eac:	09 59       	subi	r16, 0x99	; 153
     eae:	62 6a       	ori	r22, 0xA2	; 162
     eb0:	da 52       	subi	r29, 0x2A	; 42
     eb2:	91 41       	sbci	r25, 0x11	; 17
     eb4:	19 b2       	in	r1, 0x19	; 25
     eb6:	a1 a9       	ldd	r26, Z+49	; 0x31
     eb8:	29 1a       	sub	r2, r25
     eba:	32 8a       	std	Z+18, r3	; 0x12
     ebc:	93 03       	fmuls	r17, r19
     ebe:	79 30       	cpi	r23, 0x09	; 9
     ec0:	f2 c6       	rjmp	.+3556   	; 0x1ca6 <u8g2_ll_hvline_vertical_top_lsb+0x52>
     ec2:	8c 86       	std	Y+12, r8	; 0x0c
     ec4:	83 98       	cbi	0x10, 3	; 16
     ec6:	13 ba       	out	0x13, r1	; 19
     ec8:	21 3a       	cpi	r18, 0xA1	; 161
     eca:	b1 39       	cpi	r27, 0x91	; 145
     ecc:	31 2a       	or	r3, r17
     ece:	c1 29       	or	r28, r1
     ed0:	41 a2       	std	Z+33, r4	; 0x21
     ed2:	d0 19       	sub	r29, r0
     ed4:	d1 19       	sub	r29, r1
     ed6:	51 0a       	sbc	r5, r17
     ed8:	e1 09       	sbc	r30, r1
     eda:	e1 72       	andi	r30, 0x21	; 33
     edc:	f6 00       	.word	0x00f6	; ????
     ede:	f2 10       	cpse	r15, r2
     ee0:	f2 00       	.word	0x00f2	; ????
     ee2:	f2 10       	cpse	r15, r2
     ee4:	a2 32       	cpi	r26, 0x22	; 34
     ee6:	a2 24       	eor	r10, r2
     ee8:	a2 23       	and	r26, r18
     eea:	b2 d6       	rcall	.+3428   	; 0x1c50 <u8g2_IsIntersection+0x32>
     eec:	e3 00       	.word	0x00e3	; ????
     eee:	7a 21       	and	r23, r10
     ef0:	0d 46       	sbci	r16, 0x6D	; 109
     ef2:	f0 8d       	ldd	r31, Z+24	; 0x18
     ef4:	83 0a       	sbc	r8, r19
     ef6:	22 0a       	sbc	r2, r18
     ef8:	29 12       	cpse	r2, r25
     efa:	a9 99       	sbic	0x15, 1	; 21
     efc:	28 9a       	sbi	0x05, 0	; 5
     efe:	20 ca       	rjmp	.-3008   	; 0x340 <__trampolines_end+0x288>
     f00:	49 42       	sbci	r20, 0x29	; 41
     f02:	ca 49       	sbci	r28, 0x9A	; 154
     f04:	aa 10       	cpse	r10, r10
     f06:	b2 90       	ld	r11, -Z
     f08:	31 09       	sbc	r19, r1
     f0a:	aa a3       	std	Y+34, r26	; 0x22
     f0c:	83 03       	fmuls	r16, r19
     f0e:	02 7b       	andi	r16, 0xB2	; 178
     f10:	14 c6       	rjmp	.+3112   	; 0x1b3a <u8g2_DrawHVLine+0x22>
     f12:	4f 6e       	ori	r20, 0xEF	; 239
     f14:	25 99       	sbic	0x04, 5	; 4
     f16:	91 19       	sub	r25, r1
     f18:	21 fd       	sbrc	r18, 1
     f1a:	9b 91       	.word	0x919b	; ????
     f1c:	99 a1       	ldd	r25, Y+33	; 0x21
     f1e:	21 fd       	sbrc	r18, 1
     f20:	47 8b       	std	Z+23, r20	; 0x17
     f22:	04 7c       	andi	r16, 0xC4	; 196
     f24:	09 22       	and	r0, r25
     f26:	67 90       	elpm	r6, Z+
     f28:	86 ff       	sbrs	r24, 6
     f2a:	20 00       	.word	0x0020	; ????
     f2c:	7d 14       	cp	r7, r13
     f2e:	c6 4b       	sbci	r28, 0xB6	; 182
     f30:	6e 05       	cpc	r22, r14
     f32:	a1 45       	sbci	r26, 0x51	; 81
     f34:	fa 8f       	std	Y+26, r31	; 0x1a
     f36:	d6 8c       	ldd	r13, Z+30	; 0x1e
     f38:	cc 08       	sbc	r12, r12
     f3a:	e9 df       	rcall	.-46     	; 0xf0e <__stack+0xa0f>
     f3c:	8c cc       	rjmp	.-1768   	; 0x856 <__stack+0x357>
     f3e:	08 01       	movw	r0, r16
     f40:	7e 10       	cpse	r7, r14
     f42:	90 48       	sbci	r25, 0x80	; 128
     f44:	93 1e       	adc	r9, r19
     f46:	3a 89       	ldd	r19, Y+18	; 0x12
     f48:	83 20       	and	r8, r3
     f4a:	a3 83       	std	Z+3, r26	; 0x03
     f4c:	08 39       	cpi	r16, 0x98	; 152
     f4e:	1a 00       	.word	0x001a	; ????
     f50:	00 00       	nop
     f52:	00 04       	cpc	r0, r0
     f54:	ff ff       	.word	0xffff	; ????
	...

00000f58 <__ctors_end>:
     f58:	11 24       	eor	r1, r1
     f5a:	1f be       	out	0x3f, r1	; 63
     f5c:	cf ef       	ldi	r28, 0xFF	; 255
     f5e:	d4 e0       	ldi	r29, 0x04	; 4
     f60:	de bf       	out	0x3e, r29	; 62
     f62:	cd bf       	out	0x3d, r28	; 61

00000f64 <__do_copy_data>:
     f64:	11 e0       	ldi	r17, 0x01	; 1
     f66:	a0 e0       	ldi	r26, 0x00	; 0
     f68:	b1 e0       	ldi	r27, 0x01	; 1
     f6a:	ee e7       	ldi	r30, 0x7E	; 126
     f6c:	f5 e2       	ldi	r31, 0x25	; 37
     f6e:	02 c0       	rjmp	.+4      	; 0xf74 <__do_copy_data+0x10>
     f70:	05 90       	lpm	r0, Z+
     f72:	0d 92       	st	X+, r0
     f74:	a2 33       	cpi	r26, 0x32	; 50
     f76:	b1 07       	cpc	r27, r17
     f78:	d9 f7       	brne	.-10     	; 0xf70 <__do_copy_data+0xc>

00000f7a <__do_clear_bss>:
     f7a:	23 e0       	ldi	r18, 0x03	; 3
     f7c:	a2 e3       	ldi	r26, 0x32	; 50
     f7e:	b1 e0       	ldi	r27, 0x01	; 1
     f80:	01 c0       	rjmp	.+2      	; 0xf84 <.do_clear_bss_start>

00000f82 <.do_clear_bss_loop>:
     f82:	1d 92       	st	X+, r1

00000f84 <.do_clear_bss_start>:
     f84:	a5 3a       	cpi	r26, 0xA5	; 165
     f86:	b2 07       	cpc	r27, r18
     f88:	e1 f7       	brne	.-8      	; 0xf82 <.do_clear_bss_loop>
     f8a:	0e 94 de 08 	call	0x11bc	; 0x11bc <main>
     f8e:	0c 94 bd 12 	jmp	0x257a	; 0x257a <_exit>

00000f92 <__bad_interrupt>:
     f92:	0c 94 00 00 	jmp	0	; 0x0 <__vectors>

00000f96 <u8x8_avr_delay>:

uint8_t u8x8_avr_delay(u8x8_t *u8x8, uint8_t msg, uint8_t arg_int, void *arg_ptr)
{
	uint8_t cycles;

	switch(msg)
     f96:	6a 32       	cpi	r22, 0x2A	; 42
     f98:	51 f0       	breq	.+20     	; 0xfae <u8x8_avr_delay+0x18>
     f9a:	18 f4       	brcc	.+6      	; 0xfa2 <u8x8_avr_delay+0xc>
     f9c:	69 32       	cpi	r22, 0x29	; 41
     f9e:	69 f0       	breq	.+26     	; 0xfba <u8x8_avr_delay+0x24>
     fa0:	3f c0       	rjmp	.+126    	; 0x1020 <u8x8_avr_delay+0x8a>
     fa2:	6b 32       	cpi	r22, 0x2B	; 43
     fa4:	81 f0       	breq	.+32     	; 0xfc6 <u8x8_avr_delay+0x30>
     fa6:	6c 32       	cpi	r22, 0x2C	; 44
     fa8:	d9 f5       	brne	.+118    	; 0x1020 <u8x8_avr_delay+0x8a>
				_delay_ms(1);
			break;
		default:
			return 0;
	}
	return 1;
     faa:	81 e0       	ldi	r24, 0x01	; 1
     fac:	08 95       	ret
			"1: sbiw %0,1" "\n\t" // 2 cycles
			"brne 1b" : "=w" (cycles) : "0" (cycles) // 2 cycles
			);
			break;
		case U8X8_MSG_DELAY_10MICRO:    // delay arg_int * 10 micro seconds
			for(int i=0 ; i < arg_int ; i++)
     fae:	50 e0       	ldi	r21, 0x00	; 0
     fb0:	14 16       	cp	r1, r20
     fb2:	15 06       	cpc	r1, r21
     fb4:	dc f0       	brlt	.+54     	; 0xfec <u8x8_avr_delay+0x56>
				_delay_ms(1);
			break;
		default:
			return 0;
	}
	return 1;
     fb6:	81 e0       	ldi	r24, 0x01	; 1
     fb8:	08 95       	ret
		case U8X8_MSG_DELAY_10MICRO:    // delay arg_int * 10 micro seconds
			for(int i=0 ; i < arg_int ; i++)
				_delay_us(10);
			break;
		case U8X8_MSG_DELAY_MILLI:      // delay arg_int * 1 milli second
			for(int i=0 ; i < arg_int ; i++)
     fba:	50 e0       	ldi	r21, 0x00	; 0
     fbc:	14 16       	cp	r1, r20
     fbe:	15 06       	cpc	r1, r21
     fc0:	0c f1       	brlt	.+66     	; 0x1004 <u8x8_avr_delay+0x6e>
				_delay_ms(1);
			break;
		default:
			return 0;
	}
	return 1;
     fc2:	81 e0       	ldi	r24, 0x01	; 1
     fc4:	08 95       	ret
#define CALL_CYCLES 26UL
#define CALC_CYCLES 4UL
#define RETURN_CYCLES 4UL
#define CYCLES_PER_LOOP 4UL

			cycles = (100UL * arg_int) / (P_CPU_NS * CYCLES_PER_LOOP);
     fc6:	24 2f       	mov	r18, r20
     fc8:	30 e0       	ldi	r19, 0x00	; 0
     fca:	a4 e6       	ldi	r26, 0x64	; 100
     fcc:	b0 e0       	ldi	r27, 0x00	; 0
     fce:	0e 94 a7 12 	call	0x254e	; 0x254e <__umulhisi3>
     fd2:	24 ef       	ldi	r18, 0xF4	; 244
     fd4:	31 e0       	ldi	r19, 0x01	; 1
     fd6:	40 e0       	ldi	r20, 0x00	; 0
     fd8:	50 e0       	ldi	r21, 0x00	; 0
     fda:	0e 94 7f 12 	call	0x24fe	; 0x24fe <__udivmodsi4>

			if(cycles > CALL_CYCLES + RETURN_CYCLES + CALC_CYCLES)
     fde:	23 32       	cpi	r18, 0x23	; 35
     fe0:	08 f5       	brcc	.+66     	; 0x1024 <u8x8_avr_delay+0x8e>
				break;

			__asm__ __volatile__ (
     fe2:	82 2f       	mov	r24, r18
     fe4:	01 97       	sbiw	r24, 0x01	; 1
     fe6:	f1 f7       	brne	.-4      	; 0xfe4 <u8x8_avr_delay+0x4e>
				_delay_ms(1);
			break;
		default:
			return 0;
	}
	return 1;
     fe8:	81 e0       	ldi	r24, 0x01	; 1

			__asm__ __volatile__ (
			"1: sbiw %0,1" "\n\t" // 2 cycles
			"brne 1b" : "=w" (cycles) : "0" (cycles) // 2 cycles
			);
			break;
     fea:	08 95       	ret
		case U8X8_MSG_DELAY_10MICRO:    // delay arg_int * 10 micro seconds
			for(int i=0 ; i < arg_int ; i++)
     fec:	80 e0       	ldi	r24, 0x00	; 0
     fee:	90 e0       	ldi	r25, 0x00	; 0
	#else
		//round up by default
		__ticks_dc = (uint32_t)(ceil(fabs(__tmp)));
	#endif

	__builtin_avr_delay_cycles(__ticks_dc);
     ff0:	2a e1       	ldi	r18, 0x1A	; 26
     ff2:	2a 95       	dec	r18
     ff4:	f1 f7       	brne	.-4      	; 0xff2 <u8x8_avr_delay+0x5c>
     ff6:	00 c0       	rjmp	.+0      	; 0xff8 <u8x8_avr_delay+0x62>
     ff8:	01 96       	adiw	r24, 0x01	; 1
     ffa:	84 17       	cp	r24, r20
     ffc:	95 07       	cpc	r25, r21
     ffe:	c1 f7       	brne	.-16     	; 0xff0 <u8x8_avr_delay+0x5a>
				_delay_ms(1);
			break;
		default:
			return 0;
	}
	return 1;
    1000:	81 e0       	ldi	r24, 0x01	; 1
    1002:	08 95       	ret
		case U8X8_MSG_DELAY_10MICRO:    // delay arg_int * 10 micro seconds
			for(int i=0 ; i < arg_int ; i++)
				_delay_us(10);
			break;
		case U8X8_MSG_DELAY_MILLI:      // delay arg_int * 1 milli second
			for(int i=0 ; i < arg_int ; i++)
    1004:	80 e0       	ldi	r24, 0x00	; 0
    1006:	90 e0       	ldi	r25, 0x00	; 0
	#else
		//round up by default
		__ticks_dc = (uint32_t)(ceil(fabs(__tmp)));
	#endif

	__builtin_avr_delay_cycles(__ticks_dc);
    1008:	ef ec       	ldi	r30, 0xCF	; 207
    100a:	f7 e0       	ldi	r31, 0x07	; 7
    100c:	31 97       	sbiw	r30, 0x01	; 1
    100e:	f1 f7       	brne	.-4      	; 0x100c <u8x8_avr_delay+0x76>
    1010:	00 c0       	rjmp	.+0      	; 0x1012 <u8x8_avr_delay+0x7c>
    1012:	00 00       	nop
    1014:	01 96       	adiw	r24, 0x01	; 1
    1016:	84 17       	cp	r24, r20
    1018:	95 07       	cpc	r25, r21
    101a:	b1 f7       	brne	.-20     	; 0x1008 <u8x8_avr_delay+0x72>
				_delay_ms(1);
			break;
		default:
			return 0;
	}
	return 1;
    101c:	81 e0       	ldi	r24, 0x01	; 1
    101e:	08 95       	ret
		case U8X8_MSG_DELAY_MILLI:      // delay arg_int * 1 milli second
			for(int i=0 ; i < arg_int ; i++)
				_delay_ms(1);
			break;
		default:
			return 0;
    1020:	80 e0       	ldi	r24, 0x00	; 0
    1022:	08 95       	ret
	}
	return 1;
    1024:	81 e0       	ldi	r24, 0x01	; 1
}
    1026:	08 95       	ret

00001028 <u8x8_gpio_and_delay>:
*/



uint8_t u8x8_gpio_and_delay(u8x8_t *u8x8, uint8_t msg, uint8_t arg_int, void *arg_ptr)
{
    1028:	0f 93       	push	r16
    102a:	1f 93       	push	r17
    102c:	cf 93       	push	r28
    102e:	df 93       	push	r29
    1030:	d9 01       	movw	r26, r18
  switch(msg)
    1032:	06 2f       	mov	r16, r22
    1034:	10 e0       	ldi	r17, 0x00	; 0
    1036:	f8 01       	movw	r30, r16
    1038:	b8 97       	sbiw	r30, 0x28	; 40
    103a:	e4 32       	cpi	r30, 0x24	; 36
    103c:	f1 05       	cpc	r31, r1
    103e:	08 f0       	brcs	.+2      	; 0x1042 <u8x8_gpio_and_delay+0x1a>
    1040:	5a c0       	rjmp	.+180    	; 0x10f6 <u8x8_gpio_and_delay+0xce>
    1042:	e8 5c       	subi	r30, 0xC8	; 200
    1044:	ff 4f       	sbci	r31, 0xFF	; 255
    1046:	0c 94 a1 12 	jmp	0x2542	; 0x2542 <__tablejump2__>
  {

    case U8X8_MSG_GPIO_AND_DELAY_INIT:	// called once during init phase of u8g2/u8x8
    	PIN_OUT(LCD_D0);
    104a:	d5 9a       	sbi	0x1a, 5	; 26
    	PIN_OUT(LCD_D1);
    104c:	d4 9a       	sbi	0x1a, 4	; 26
    	PIN_OUT(LCD_D2);
    104e:	d3 9a       	sbi	0x1a, 3	; 26
    	PIN_OUT(LCD_D3);
    1050:	d2 9a       	sbi	0x1a, 2	; 26
    	PIN_OUT(LCD_D4);
    1052:	bc 9a       	sbi	0x17, 4	; 23
    	PIN_OUT(LCD_D5);
    1054:	bb 9a       	sbi	0x17, 3	; 23
    	PIN_OUT(LCD_D6);
    1056:	ba 9a       	sbi	0x17, 2	; 23
    	PIN_OUT(LCD_D7);
    1058:	b9 9a       	sbi	0x17, 1	; 23
    	PIN_OUT(LCD_CS);
    105a:	d7 9a       	sbi	0x1a, 7	; 26
    	PIN_OUT(LCD_A0);
    105c:	b8 9a       	sbi	0x17, 0	; 23
    	PIN_OUT(LCD_RESET);
    105e:	d6 9a       	sbi	0x1a, 6	; 26
    	PIN_OUT(LCD_E);
    1060:	d1 9a       	sbi	0x1a, 1	; 26
		PIN_OUT(LCD_RW);
    1062:	d0 9a       	sbi	0x1a, 0	; 26
      break;
    1064:	50 c0       	rjmp	.+160    	; 0x1106 <u8x8_gpio_and_delay+0xde>
    case U8X8_MSG_DELAY_I2C:				// arg_int is the I2C speed in 100KHz, e.g. 4 = 400 KHz
      break;							// arg_int=1: delay by 5us, arg_int = 4: delay by 1.25us
      */
    case U8X8_MSG_GPIO_D0:				// D0 or SPI clock pin: Output level in arg_int
    //case U8X8_MSG_GPIO_SPI_CLOCK:
    	if (arg_int){
    1066:	44 23       	and	r20, r20
    1068:	11 f0       	breq	.+4      	; 0x106e <u8x8_gpio_and_delay+0x46>
    		SET(LCD_D0);
    106a:	dd 9a       	sbi	0x1b, 5	; 27
    106c:	4c c0       	rjmp	.+152    	; 0x1106 <u8x8_gpio_and_delay+0xde>
    	}else{
    		CLR(LCD_D0);
    106e:	dd 98       	cbi	0x1b, 5	; 27
    1070:	4a c0       	rjmp	.+148    	; 0x1106 <u8x8_gpio_and_delay+0xde>
    	}
      break;
    case U8X8_MSG_GPIO_D1:				// D1 or SPI data pin: Output level in arg_int
    //case U8X8_MSG_GPIO_SPI_DATA:
    	if (arg_int){
    1072:	44 23       	and	r20, r20
    1074:	11 f0       	breq	.+4      	; 0x107a <u8x8_gpio_and_delay+0x52>
    		SET(LCD_D1);
    1076:	dc 9a       	sbi	0x1b, 4	; 27
    1078:	46 c0       	rjmp	.+140    	; 0x1106 <u8x8_gpio_and_delay+0xde>
    	}else{
    		CLR(LCD_D1);
    107a:	dc 98       	cbi	0x1b, 4	; 27
    107c:	44 c0       	rjmp	.+136    	; 0x1106 <u8x8_gpio_and_delay+0xde>
    	}
      break;
    case U8X8_MSG_GPIO_D2:				// D2 pin: Output level in arg_int
    	if (arg_int){
    107e:	44 23       	and	r20, r20
    1080:	11 f0       	breq	.+4      	; 0x1086 <u8x8_gpio_and_delay+0x5e>
    		SET(LCD_D2);
    1082:	db 9a       	sbi	0x1b, 3	; 27
    1084:	40 c0       	rjmp	.+128    	; 0x1106 <u8x8_gpio_and_delay+0xde>
    	}else{
    		CLR(LCD_D2);
    1086:	db 98       	cbi	0x1b, 3	; 27
    1088:	3e c0       	rjmp	.+124    	; 0x1106 <u8x8_gpio_and_delay+0xde>
    	}
      break;
    case U8X8_MSG_GPIO_D3:				// D3 pin: Output level in arg_int
    	if(arg_int){
    108a:	44 23       	and	r20, r20
    108c:	11 f0       	breq	.+4      	; 0x1092 <u8x8_gpio_and_delay+0x6a>
    		SET(LCD_D3);
    108e:	da 9a       	sbi	0x1b, 2	; 27
    1090:	3a c0       	rjmp	.+116    	; 0x1106 <u8x8_gpio_and_delay+0xde>
    	}else{
    		CLR(LCD_D3);
    1092:	da 98       	cbi	0x1b, 2	; 27
    1094:	38 c0       	rjmp	.+112    	; 0x1106 <u8x8_gpio_and_delay+0xde>
    	}
      break;
    case U8X8_MSG_GPIO_D4:				// D4 pin: Output level in arg_int
    	if (arg_int){
    1096:	44 23       	and	r20, r20
    1098:	11 f0       	breq	.+4      	; 0x109e <u8x8_gpio_and_delay+0x76>
    		SET(LCD_D4);
    109a:	c4 9a       	sbi	0x18, 4	; 24
    109c:	34 c0       	rjmp	.+104    	; 0x1106 <u8x8_gpio_and_delay+0xde>
    	}else{
    		CLR(LCD_D4);
    109e:	c4 98       	cbi	0x18, 4	; 24
    10a0:	32 c0       	rjmp	.+100    	; 0x1106 <u8x8_gpio_and_delay+0xde>
    	}
      break;
    case U8X8_MSG_GPIO_D5:				// D5 pin: Output level in arg_int
    	if(arg_int){
    10a2:	44 23       	and	r20, r20
    10a4:	11 f0       	breq	.+4      	; 0x10aa <u8x8_gpio_and_delay+0x82>
    		SET(LCD_D5);
    10a6:	c3 9a       	sbi	0x18, 3	; 24
    10a8:	2e c0       	rjmp	.+92     	; 0x1106 <u8x8_gpio_and_delay+0xde>
    	}else{
    		CLR(LCD_D5);
    10aa:	c3 98       	cbi	0x18, 3	; 24
    10ac:	2c c0       	rjmp	.+88     	; 0x1106 <u8x8_gpio_and_delay+0xde>
    	}
      break;
    case U8X8_MSG_GPIO_D6:				// D6 pin: Output level in arg_int
    	if (arg_int){
    10ae:	44 23       	and	r20, r20
    10b0:	11 f0       	breq	.+4      	; 0x10b6 <u8x8_gpio_and_delay+0x8e>
    		SET(LCD_D6);
    10b2:	c2 9a       	sbi	0x18, 2	; 24
    10b4:	28 c0       	rjmp	.+80     	; 0x1106 <u8x8_gpio_and_delay+0xde>
    	}else{
    		CLR(LCD_D6);
    10b6:	c2 98       	cbi	0x18, 2	; 24
    10b8:	26 c0       	rjmp	.+76     	; 0x1106 <u8x8_gpio_and_delay+0xde>
    	}
      break;
    case U8X8_MSG_GPIO_D7:				// D7 pin: Output level in arg_int
    	if(arg_int){
    10ba:	44 23       	and	r20, r20
    10bc:	11 f0       	breq	.+4      	; 0x10c2 <u8x8_gpio_and_delay+0x9a>
    		SET(LCD_D7);
    10be:	c1 9a       	sbi	0x18, 1	; 24
    10c0:	22 c0       	rjmp	.+68     	; 0x1106 <u8x8_gpio_and_delay+0xde>
    	}else{
    		CLR(LCD_D7);
    10c2:	c1 98       	cbi	0x18, 1	; 24
    10c4:	20 c0       	rjmp	.+64     	; 0x1106 <u8x8_gpio_and_delay+0xde>
    	}
      break;
    case U8X8_MSG_GPIO_E:				// E/WR pin: Output level in arg_int
    	if(arg_int){
    10c6:	44 23       	and	r20, r20
    10c8:	11 f0       	breq	.+4      	; 0x10ce <u8x8_gpio_and_delay+0xa6>
    		SET(LCD_E);
    10ca:	d9 9a       	sbi	0x1b, 1	; 27
    10cc:	1c c0       	rjmp	.+56     	; 0x1106 <u8x8_gpio_and_delay+0xde>
    	}else{
    		CLR(LCD_E);
    10ce:	d9 98       	cbi	0x1b, 1	; 27
    10d0:	1a c0       	rjmp	.+52     	; 0x1106 <u8x8_gpio_and_delay+0xde>
    	}
      break;
	
    case U8X8_MSG_GPIO_CS:				// CS (chip select) pin: Output level in arg_int
    	if(arg_int){
    10d2:	44 23       	and	r20, r20
    10d4:	11 f0       	breq	.+4      	; 0x10da <u8x8_gpio_and_delay+0xb2>
    		SET(LCD_CS);
    10d6:	df 9a       	sbi	0x1b, 7	; 27
    10d8:	16 c0       	rjmp	.+44     	; 0x1106 <u8x8_gpio_and_delay+0xde>
    	}else{
    		CLR(LCD_CS);
    10da:	df 98       	cbi	0x1b, 7	; 27
    10dc:	14 c0       	rjmp	.+40     	; 0x1106 <u8x8_gpio_and_delay+0xde>
    	}
      break;
	  
    case U8X8_MSG_GPIO_DC:				// DC (data/cmd, A0, register select) pin: Output level in arg_int
    	if(arg_int){
    10de:	44 23       	and	r20, r20
    10e0:	11 f0       	breq	.+4      	; 0x10e6 <u8x8_gpio_and_delay+0xbe>
    		SET(LCD_A0);
    10e2:	c0 9a       	sbi	0x18, 0	; 24
    10e4:	10 c0       	rjmp	.+32     	; 0x1106 <u8x8_gpio_and_delay+0xde>
    	}else{
    		CLR(LCD_A0);
    10e6:	c0 98       	cbi	0x18, 0	; 24
    10e8:	0e c0       	rjmp	.+28     	; 0x1106 <u8x8_gpio_and_delay+0xde>
    	}
      break;
    case U8X8_MSG_GPIO_RESET:			// Reset pin: Output level in arg_int
    	if(arg_int){
    10ea:	44 23       	and	r20, r20
    10ec:	11 f0       	breq	.+4      	; 0x10f2 <u8x8_gpio_and_delay+0xca>
    		SET(LCD_RESET);
    10ee:	de 9a       	sbi	0x1b, 6	; 27
    10f0:	0a c0       	rjmp	.+20     	; 0x1106 <u8x8_gpio_and_delay+0xde>
    	}else{
    		CLR(LCD_RESET);
    10f2:	de 98       	cbi	0x1b, 6	; 27
    10f4:	08 c0       	rjmp	.+16     	; 0x1106 <u8x8_gpio_and_delay+0xde>
    10f6:	9d 01       	movw	r18, r26
    10f8:	ec 01       	movw	r28, r24
    		SET(LCD_CS);
    	}
      break;
	*/  
    default:
    	if (u8x8_avr_delay(u8x8, msg, arg_int, arg_ptr))	// check for any delay msgs
    10fa:	0e 94 cb 07 	call	0xf96	; 0xf96 <u8x8_avr_delay>
    10fe:	81 11       	cpse	r24, r1
    1100:	02 c0       	rjmp	.+4      	; 0x1106 <u8x8_gpio_and_delay+0xde>
    					return 1;
    	u8x8_SetGPIOResult(u8x8, 1);			// default return value
    1102:	81 e0       	ldi	r24, 0x01	; 1
    1104:	8a 8f       	std	Y+26, r24	; 0x1a
      break;
  }
  return 1;
}
    1106:	81 e0       	ldi	r24, 0x01	; 1
    1108:	df 91       	pop	r29
    110a:	cf 91       	pop	r28
    110c:	1f 91       	pop	r17
    110e:	0f 91       	pop	r16
    1110:	08 95       	ret

00001112 <init_display>:

void init_display(void){
	u8g2_Setup_sed1520_122x32_f(&u8g2, U8G2_R0, u8x8_byte_sed1520, u8x8_gpio_and_delay);
    1112:	24 e1       	ldi	r18, 0x14	; 20
    1114:	38 e0       	ldi	r19, 0x08	; 8
    1116:	43 e8       	ldi	r20, 0x83	; 131
    1118:	5f e0       	ldi	r21, 0x0F	; 15
    111a:	65 e0       	ldi	r22, 0x05	; 5
    111c:	71 e0       	ldi	r23, 0x01	; 1
    111e:	83 e3       	ldi	r24, 0x33	; 51
    1120:	93 e0       	ldi	r25, 0x03	; 3
    1122:	0e 94 82 09 	call	0x1304	; 0x1304 <u8g2_Setup_sed1520_122x32_f>
	u8g2_InitDisplay(&u8g2);
    1126:	83 e3       	ldi	r24, 0x33	; 51
    1128:	93 e0       	ldi	r25, 0x03	; 3
    112a:	0e 94 27 11 	call	0x224e	; 0x224e <u8x8_InitDisplay>
	u8g2_SetPowerSave(&u8g2, 0);
    112e:	60 e0       	ldi	r22, 0x00	; 0
    1130:	83 e3       	ldi	r24, 0x33	; 51
    1132:	93 e0       	ldi	r25, 0x03	; 3
    1134:	0e 94 32 11 	call	0x2264	; 0x2264 <u8x8_SetPowerSave>
    1138:	08 95       	ret

0000113a <show_logo>:

};

void show_logo (void){
	//u8g2_SetFont(&u8g2, u8g2_font_robot_de_niro_tf);
	u8g2_SetFont(&u8g2, u8g2_font_ncenR24_tr);
    113a:	68 eb       	ldi	r22, 0xB8	; 184
    113c:	70 e0       	ldi	r23, 0x00	; 0
    113e:	83 e3       	ldi	r24, 0x33	; 51
    1140:	93 e0       	ldi	r25, 0x03	; 3
    1142:	0e 94 6a 0d 	call	0x1ad4	; 0x1ad4 <u8g2_SetFont>
	//u8g2_DrawXBMP(&u8g2,0,0,64,32,logo);
	u8g2_ClearBuffer(&u8g2);
    1146:	83 e3       	ldi	r24, 0x33	; 51
    1148:	93 e0       	ldi	r25, 0x03	; 3
    114a:	0e 94 5b 09 	call	0x12b6	; 0x12b6 <u8g2_ClearBuffer>
	
	u8g2_DrawStr(&u8g2, 60, 31, "U8g2");
    114e:	20 e0       	ldi	r18, 0x00	; 0
    1150:	31 e0       	ldi	r19, 0x01	; 1
    1152:	4f e1       	ldi	r20, 0x1F	; 31
    1154:	6c e3       	ldi	r22, 0x3C	; 60
    1156:	83 e3       	ldi	r24, 0x33	; 51
    1158:	93 e0       	ldi	r25, 0x03	; 3
    115a:	0e 94 17 0d 	call	0x1a2e	; 0x1a2e <u8g2_DrawStr>
	//u8g2_DrawXBMP(&u8g2,0,11,64,3,logo);
	//u8x8_DrawUTF8(&u8g2, 1, 30,"Fuck U!");
	u8g2_SendBuffer(&u8g2);
    115e:	83 e3       	ldi	r24, 0x33	; 51
    1160:	93 e0       	ldi	r25, 0x03	; 3
    1162:	0e 94 71 09 	call	0x12e2	; 0x12e2 <u8g2_SendBuffer>
    1166:	08 95       	ret

00001168 <init>:



void init(void){
	//   - ,  0
	PIN_OUT(keyRow1);
    1168:	8f 9a       	sbi	0x11, 7	; 17
	PIN_OUT(keyRow2);
    116a:	8e 9a       	sbi	0x11, 6	; 17
	PIN_OUT(keyRow3);
    116c:	8d 9a       	sbi	0x11, 5	; 17
	SET(keyRow1);
    116e:	97 9a       	sbi	0x12, 7	; 18
	SET(keyRow2);
    1170:	96 9a       	sbi	0x12, 6	; 18
	SET(keyRow3);
    1172:	95 9a       	sbi	0x12, 5	; 18
	//  -   , 1 -  
	PIN_IN(keyCol1);
    1174:	a0 98       	cbi	0x14, 0	; 20
	PIN_IN(keyCol2);
    1176:	a1 98       	cbi	0x14, 1	; 20
	PIN_IN(keyCol3);
    1178:	a2 98       	cbi	0x14, 2	; 20
	PIN_IN(keyCol4);
    117a:	a3 98       	cbi	0x14, 3	; 20
	SET(keyCol1);
    117c:	a8 9a       	sbi	0x15, 0	; 21
	SET(keyCol2);
    117e:	a9 9a       	sbi	0x15, 1	; 21
	SET(keyCol3);
    1180:	aa 9a       	sbi	0x15, 2	; 21
	SET(keyCol4);
    1182:	ab 9a       	sbi	0x15, 3	; 21

	//
	PIN_OUT(LED1);
    1184:	31 9a       	sbi	0x06, 1	; 6
	PIN_OUT(LED2);
    1186:	30 9a       	sbi	0x06, 0	; 6
	PIN_OUT(LED3);
    1188:	8a 9a       	sbi	0x11, 2	; 17
	PIN_OUT(LED4);
    118a:	8b 9a       	sbi	0x11, 3	; 17

	PIN_OUT(LCD_LED);
    118c:	8c 9a       	sbi	0x11, 4	; 17
	SET(LCD_LED);
    118e:	94 9a       	sbi	0x12, 4	; 18

	init_display();
    1190:	0e 94 89 08 	call	0x1112	; 0x1112 <init_display>
	show_logo();
    1194:	0e 94 9d 08 	call	0x113a	; 0x113a <show_logo>
    1198:	08 95       	ret

0000119a <key_scan>:
 *    
 *     
 */
void key_scan(void){
	unsigned char key_bitsR1,key_bitsR2,key_bitsR3;
	memset(key_buf,0,key_buf_len);
    119a:	8c e0       	ldi	r24, 0x0C	; 12
    119c:	e9 e9       	ldi	r30, 0x99	; 153
    119e:	f3 e0       	ldi	r31, 0x03	; 3
    11a0:	df 01       	movw	r26, r30
    11a2:	1d 92       	st	X+, r1
    11a4:	8a 95       	dec	r24
    11a6:	e9 f7       	brne	.-6      	; 0x11a2 <key_scan+0x8>
	/// row1
	CLR(keyRow1);
    11a8:	97 98       	cbi	0x12, 7	; 18
	SET(keyRow2);
    11aa:	96 9a       	sbi	0x12, 6	; 18
	SET(keyRow3);
    11ac:	95 9a       	sbi	0x12, 5	; 18
	key_bitsR1 = 0xF0||(GET(keyCol4)<<3)||(GET(keyCol3)<<2)||(GET(keyCol2)<<1)||(GET(keyCol1));
	key_bitsR1=~key_bitsR1;
	/// row2
	SET(keyRow1);
    11ae:	97 9a       	sbi	0x12, 7	; 18
	CLR(keyRow2);
    11b0:	96 98       	cbi	0x12, 6	; 18
	SET(keyRow3);
    11b2:	95 9a       	sbi	0x12, 5	; 18
	key_bitsR2 = 0xF0||(GET(keyCol4)<<3)||(GET(keyCol3)<<2)||(GET(keyCol2)<<1)||(GET(keyCol1));
	key_bitsR2=~key_bitsR2;
	/// row3
	SET(keyRow1);
    11b4:	97 9a       	sbi	0x12, 7	; 18
	CLR(keyRow2);
    11b6:	96 98       	cbi	0x12, 6	; 18
	SET(keyRow3);
    11b8:	95 9a       	sbi	0x12, 5	; 18
    11ba:	08 95       	ret

000011bc <main>:
		//     
	}
}

int main (void){
	init();
    11bc:	0e 94 b4 08 	call	0x1168	; 0x1168 <init>
	while(1){
		key_scan();
    11c0:	0e 94 cd 08 	call	0x119a	; 0x119a <key_scan>
    11c4:	2f ef       	ldi	r18, 0xFF	; 255
    11c6:	81 ee       	ldi	r24, 0xE1	; 225
    11c8:	94 e0       	ldi	r25, 0x04	; 4
    11ca:	21 50       	subi	r18, 0x01	; 1
    11cc:	80 40       	sbci	r24, 0x00	; 0
    11ce:	90 40       	sbci	r25, 0x00	; 0
    11d0:	e1 f7       	brne	.-8      	; 0x11ca <main+0xe>
    11d2:	00 c0       	rjmp	.+0      	; 0x11d4 <main+0x18>
    11d4:	00 00       	nop
		if (has_key){
			///  
		}

		_delay_ms(200);
		SET(LED2);
    11d6:	38 9a       	sbi	0x07, 0	; 7
		SET(LED1);
    11d8:	39 9a       	sbi	0x07, 1	; 7
    11da:	2f ef       	ldi	r18, 0xFF	; 255
    11dc:	81 ee       	ldi	r24, 0xE1	; 225
    11de:	94 e0       	ldi	r25, 0x04	; 4
    11e0:	21 50       	subi	r18, 0x01	; 1
    11e2:	80 40       	sbci	r24, 0x00	; 0
    11e4:	90 40       	sbci	r25, 0x00	; 0
    11e6:	e1 f7       	brne	.-8      	; 0x11e0 <main+0x24>
    11e8:	00 c0       	rjmp	.+0      	; 0x11ea <main+0x2e>
    11ea:	00 00       	nop
		_delay_ms(200);
		CLR(LED2);
    11ec:	38 98       	cbi	0x07, 0	; 7
		SET(LED1);
    11ee:	39 9a       	sbi	0x07, 1	; 7
    11f0:	2f ef       	ldi	r18, 0xFF	; 255
    11f2:	81 ee       	ldi	r24, 0xE1	; 225
    11f4:	94 e0       	ldi	r25, 0x04	; 4
    11f6:	21 50       	subi	r18, 0x01	; 1
    11f8:	80 40       	sbci	r24, 0x00	; 0
    11fa:	90 40       	sbci	r25, 0x00	; 0
    11fc:	e1 f7       	brne	.-8      	; 0x11f6 <main+0x3a>
    11fe:	00 c0       	rjmp	.+0      	; 0x1200 <main+0x44>
    1200:	00 00       	nop
		_delay_ms(200);
		SET(LED2);
    1202:	38 9a       	sbi	0x07, 0	; 7
		CLR(LED1);
    1204:	39 98       	cbi	0x07, 1	; 7
    1206:	2f ef       	ldi	r18, 0xFF	; 255
    1208:	81 ee       	ldi	r24, 0xE1	; 225
    120a:	94 e0       	ldi	r25, 0x04	; 4
    120c:	21 50       	subi	r18, 0x01	; 1
    120e:	80 40       	sbci	r24, 0x00	; 0
    1210:	90 40       	sbci	r25, 0x00	; 0
    1212:	e1 f7       	brne	.-8      	; 0x120c <main+0x50>
    1214:	00 c0       	rjmp	.+0      	; 0x1216 <main+0x5a>
    1216:	00 00       	nop
		_delay_ms(200);
		CLR(LED2);
    1218:	38 98       	cbi	0x07, 0	; 7
		CLR(LED1);
    121a:	39 98       	cbi	0x07, 1	; 7
    121c:	d1 cf       	rjmp	.-94     	; 0x11c0 <main+0x4>

0000121e <u8g2_send_buffer>:
  For most displays, this will make the content visible to the user.
  Some displays (like the SSD1606) require a u8x8_RefreshDisplay()
*/
static void u8g2_send_buffer(u8g2_t *u8g2) U8X8_NOINLINE;
static void u8g2_send_buffer(u8g2_t *u8g2)
{
    121e:	af 92       	push	r10
    1220:	bf 92       	push	r11
    1222:	cf 92       	push	r12
    1224:	df 92       	push	r13
    1226:	ef 92       	push	r14
    1228:	ff 92       	push	r15
    122a:	0f 93       	push	r16
    122c:	1f 93       	push	r17
    122e:	cf 93       	push	r28
    1230:	df 93       	push	r29
    1232:	7c 01       	movw	r14, r24
  uint8_t src_max;
  uint8_t dest_row;
  uint8_t dest_max;

  src_row = 0;
  src_max = u8g2->tile_buf_height;
    1234:	dc 01       	movw	r26, r24
    1236:	95 96       	adiw	r26, 0x25	; 37
    1238:	bc 90       	ld	r11, X
    123a:	95 97       	sbiw	r26, 0x25	; 37
  dest_row = u8g2->tile_curr_row;
    123c:	96 96       	adiw	r26, 0x26	; 38
    123e:	dc 91       	ld	r29, X
    1240:	96 97       	sbiw	r26, 0x26	; 38
  dest_max = u8g2_GetU8x8(u8g2)->display_info->tile_height;
    1242:	ed 91       	ld	r30, X+
    1244:	fc 91       	ld	r31, X
    1246:	a1 88       	ldd	r10, Z+17	; 0x11
  uint8_t dest_row;
  uint8_t dest_max;

  src_row = 0;
  src_max = u8g2->tile_buf_height;
  dest_row = u8g2->tile_curr_row;
    1248:	cd 2f       	mov	r28, r29
  dest_max = u8g2_GetU8x8(u8g2)->display_info->tile_height;
    124a:	c1 2c       	mov	r12, r1
    124c:	d1 2c       	mov	r13, r1
{
  uint8_t *ptr;
  uint16_t offset;
  uint8_t w;
  
  w = u8g2_GetU8x8(u8g2)->display_info->tile_width;
    124e:	d7 01       	movw	r26, r14
    1250:	ed 91       	ld	r30, X+
    1252:	fc 91       	ld	r31, X
    1254:	11 97       	sbiw	r26, 0x01	; 1
    1256:	20 89       	ldd	r18, Z+16	; 0x10
  offset = src_tile_row;
  ptr = u8g2->tile_buf_ptr;
    1258:	93 96       	adiw	r26, 0x23	; 35
    125a:	0d 91       	ld	r16, X+
    125c:	1c 91       	ld	r17, X
    125e:	94 97       	sbiw	r26, 0x24	; 36
  offset *= w;
  offset *= 8;
  ptr += offset;
  u8x8_DrawTile(u8g2_GetU8x8(u8g2), 0, dest_tile_row, w, ptr);
    1260:	42 2f       	mov	r20, r18
    1262:	50 e0       	ldi	r21, 0x00	; 0
    1264:	44 0f       	add	r20, r20
    1266:	55 1f       	adc	r21, r21
    1268:	44 0f       	add	r20, r20
    126a:	55 1f       	adc	r21, r21
    126c:	44 0f       	add	r20, r20
    126e:	55 1f       	adc	r21, r21
    1270:	4c 9d       	mul	r20, r12
    1272:	c0 01       	movw	r24, r0
    1274:	4d 9d       	mul	r20, r13
    1276:	90 0d       	add	r25, r0
    1278:	5c 9d       	mul	r21, r12
    127a:	90 0d       	add	r25, r0
    127c:	11 24       	eor	r1, r1
    127e:	08 0f       	add	r16, r24
    1280:	19 1f       	adc	r17, r25
    1282:	4c 2f       	mov	r20, r28
    1284:	60 e0       	ldi	r22, 0x00	; 0
    1286:	c7 01       	movw	r24, r14
    1288:	0e 94 f9 10 	call	0x21f2	; 0x21f2 <u8x8_DrawTile>
  
  do
  {
    u8g2_send_tile_row(u8g2, src_row, dest_row);
    src_row++;
    dest_row++;
    128c:	cf 5f       	subi	r28, 0xFF	; 255
  } while( src_row < src_max && dest_row < dest_max );
    128e:	8c 2f       	mov	r24, r28
    1290:	8d 1b       	sub	r24, r29
    1292:	8b 15       	cp	r24, r11
    1294:	28 f4       	brcc	.+10     	; 0x12a0 <u8g2_send_buffer+0x82>
    1296:	bf ef       	ldi	r27, 0xFF	; 255
    1298:	cb 1a       	sub	r12, r27
    129a:	db 0a       	sbc	r13, r27
    129c:	ca 15       	cp	r28, r10
    129e:	b8 f2       	brcs	.-82     	; 0x124e <u8g2_send_buffer+0x30>
}
    12a0:	df 91       	pop	r29
    12a2:	cf 91       	pop	r28
    12a4:	1f 91       	pop	r17
    12a6:	0f 91       	pop	r16
    12a8:	ff 90       	pop	r15
    12aa:	ef 90       	pop	r14
    12ac:	df 90       	pop	r13
    12ae:	cf 90       	pop	r12
    12b0:	bf 90       	pop	r11
    12b2:	af 90       	pop	r10
    12b4:	08 95       	ret

000012b6 <u8g2_ClearBuffer>:
#include "u8g2.h"
#include <string.h>

/*============================================*/
void u8g2_ClearBuffer(u8g2_t *u8g2)
{
    12b6:	fc 01       	movw	r30, r24
  size_t cnt;
  cnt = u8g2_GetU8x8(u8g2)->display_info->tile_width;
    12b8:	a0 81       	ld	r26, Z
    12ba:	b1 81       	ldd	r27, Z+1	; 0x01
    12bc:	50 96       	adiw	r26, 0x10	; 16
    12be:	9c 91       	ld	r25, X
  cnt *= u8g2->tile_buf_height;
    12c0:	45 a1       	ldd	r20, Z+37	; 0x25
    12c2:	94 9f       	mul	r25, r20
    12c4:	a0 01       	movw	r20, r0
    12c6:	11 24       	eor	r1, r1
  cnt *= 8;
  memset(u8g2->tile_buf_ptr, 0, cnt);
    12c8:	44 0f       	add	r20, r20
    12ca:	55 1f       	adc	r21, r21
    12cc:	44 0f       	add	r20, r20
    12ce:	55 1f       	adc	r21, r21
    12d0:	44 0f       	add	r20, r20
    12d2:	55 1f       	adc	r21, r21
    12d4:	60 e0       	ldi	r22, 0x00	; 0
    12d6:	70 e0       	ldi	r23, 0x00	; 0
    12d8:	83 a1       	ldd	r24, Z+35	; 0x23
    12da:	94 a1       	ldd	r25, Z+36	; 0x24
    12dc:	0e 94 b6 12 	call	0x256c	; 0x256c <memset>
    12e0:	08 95       	ret

000012e2 <u8g2_SendBuffer>:
  } while( src_row < src_max && dest_row < dest_max );
}

/* same as u8g2_send_buffer but also send the DISPLAY_REFRESH message (used by SSD1606) */
void u8g2_SendBuffer(u8g2_t *u8g2)
{
    12e2:	cf 93       	push	r28
    12e4:	df 93       	push	r29
    12e6:	ec 01       	movw	r28, r24
  u8g2_send_buffer(u8g2);
    12e8:	0e 94 0f 09 	call	0x121e	; 0x121e <u8g2_send_buffer>
  u8x8_RefreshDisplay( u8g2_GetU8x8(u8g2) );  
    12ec:	ce 01       	movw	r24, r28
    12ee:	0e 94 3d 11 	call	0x227a	; 0x227a <u8x8_RefreshDisplay>
}
    12f2:	df 91       	pop	r29
    12f4:	cf 91       	pop	r28
    12f6:	08 95       	ret

000012f8 <u8g2_m_16_4_f>:
  return buf;
}
uint8_t *u8g2_m_16_4_f(uint8_t *page_cnt)
{
  static uint8_t buf[512];
  *page_cnt = 4;
    12f8:	24 e0       	ldi	r18, 0x04	; 4
    12fa:	fc 01       	movw	r30, r24
    12fc:	20 83       	st	Z, r18
  return buf;
}
    12fe:	82 e3       	ldi	r24, 0x32	; 50
    1300:	91 e0       	ldi	r25, 0x01	; 1
    1302:	08 95       	ret

00001304 <u8g2_Setup_sed1520_122x32_f>:
  buf = u8g2_m_16_4_2(&tile_buf_height);
  u8g2_SetupBuffer(u8g2, buf, tile_buf_height, u8g2_ll_hvline_vertical_top_lsb, rotation);
}
/* sed1520 f */
void u8g2_Setup_sed1520_122x32_f(u8g2_t *u8g2, const u8g2_cb_t *rotation, u8x8_msg_cb byte_cb, u8x8_msg_cb gpio_and_delay_cb)
{
    1304:	cf 92       	push	r12
    1306:	df 92       	push	r13
    1308:	ef 92       	push	r14
    130a:	ff 92       	push	r15
    130c:	0f 93       	push	r16
    130e:	1f 93       	push	r17
    1310:	cf 93       	push	r28
    1312:	df 93       	push	r29
    1314:	1f 92       	push	r1
    1316:	cd b7       	in	r28, 0x3d	; 61
    1318:	de b7       	in	r29, 0x3e	; 62
    131a:	7c 01       	movw	r14, r24
    131c:	6b 01       	movw	r12, r22
  uint8_t tile_buf_height;
  uint8_t *buf;
  u8g2_SetupDisplay(u8g2, u8x8_d_sed1520_122x32, u8x8_cad_001, byte_cb, gpio_and_delay_cb);
    131e:	89 01       	movw	r16, r18
    1320:	9a 01       	movw	r18, r20
    1322:	49 e7       	ldi	r20, 0x79	; 121
    1324:	50 e1       	ldi	r21, 0x10	; 16
    1326:	63 e3       	ldi	r22, 0x33	; 51
    1328:	72 e1       	ldi	r23, 0x12	; 18
    132a:	0e 94 59 12 	call	0x24b2	; 0x24b2 <u8x8_Setup>
  buf = u8g2_m_16_4_f(&tile_buf_height);
    132e:	ce 01       	movw	r24, r28
    1330:	01 96       	adiw	r24, 0x01	; 1
    1332:	0e 94 7c 09 	call	0x12f8	; 0x12f8 <u8g2_m_16_4_f>
  u8g2_SetupBuffer(u8g2, buf, tile_buf_height, u8g2_ll_hvline_vertical_top_lsb, rotation);
    1336:	86 01       	movw	r16, r12
    1338:	2a e2       	ldi	r18, 0x2A	; 42
    133a:	3e e0       	ldi	r19, 0x0E	; 14
    133c:	49 81       	ldd	r20, Y+1	; 0x01
    133e:	bc 01       	movw	r22, r24
    1340:	c7 01       	movw	r24, r14
    1342:	0e 94 21 0f 	call	0x1e42	; 0x1e42 <u8g2_SetupBuffer>
}
    1346:	0f 90       	pop	r0
    1348:	df 91       	pop	r29
    134a:	cf 91       	pop	r28
    134c:	1f 91       	pop	r17
    134e:	0f 91       	pop	r16
    1350:	ff 90       	pop	r15
    1352:	ef 90       	pop	r14
    1354:	df 90       	pop	r13
    1356:	cf 90       	pop	r12
    1358:	08 95       	ret

0000135a <u8g2_font_get_word>:
  return tmp;
}

void u8g2_SetFontPosCenter(u8g2_t *u8g2)
{
  u8g2->font_calc_vref = u8g2_font_calc_vref_center;
    135a:	fc 01       	movw	r30, r24
    135c:	e6 0f       	add	r30, r22
    135e:	f1 1d       	adc	r31, r1
    1360:	84 91       	lpm	r24, Z
    1362:	90 e0       	ldi	r25, 0x00	; 0
    1364:	98 2f       	mov	r25, r24
    1366:	88 27       	eor	r24, r24
    1368:	31 96       	adiw	r30, 0x01	; 1
    136a:	e4 91       	lpm	r30, Z
    136c:	8e 0f       	add	r24, r30
    136e:	91 1d       	adc	r25, r1
    1370:	08 95       	ret

00001372 <u8g2_add_vector_y>:
    1372:	21 30       	cpi	r18, 0x01	; 1
    1374:	31 f0       	breq	.+12     	; 0x1382 <u8g2_add_vector_y+0x10>
    1376:	18 f0       	brcs	.+6      	; 0x137e <u8g2_add_vector_y+0xc>
    1378:	22 30       	cpi	r18, 0x02	; 2
    137a:	29 f0       	breq	.+10     	; 0x1386 <u8g2_add_vector_y+0x14>
    137c:	06 c0       	rjmp	.+12     	; 0x138a <u8g2_add_vector_y+0x18>
    137e:	84 0f       	add	r24, r20
    1380:	08 95       	ret
    1382:	86 0f       	add	r24, r22
    1384:	08 95       	ret
    1386:	84 1b       	sub	r24, r20
    1388:	08 95       	ret
    138a:	86 1b       	sub	r24, r22
    138c:	08 95       	ret

0000138e <u8g2_add_vector_x>:
    138e:	21 30       	cpi	r18, 0x01	; 1
    1390:	31 f0       	breq	.+12     	; 0x139e <u8g2_add_vector_x+0x10>
    1392:	18 f0       	brcs	.+6      	; 0x139a <u8g2_add_vector_x+0xc>
    1394:	22 30       	cpi	r18, 0x02	; 2
    1396:	29 f0       	breq	.+10     	; 0x13a2 <u8g2_add_vector_x+0x14>
    1398:	06 c0       	rjmp	.+12     	; 0x13a6 <u8g2_add_vector_x+0x18>
    139a:	86 0f       	add	r24, r22
    139c:	08 95       	ret
    139e:	84 1b       	sub	r24, r20
    13a0:	08 95       	ret
    13a2:	86 1b       	sub	r24, r22
    13a4:	08 95       	ret
    13a6:	84 0f       	add	r24, r20
    13a8:	08 95       	ret

000013aa <u8g2_font_calc_vref_font>:
    13aa:	80 e0       	ldi	r24, 0x00	; 0
    13ac:	08 95       	ret

000013ae <u8g2_read_font_info>:
    13ae:	0f 93       	push	r16
    13b0:	1f 93       	push	r17
    13b2:	cf 93       	push	r28
    13b4:	df 93       	push	r29
    13b6:	ec 01       	movw	r28, r24
    13b8:	8b 01       	movw	r16, r22
    13ba:	fb 01       	movw	r30, r22
    13bc:	84 91       	lpm	r24, Z
    13be:	88 83       	st	Y, r24
    13c0:	31 96       	adiw	r30, 0x01	; 1
    13c2:	e4 91       	lpm	r30, Z
    13c4:	e9 83       	std	Y+1, r30	; 0x01
    13c6:	fb 01       	movw	r30, r22
    13c8:	32 96       	adiw	r30, 0x02	; 2
    13ca:	e4 91       	lpm	r30, Z
    13cc:	ea 83       	std	Y+2, r30	; 0x02
    13ce:	fb 01       	movw	r30, r22
    13d0:	33 96       	adiw	r30, 0x03	; 3
    13d2:	e4 91       	lpm	r30, Z
    13d4:	eb 83       	std	Y+3, r30	; 0x03
    13d6:	fb 01       	movw	r30, r22
    13d8:	34 96       	adiw	r30, 0x04	; 4
    13da:	e4 91       	lpm	r30, Z
    13dc:	ec 83       	std	Y+4, r30	; 0x04
    13de:	fb 01       	movw	r30, r22
    13e0:	35 96       	adiw	r30, 0x05	; 5
    13e2:	e4 91       	lpm	r30, Z
    13e4:	ed 83       	std	Y+5, r30	; 0x05
    13e6:	fb 01       	movw	r30, r22
    13e8:	36 96       	adiw	r30, 0x06	; 6
    13ea:	e4 91       	lpm	r30, Z
    13ec:	ee 83       	std	Y+6, r30	; 0x06
    13ee:	fb 01       	movw	r30, r22
    13f0:	37 96       	adiw	r30, 0x07	; 7
    13f2:	e4 91       	lpm	r30, Z
    13f4:	ef 83       	std	Y+7, r30	; 0x07
    13f6:	fb 01       	movw	r30, r22
    13f8:	38 96       	adiw	r30, 0x08	; 8
    13fa:	e4 91       	lpm	r30, Z
    13fc:	e8 87       	std	Y+8, r30	; 0x08
    13fe:	fb 01       	movw	r30, r22
    1400:	39 96       	adiw	r30, 0x09	; 9
    1402:	e4 91       	lpm	r30, Z
    1404:	e9 87       	std	Y+9, r30	; 0x09
    1406:	fb 01       	movw	r30, r22
    1408:	3a 96       	adiw	r30, 0x0a	; 10
    140a:	e4 91       	lpm	r30, Z
    140c:	ea 87       	std	Y+10, r30	; 0x0a
    140e:	fb 01       	movw	r30, r22
    1410:	3b 96       	adiw	r30, 0x0b	; 11
    1412:	e4 91       	lpm	r30, Z
    1414:	eb 87       	std	Y+11, r30	; 0x0b
    1416:	fb 01       	movw	r30, r22
    1418:	3c 96       	adiw	r30, 0x0c	; 12
    141a:	e4 91       	lpm	r30, Z
    141c:	ec 87       	std	Y+12, r30	; 0x0c
    141e:	fb 01       	movw	r30, r22
    1420:	3d 96       	adiw	r30, 0x0d	; 13
    1422:	e4 91       	lpm	r30, Z
    1424:	ed 87       	std	Y+13, r30	; 0x0d
    1426:	fb 01       	movw	r30, r22
    1428:	3e 96       	adiw	r30, 0x0e	; 14
    142a:	e4 91       	lpm	r30, Z
    142c:	ee 87       	std	Y+14, r30	; 0x0e
    142e:	fb 01       	movw	r30, r22
    1430:	3f 96       	adiw	r30, 0x0f	; 15
    1432:	e4 91       	lpm	r30, Z
    1434:	ef 87       	std	Y+15, r30	; 0x0f
    1436:	fb 01       	movw	r30, r22
    1438:	70 96       	adiw	r30, 0x10	; 16
    143a:	e4 91       	lpm	r30, Z
    143c:	e8 8b       	std	Y+16, r30	; 0x10
    143e:	61 e1       	ldi	r22, 0x11	; 17
    1440:	c8 01       	movw	r24, r16
    1442:	0e 94 ad 09 	call	0x135a	; 0x135a <u8g2_font_get_word>
    1446:	9a 8b       	std	Y+18, r25	; 0x12
    1448:	89 8b       	std	Y+17, r24	; 0x11
    144a:	63 e1       	ldi	r22, 0x13	; 19
    144c:	c8 01       	movw	r24, r16
    144e:	0e 94 ad 09 	call	0x135a	; 0x135a <u8g2_font_get_word>
    1452:	9c 8b       	std	Y+20, r25	; 0x14
    1454:	8b 8b       	std	Y+19, r24	; 0x13
    1456:	65 e1       	ldi	r22, 0x15	; 21
    1458:	c8 01       	movw	r24, r16
    145a:	0e 94 ad 09 	call	0x135a	; 0x135a <u8g2_font_get_word>
    145e:	9e 8b       	std	Y+22, r25	; 0x16
    1460:	8d 8b       	std	Y+21, r24	; 0x15
    1462:	df 91       	pop	r29
    1464:	cf 91       	pop	r28
    1466:	1f 91       	pop	r17
    1468:	0f 91       	pop	r16
    146a:	08 95       	ret

0000146c <u8g2_font_decode_get_unsigned_bits>:
    146c:	dc 01       	movw	r26, r24
    146e:	18 96       	adiw	r26, 0x08	; 8
    1470:	9c 91       	ld	r25, X
    1472:	18 97       	sbiw	r26, 0x08	; 8
    1474:	ed 91       	ld	r30, X+
    1476:	fc 91       	ld	r31, X
    1478:	11 97       	sbiw	r26, 0x01	; 1
    147a:	24 91       	lpm	r18, Z
    147c:	30 e0       	ldi	r19, 0x00	; 0
    147e:	09 2e       	mov	r0, r25
    1480:	02 c0       	rjmp	.+4      	; 0x1486 <u8g2_font_decode_get_unsigned_bits+0x1a>
    1482:	35 95       	asr	r19
    1484:	27 95       	ror	r18
    1486:	0a 94       	dec	r0
    1488:	e2 f7       	brpl	.-8      	; 0x1482 <u8g2_font_decode_get_unsigned_bits+0x16>
    148a:	89 2f       	mov	r24, r25
    148c:	86 0f       	add	r24, r22
    148e:	88 30       	cpi	r24, 0x08	; 8
    1490:	10 f4       	brcc	.+4      	; 0x1496 <u8g2_font_decode_get_unsigned_bits+0x2a>
    1492:	e2 2f       	mov	r30, r18
    1494:	0f c0       	rjmp	.+30     	; 0x14b4 <u8g2_font_decode_get_unsigned_bits+0x48>
    1496:	31 96       	adiw	r30, 0x01	; 1
    1498:	11 96       	adiw	r26, 0x01	; 1
    149a:	fc 93       	st	X, r31
    149c:	ee 93       	st	-X, r30
    149e:	e4 91       	lpm	r30, Z
    14a0:	f0 e0       	ldi	r31, 0x00	; 0
    14a2:	38 e0       	ldi	r19, 0x08	; 8
    14a4:	39 1b       	sub	r19, r25
    14a6:	02 c0       	rjmp	.+4      	; 0x14ac <u8g2_font_decode_get_unsigned_bits+0x40>
    14a8:	ee 0f       	add	r30, r30
    14aa:	ff 1f       	adc	r31, r31
    14ac:	3a 95       	dec	r19
    14ae:	e2 f7       	brpl	.-8      	; 0x14a8 <u8g2_font_decode_get_unsigned_bits+0x3c>
    14b0:	e2 2b       	or	r30, r18
    14b2:	88 50       	subi	r24, 0x08	; 8
    14b4:	18 96       	adiw	r26, 0x08	; 8
    14b6:	8c 93       	st	X, r24
    14b8:	81 e0       	ldi	r24, 0x01	; 1
    14ba:	90 e0       	ldi	r25, 0x00	; 0
    14bc:	02 c0       	rjmp	.+4      	; 0x14c2 <u8g2_font_decode_get_unsigned_bits+0x56>
    14be:	88 0f       	add	r24, r24
    14c0:	99 1f       	adc	r25, r25
    14c2:	6a 95       	dec	r22
    14c4:	e2 f7       	brpl	.-8      	; 0x14be <u8g2_font_decode_get_unsigned_bits+0x52>
    14c6:	81 50       	subi	r24, 0x01	; 1
    14c8:	8e 23       	and	r24, r30
    14ca:	08 95       	ret

000014cc <u8g2_font_setup_decode>:
    14cc:	0f 93       	push	r16
    14ce:	1f 93       	push	r17
    14d0:	cf 93       	push	r28
    14d2:	df 93       	push	r29
    14d4:	ec 01       	movw	r28, r24
    14d6:	8c 01       	movw	r16, r24
    14d8:	06 5c       	subi	r16, 0xC6	; 198
    14da:	1f 4f       	sbci	r17, 0xFF	; 255
    14dc:	7b af       	std	Y+59, r23	; 0x3b
    14de:	6a af       	std	Y+58, r22	; 0x3a
    14e0:	fc 01       	movw	r30, r24
    14e2:	ee 5b       	subi	r30, 0xBE	; 190
    14e4:	ff 4f       	sbci	r31, 0xFF	; 255
    14e6:	10 82       	st	Z, r1
    14e8:	39 96       	adiw	r30, 0x09	; 9
    14ea:	60 81       	ld	r22, Z
    14ec:	c8 01       	movw	r24, r16
    14ee:	0e 94 36 0a 	call	0x146c	; 0x146c <u8g2_font_decode_get_unsigned_bits>
    14f2:	fe 01       	movw	r30, r28
    14f4:	e0 5c       	subi	r30, 0xC0	; 192
    14f6:	ff 4f       	sbci	r31, 0xFF	; 255
    14f8:	80 83       	st	Z, r24
    14fa:	3c 96       	adiw	r30, 0x0c	; 12
    14fc:	60 81       	ld	r22, Z
    14fe:	c8 01       	movw	r24, r16
    1500:	0e 94 36 0a 	call	0x146c	; 0x146c <u8g2_font_decode_get_unsigned_bits>
    1504:	fe 01       	movw	r30, r28
    1506:	ef 5b       	subi	r30, 0xBF	; 191
    1508:	ff 4f       	sbci	r31, 0xFF	; 255
    150a:	80 83       	st	Z, r24
    150c:	b3 96       	adiw	r30, 0x23	; 35
    150e:	80 81       	ld	r24, Z
    1510:	b0 97       	sbiw	r30, 0x20	; 32
    1512:	80 83       	st	Z, r24
    1514:	cb 5b       	subi	r28, 0xBB	; 187
    1516:	df 4f       	sbci	r29, 0xFF	; 255
    1518:	91 e0       	ldi	r25, 0x01	; 1
    151a:	81 11       	cpse	r24, r1
    151c:	90 e0       	ldi	r25, 0x00	; 0
    151e:	98 83       	st	Y, r25
    1520:	df 91       	pop	r29
    1522:	cf 91       	pop	r28
    1524:	1f 91       	pop	r17
    1526:	0f 91       	pop	r16
    1528:	08 95       	ret

0000152a <u8g2_font_decode_get_signed_bits>:
    152a:	cf 93       	push	r28
    152c:	c6 2f       	mov	r28, r22
    152e:	0e 94 36 0a 	call	0x146c	; 0x146c <u8g2_font_decode_get_unsigned_bits>
    1532:	c1 50       	subi	r28, 0x01	; 1
    1534:	21 e0       	ldi	r18, 0x01	; 1
    1536:	30 e0       	ldi	r19, 0x00	; 0
    1538:	02 c0       	rjmp	.+4      	; 0x153e <u8g2_font_decode_get_signed_bits+0x14>
    153a:	22 0f       	add	r18, r18
    153c:	33 1f       	adc	r19, r19
    153e:	ca 95       	dec	r28
    1540:	e2 f7       	brpl	.-8      	; 0x153a <u8g2_font_decode_get_signed_bits+0x10>
    1542:	82 1b       	sub	r24, r18
    1544:	cf 91       	pop	r28
    1546:	08 95       	ret

00001548 <u8g2_font_decode_len>:
    1548:	2f 92       	push	r2
    154a:	3f 92       	push	r3
    154c:	4f 92       	push	r4
    154e:	5f 92       	push	r5
    1550:	6f 92       	push	r6
    1552:	7f 92       	push	r7
    1554:	8f 92       	push	r8
    1556:	9f 92       	push	r9
    1558:	af 92       	push	r10
    155a:	bf 92       	push	r11
    155c:	cf 92       	push	r12
    155e:	df 92       	push	r13
    1560:	ef 92       	push	r14
    1562:	ff 92       	push	r15
    1564:	0f 93       	push	r16
    1566:	1f 93       	push	r17
    1568:	cf 93       	push	r28
    156a:	df 93       	push	r29
    156c:	cd b7       	in	r28, 0x3d	; 61
    156e:	de b7       	in	r29, 0x3e	; 62
    1570:	28 97       	sbiw	r28, 0x08	; 8
    1572:	0f b6       	in	r0, 0x3f	; 63
    1574:	f8 94       	cli
    1576:	de bf       	out	0x3e, r29	; 62
    1578:	0f be       	out	0x3f, r0	; 63
    157a:	cd bf       	out	0x3d, r28	; 61
    157c:	7c 01       	movw	r14, r24
    157e:	68 87       	std	Y+8, r22	; 0x08
    1580:	34 2e       	mov	r3, r20
    1582:	fc 01       	movw	r30, r24
    1584:	76 ac       	ldd	r7, Z+62	; 0x3e
    1586:	17 ad       	ldd	r17, Z+63	; 0x3f
    1588:	5c 01       	movw	r10, r24
    158a:	f0 e4       	ldi	r31, 0x40	; 64
    158c:	af 0e       	add	r10, r31
    158e:	b1 1c       	adc	r11, r1
    1590:	6c 01       	movw	r12, r24
    1592:	86 e4       	ldi	r24, 0x46	; 70
    1594:	c8 0e       	add	r12, r24
    1596:	d1 1c       	adc	r13, r1
    1598:	47 01       	movw	r8, r14
    159a:	93 e4       	ldi	r25, 0x43	; 67
    159c:	89 0e       	add	r8, r25
    159e:	91 1c       	adc	r9, r1
    15a0:	f7 01       	movw	r30, r14
    15a2:	ec 59       	subi	r30, 0x9C	; 156
    15a4:	ff 4f       	sbci	r31, 0xFF	; 255
    15a6:	fa 83       	std	Y+2, r31	; 0x02
    15a8:	e9 83       	std	Y+1, r30	; 0x01
    15aa:	c7 01       	movw	r24, r14
    15ac:	8b 5b       	subi	r24, 0xBB	; 187
    15ae:	9f 4f       	sbci	r25, 0xFF	; 255
    15b0:	9e 83       	std	Y+6, r25	; 0x06
    15b2:	8d 83       	std	Y+5, r24	; 0x05
    15b4:	b0 97       	sbiw	r30, 0x20	; 32
    15b6:	fc 83       	std	Y+4, r31	; 0x04
    15b8:	eb 83       	std	Y+3, r30	; 0x03
    15ba:	f5 01       	movw	r30, r10
    15bc:	f0 81       	ld	r31, Z
    15be:	f7 19       	sub	r31, r7
    15c0:	ff 83       	std	Y+7, r31	; 0x07
    15c2:	58 84       	ldd	r5, Y+8	; 0x08
    15c4:	f5 15       	cp	r31, r5
    15c6:	08 f4       	brcc	.+2      	; 0x15ca <u8g2_font_decode_len+0x82>
    15c8:	5f 2e       	mov	r5, r31
    15ca:	f7 01       	movw	r30, r14
    15cc:	65 ac       	ldd	r6, Z+61	; 0x3d
    15ce:	f6 01       	movw	r30, r12
    15d0:	00 81       	ld	r16, Z
    15d2:	21 2e       	mov	r2, r17
    15d4:	20 2f       	mov	r18, r16
    15d6:	41 2f       	mov	r20, r17
    15d8:	67 2d       	mov	r22, r7
    15da:	f7 01       	movw	r30, r14
    15dc:	84 ad       	ldd	r24, Z+60	; 0x3c
    15de:	0e 94 c7 09 	call	0x138e	; 0x138e <u8g2_add_vector_x>
    15e2:	48 2e       	mov	r4, r24
    15e4:	20 2f       	mov	r18, r16
    15e6:	41 2f       	mov	r20, r17
    15e8:	67 2d       	mov	r22, r7
    15ea:	86 2d       	mov	r24, r6
    15ec:	0e 94 b9 09 	call	0x1372	; 0x1372 <u8g2_add_vector_y>
    15f0:	33 20       	and	r3, r3
    15f2:	69 f0       	breq	.+26     	; 0x160e <u8g2_font_decode_len+0xc6>
    15f4:	eb 81       	ldd	r30, Y+3	; 0x03
    15f6:	fc 81       	ldd	r31, Y+4	; 0x04
    15f8:	90 81       	ld	r25, Z
    15fa:	e9 81       	ldd	r30, Y+1	; 0x01
    15fc:	fa 81       	ldd	r31, Y+2	; 0x02
    15fe:	90 83       	st	Z, r25
    1600:	25 2d       	mov	r18, r5
    1602:	48 2f       	mov	r20, r24
    1604:	64 2d       	mov	r22, r4
    1606:	c7 01       	movw	r24, r14
    1608:	0e 94 8c 0d 	call	0x1b18	; 0x1b18 <u8g2_DrawHVLine>
    160c:	10 c0       	rjmp	.+32     	; 0x162e <u8g2_font_decode_len+0xe6>
    160e:	f4 01       	movw	r30, r8
    1610:	90 81       	ld	r25, Z
    1612:	91 11       	cpse	r25, r1
    1614:	0c c0       	rjmp	.+24     	; 0x162e <u8g2_font_decode_len+0xe6>
    1616:	ed 81       	ldd	r30, Y+5	; 0x05
    1618:	fe 81       	ldd	r31, Y+6	; 0x06
    161a:	90 81       	ld	r25, Z
    161c:	e9 81       	ldd	r30, Y+1	; 0x01
    161e:	fa 81       	ldd	r31, Y+2	; 0x02
    1620:	90 83       	st	Z, r25
    1622:	25 2d       	mov	r18, r5
    1624:	48 2f       	mov	r20, r24
    1626:	64 2d       	mov	r22, r4
    1628:	c7 01       	movw	r24, r14
    162a:	0e 94 8c 0d 	call	0x1b18	; 0x1b18 <u8g2_DrawHVLine>
    162e:	f8 85       	ldd	r31, Y+8	; 0x08
    1630:	8f 81       	ldd	r24, Y+7	; 0x07
    1632:	f8 17       	cp	r31, r24
    1634:	28 f0       	brcs	.+10     	; 0x1640 <u8g2_font_decode_len+0xf8>
    1636:	f8 1b       	sub	r31, r24
    1638:	f8 87       	std	Y+8, r31	; 0x08
    163a:	1f 5f       	subi	r17, 0xFF	; 255
    163c:	71 2c       	mov	r7, r1
    163e:	bd cf       	rjmp	.-134    	; 0x15ba <u8g2_font_decode_len+0x72>
    1640:	88 85       	ldd	r24, Y+8	; 0x08
    1642:	87 0d       	add	r24, r7
    1644:	f7 01       	movw	r30, r14
    1646:	86 af       	std	Z+62, r24	; 0x3e
    1648:	27 ae       	std	Z+63, r2	; 0x3f
    164a:	28 96       	adiw	r28, 0x08	; 8
    164c:	0f b6       	in	r0, 0x3f	; 63
    164e:	f8 94       	cli
    1650:	de bf       	out	0x3e, r29	; 62
    1652:	0f be       	out	0x3f, r0	; 63
    1654:	cd bf       	out	0x3d, r28	; 61
    1656:	df 91       	pop	r29
    1658:	cf 91       	pop	r28
    165a:	1f 91       	pop	r17
    165c:	0f 91       	pop	r16
    165e:	ff 90       	pop	r15
    1660:	ef 90       	pop	r14
    1662:	df 90       	pop	r13
    1664:	cf 90       	pop	r12
    1666:	bf 90       	pop	r11
    1668:	af 90       	pop	r10
    166a:	9f 90       	pop	r9
    166c:	8f 90       	pop	r8
    166e:	7f 90       	pop	r7
    1670:	6f 90       	pop	r6
    1672:	5f 90       	pop	r5
    1674:	4f 90       	pop	r4
    1676:	3f 90       	pop	r3
    1678:	2f 90       	pop	r2
    167a:	08 95       	ret

0000167c <u8g2_font_decode_glyph>:
    167c:	8f 92       	push	r8
    167e:	9f 92       	push	r9
    1680:	af 92       	push	r10
    1682:	bf 92       	push	r11
    1684:	cf 92       	push	r12
    1686:	df 92       	push	r13
    1688:	ef 92       	push	r14
    168a:	ff 92       	push	r15
    168c:	0f 93       	push	r16
    168e:	1f 93       	push	r17
    1690:	cf 93       	push	r28
    1692:	df 93       	push	r29
    1694:	ec 01       	movw	r28, r24
    1696:	7c 01       	movw	r14, r24
    1698:	8a e3       	ldi	r24, 0x3A	; 58
    169a:	e8 0e       	add	r14, r24
    169c:	f1 1c       	adc	r15, r1
    169e:	ce 01       	movw	r24, r28
    16a0:	0e 94 66 0a 	call	0x14cc	; 0x14cc <u8g2_font_setup_decode>
    16a4:	fe 01       	movw	r30, r28
    16a6:	ef 5b       	subi	r30, 0xBF	; 191
    16a8:	ff 4f       	sbci	r31, 0xFF	; 255
    16aa:	90 80       	ld	r9, Z
    16ac:	3c 96       	adiw	r30, 0x0c	; 12
    16ae:	60 81       	ld	r22, Z
    16b0:	c7 01       	movw	r24, r14
    16b2:	0e 94 95 0a 	call	0x152a	; 0x152a <u8g2_font_decode_get_signed_bits>
    16b6:	b8 2e       	mov	r11, r24
    16b8:	fe 01       	movw	r30, r28
    16ba:	e2 5b       	subi	r30, 0xB2	; 178
    16bc:	ff 4f       	sbci	r31, 0xFF	; 255
    16be:	60 81       	ld	r22, Z
    16c0:	c7 01       	movw	r24, r14
    16c2:	0e 94 95 0a 	call	0x152a	; 0x152a <u8g2_font_decode_get_signed_bits>
    16c6:	18 2f       	mov	r17, r24
    16c8:	fe 01       	movw	r30, r28
    16ca:	e1 5b       	subi	r30, 0xB1	; 177
    16cc:	ff 4f       	sbci	r31, 0xFF	; 255
    16ce:	60 81       	ld	r22, Z
    16d0:	c7 01       	movw	r24, r14
    16d2:	0e 94 95 0a 	call	0x152a	; 0x152a <u8g2_font_decode_get_signed_bits>
    16d6:	88 2e       	mov	r8, r24
    16d8:	fe 01       	movw	r30, r28
    16da:	e0 5c       	subi	r30, 0xC0	; 192
    16dc:	ff 4f       	sbci	r31, 0xFF	; 255
    16de:	d0 80       	ld	r13, Z
    16e0:	1d 14       	cp	r1, r13
    16e2:	0c f0       	brlt	.+2      	; 0x16e6 <u8g2_font_decode_glyph+0x6a>
    16e4:	77 c0       	rjmp	.+238    	; 0x17d4 <u8g2_font_decode_glyph+0x158>
    16e6:	36 96       	adiw	r30, 0x06	; 6
    16e8:	00 81       	ld	r16, Z
    16ea:	19 0d       	add	r17, r9
    16ec:	11 95       	neg	r17
    16ee:	20 2f       	mov	r18, r16
    16f0:	41 2f       	mov	r20, r17
    16f2:	6b 2d       	mov	r22, r11
    16f4:	8c ad       	ldd	r24, Y+60	; 0x3c
    16f6:	0e 94 c7 09 	call	0x138e	; 0x138e <u8g2_add_vector_x>
    16fa:	c8 2e       	mov	r12, r24
    16fc:	8c af       	std	Y+60, r24	; 0x3c
    16fe:	20 2f       	mov	r18, r16
    1700:	41 2f       	mov	r20, r17
    1702:	6b 2d       	mov	r22, r11
    1704:	8d ad       	ldd	r24, Y+61	; 0x3d
    1706:	0e 94 b9 09 	call	0x1372	; 0x1372 <u8g2_add_vector_y>
    170a:	8d af       	std	Y+61, r24	; 0x3d
    170c:	01 30       	cpi	r16, 0x01	; 1
    170e:	59 f0       	breq	.+22     	; 0x1726 <u8g2_font_decode_glyph+0xaa>
    1710:	28 f0       	brcs	.+10     	; 0x171c <u8g2_font_decode_glyph+0xa0>
    1712:	02 30       	cpi	r16, 0x02	; 2
    1714:	91 f0       	breq	.+36     	; 0x173a <u8g2_font_decode_glyph+0xbe>
    1716:	03 30       	cpi	r16, 0x03	; 3
    1718:	d9 f0       	breq	.+54     	; 0x1750 <u8g2_font_decode_glyph+0xd4>
    171a:	23 c0       	rjmp	.+70     	; 0x1762 <u8g2_font_decode_glyph+0xe6>
    171c:	2d 2d       	mov	r18, r13
    171e:	2c 0d       	add	r18, r12
    1720:	09 2d       	mov	r16, r9
    1722:	08 0f       	add	r16, r24
    1724:	20 c0       	rjmp	.+64     	; 0x1766 <u8g2_font_decode_glyph+0xea>
    1726:	9c 2d       	mov	r25, r12
    1728:	99 19       	sub	r25, r9
    172a:	21 e0       	ldi	r18, 0x01	; 1
    172c:	2c 0d       	add	r18, r12
    172e:	0d 2d       	mov	r16, r13
    1730:	08 0f       	add	r16, r24
    1732:	cc 24       	eor	r12, r12
    1734:	c3 94       	inc	r12
    1736:	c9 0e       	add	r12, r25
    1738:	16 c0       	rjmp	.+44     	; 0x1766 <u8g2_font_decode_glyph+0xea>
    173a:	91 e0       	ldi	r25, 0x01	; 1
    173c:	39 2f       	mov	r19, r25
    173e:	3d 19       	sub	r19, r13
    1740:	21 e0       	ldi	r18, 0x01	; 1
    1742:	2c 0d       	add	r18, r12
    1744:	99 19       	sub	r25, r9
    1746:	01 e0       	ldi	r16, 0x01	; 1
    1748:	08 0f       	add	r16, r24
    174a:	89 0f       	add	r24, r25
    174c:	c3 0e       	add	r12, r19
    174e:	0b c0       	rjmp	.+22     	; 0x1766 <u8g2_font_decode_glyph+0xea>
    1750:	29 2d       	mov	r18, r9
    1752:	2c 0d       	add	r18, r12
    1754:	98 2f       	mov	r25, r24
    1756:	9d 19       	sub	r25, r13
    1758:	01 e0       	ldi	r16, 0x01	; 1
    175a:	08 0f       	add	r16, r24
    175c:	81 e0       	ldi	r24, 0x01	; 1
    175e:	89 0f       	add	r24, r25
    1760:	02 c0       	rjmp	.+4      	; 0x1766 <u8g2_font_decode_glyph+0xea>
    1762:	08 2f       	mov	r16, r24
    1764:	2c 2d       	mov	r18, r12
    1766:	48 2f       	mov	r20, r24
    1768:	6c 2d       	mov	r22, r12
    176a:	ce 01       	movw	r24, r28
    176c:	0e 94 0f 0e 	call	0x1c1e	; 0x1c1e <u8g2_IsIntersection>
    1770:	88 23       	and	r24, r24
    1772:	81 f1       	breq	.+96     	; 0x17d4 <u8g2_font_decode_glyph+0x158>
    1774:	1e ae       	std	Y+62, r1	; 0x3e
    1776:	1f ae       	std	Y+63, r1	; 0x3f
    1778:	5e 01       	movw	r10, r28
    177a:	e9 e4       	ldi	r30, 0x49	; 73
    177c:	ae 0e       	add	r10, r30
    177e:	b1 1c       	adc	r11, r1
    1780:	6e 01       	movw	r12, r28
    1782:	fa e4       	ldi	r31, 0x4A	; 74
    1784:	cf 0e       	add	r12, r31
    1786:	d1 1c       	adc	r13, r1
    1788:	f5 01       	movw	r30, r10
    178a:	60 81       	ld	r22, Z
    178c:	c7 01       	movw	r24, r14
    178e:	0e 94 36 0a 	call	0x146c	; 0x146c <u8g2_font_decode_get_unsigned_bits>
    1792:	08 2f       	mov	r16, r24
    1794:	f6 01       	movw	r30, r12
    1796:	60 81       	ld	r22, Z
    1798:	c7 01       	movw	r24, r14
    179a:	0e 94 36 0a 	call	0x146c	; 0x146c <u8g2_font_decode_get_unsigned_bits>
    179e:	18 2f       	mov	r17, r24
    17a0:	40 e0       	ldi	r20, 0x00	; 0
    17a2:	60 2f       	mov	r22, r16
    17a4:	ce 01       	movw	r24, r28
    17a6:	0e 94 a4 0a 	call	0x1548	; 0x1548 <u8g2_font_decode_len>
    17aa:	41 e0       	ldi	r20, 0x01	; 1
    17ac:	61 2f       	mov	r22, r17
    17ae:	ce 01       	movw	r24, r28
    17b0:	0e 94 a4 0a 	call	0x1548	; 0x1548 <u8g2_font_decode_len>
    17b4:	61 e0       	ldi	r22, 0x01	; 1
    17b6:	c7 01       	movw	r24, r14
    17b8:	0e 94 36 0a 	call	0x146c	; 0x146c <u8g2_font_decode_get_unsigned_bits>
    17bc:	81 11       	cpse	r24, r1
    17be:	f0 cf       	rjmp	.-32     	; 0x17a0 <u8g2_font_decode_glyph+0x124>
    17c0:	8f ad       	ldd	r24, Y+63	; 0x3f
    17c2:	89 15       	cp	r24, r9
    17c4:	0c f3       	brlt	.-62     	; 0x1788 <u8g2_font_decode_glyph+0x10c>
    17c6:	fe 01       	movw	r30, r28
    17c8:	ec 59       	subi	r30, 0x9C	; 156
    17ca:	ff 4f       	sbci	r31, 0xFF	; 255
    17cc:	cc 5b       	subi	r28, 0xBC	; 188
    17ce:	df 4f       	sbci	r29, 0xFF	; 255
    17d0:	88 81       	ld	r24, Y
    17d2:	80 83       	st	Z, r24
    17d4:	88 2d       	mov	r24, r8
    17d6:	df 91       	pop	r29
    17d8:	cf 91       	pop	r28
    17da:	1f 91       	pop	r17
    17dc:	0f 91       	pop	r16
    17de:	ff 90       	pop	r15
    17e0:	ef 90       	pop	r14
    17e2:	df 90       	pop	r13
    17e4:	cf 90       	pop	r12
    17e6:	bf 90       	pop	r11
    17e8:	af 90       	pop	r10
    17ea:	9f 90       	pop	r9
    17ec:	8f 90       	pop	r8
    17ee:	08 95       	ret

000017f0 <u8g2_font_get_glyph_data>:
    17f0:	ef 92       	push	r14
    17f2:	ff 92       	push	r15
    17f4:	0f 93       	push	r16
    17f6:	1f 93       	push	r17
    17f8:	cf 93       	push	r28
    17fa:	df 93       	push	r29
    17fc:	fc 01       	movw	r30, r24
    17fe:	c6 a9       	ldd	r28, Z+54	; 0x36
    1800:	d7 a9       	ldd	r29, Z+55	; 0x37
    1802:	67 96       	adiw	r28, 0x17	; 23
    1804:	6f 3f       	cpi	r22, 0xFF	; 255
    1806:	71 05       	cpc	r23, r1
    1808:	11 f0       	breq	.+4      	; 0x180e <u8g2_font_get_glyph_data+0x1e>
    180a:	08 f0       	brcs	.+2      	; 0x180e <u8g2_font_get_glyph_data+0x1e>
    180c:	36 c0       	rjmp	.+108    	; 0x187a <u8g2_font_get_glyph_data+0x8a>
    180e:	61 36       	cpi	r22, 0x61	; 97
    1810:	71 05       	cpc	r23, r1
    1812:	38 f0       	brcs	.+14     	; 0x1822 <u8g2_font_get_glyph_data+0x32>
    1814:	e6 5a       	subi	r30, 0xA6	; 166
    1816:	ff 4f       	sbci	r31, 0xFF	; 255
    1818:	80 81       	ld	r24, Z
    181a:	91 81       	ldd	r25, Z+1	; 0x01
    181c:	c8 0f       	add	r28, r24
    181e:	d9 1f       	adc	r29, r25
    1820:	0a c0       	rjmp	.+20     	; 0x1836 <u8g2_font_get_glyph_data+0x46>
    1822:	61 34       	cpi	r22, 0x41	; 65
    1824:	71 05       	cpc	r23, r1
    1826:	38 f0       	brcs	.+14     	; 0x1836 <u8g2_font_get_glyph_data+0x46>
    1828:	fc 01       	movw	r30, r24
    182a:	e8 5a       	subi	r30, 0xA8	; 168
    182c:	ff 4f       	sbci	r31, 0xFF	; 255
    182e:	80 81       	ld	r24, Z
    1830:	91 81       	ldd	r25, Z+1	; 0x01
    1832:	c8 0f       	add	r28, r24
    1834:	d9 1f       	adc	r29, r25
    1836:	ce 01       	movw	r24, r28
    1838:	01 96       	adiw	r24, 0x01	; 1
    183a:	fc 01       	movw	r30, r24
    183c:	24 91       	lpm	r18, Z
    183e:	22 23       	and	r18, r18
    1840:	09 f4       	brne	.+2      	; 0x1844 <u8g2_font_get_glyph_data+0x54>
    1842:	5a c0       	rjmp	.+180    	; 0x18f8 <u8g2_font_get_glyph_data+0x108>
    1844:	fe 01       	movw	r30, r28
    1846:	24 91       	lpm	r18, Z
    1848:	30 e0       	ldi	r19, 0x00	; 0
    184a:	62 17       	cp	r22, r18
    184c:	73 07       	cpc	r23, r19
    184e:	51 f4       	brne	.+20     	; 0x1864 <u8g2_font_get_glyph_data+0x74>
    1850:	06 c0       	rjmp	.+12     	; 0x185e <u8g2_font_get_glyph_data+0x6e>
    1852:	fe 01       	movw	r30, r28
    1854:	24 91       	lpm	r18, Z
    1856:	30 e0       	ldi	r19, 0x00	; 0
    1858:	62 17       	cp	r22, r18
    185a:	73 07       	cpc	r23, r19
    185c:	19 f4       	brne	.+6      	; 0x1864 <u8g2_font_get_glyph_data+0x74>
    185e:	ce 01       	movw	r24, r28
    1860:	02 96       	adiw	r24, 0x02	; 2
    1862:	52 c0       	rjmp	.+164    	; 0x1908 <u8g2_font_get_glyph_data+0x118>
    1864:	fc 01       	movw	r30, r24
    1866:	84 91       	lpm	r24, Z
    1868:	c8 0f       	add	r28, r24
    186a:	d1 1d       	adc	r29, r1
    186c:	ce 01       	movw	r24, r28
    186e:	01 96       	adiw	r24, 0x01	; 1
    1870:	fc 01       	movw	r30, r24
    1872:	24 91       	lpm	r18, Z
    1874:	21 11       	cpse	r18, r1
    1876:	ed cf       	rjmp	.-38     	; 0x1852 <u8g2_font_get_glyph_data+0x62>
    1878:	42 c0       	rjmp	.+132    	; 0x18fe <u8g2_font_get_glyph_data+0x10e>
    187a:	8b 01       	movw	r16, r22
    187c:	fc 01       	movw	r30, r24
    187e:	e4 5a       	subi	r30, 0xA4	; 164
    1880:	ff 4f       	sbci	r31, 0xFF	; 255
    1882:	80 81       	ld	r24, Z
    1884:	91 81       	ldd	r25, Z+1	; 0x01
    1886:	c8 0f       	add	r28, r24
    1888:	d9 1f       	adc	r29, r25
    188a:	7e 01       	movw	r14, r28
    188c:	60 e0       	ldi	r22, 0x00	; 0
    188e:	c7 01       	movw	r24, r14
    1890:	0e 94 ad 09 	call	0x135a	; 0x135a <u8g2_font_get_word>
    1894:	c8 0f       	add	r28, r24
    1896:	d9 1f       	adc	r29, r25
    1898:	62 e0       	ldi	r22, 0x02	; 2
    189a:	c7 01       	movw	r24, r14
    189c:	0e 94 ad 09 	call	0x135a	; 0x135a <u8g2_font_get_word>
    18a0:	f4 e0       	ldi	r31, 0x04	; 4
    18a2:	ef 0e       	add	r14, r31
    18a4:	f1 1c       	adc	r15, r1
    18a6:	80 17       	cp	r24, r16
    18a8:	91 07       	cpc	r25, r17
    18aa:	80 f3       	brcs	.-32     	; 0x188c <u8g2_font_get_glyph_data+0x9c>
    18ac:	fe 01       	movw	r30, r28
    18ae:	84 91       	lpm	r24, Z
    18b0:	90 e0       	ldi	r25, 0x00	; 0
    18b2:	98 2f       	mov	r25, r24
    18b4:	88 27       	eor	r24, r24
    18b6:	31 96       	adiw	r30, 0x01	; 1
    18b8:	e4 91       	lpm	r30, Z
    18ba:	8e 2b       	or	r24, r30
    18bc:	00 97       	sbiw	r24, 0x00	; 0
    18be:	11 f1       	breq	.+68     	; 0x1904 <u8g2_font_get_glyph_data+0x114>
    18c0:	08 17       	cp	r16, r24
    18c2:	19 07       	cpc	r17, r25
    18c4:	39 f4       	brne	.+14     	; 0x18d4 <u8g2_font_get_glyph_data+0xe4>
    18c6:	03 c0       	rjmp	.+6      	; 0x18ce <u8g2_font_get_glyph_data+0xde>
    18c8:	08 17       	cp	r16, r24
    18ca:	19 07       	cpc	r17, r25
    18cc:	19 f4       	brne	.+6      	; 0x18d4 <u8g2_font_get_glyph_data+0xe4>
    18ce:	ce 01       	movw	r24, r28
    18d0:	03 96       	adiw	r24, 0x03	; 3
    18d2:	1a c0       	rjmp	.+52     	; 0x1908 <u8g2_font_get_glyph_data+0x118>
    18d4:	fe 01       	movw	r30, r28
    18d6:	32 96       	adiw	r30, 0x02	; 2
    18d8:	e4 91       	lpm	r30, Z
    18da:	ce 0f       	add	r28, r30
    18dc:	d1 1d       	adc	r29, r1
    18de:	fe 01       	movw	r30, r28
    18e0:	84 91       	lpm	r24, Z
    18e2:	90 e0       	ldi	r25, 0x00	; 0
    18e4:	98 2f       	mov	r25, r24
    18e6:	88 27       	eor	r24, r24
    18e8:	31 96       	adiw	r30, 0x01	; 1
    18ea:	e4 91       	lpm	r30, Z
    18ec:	8e 2b       	or	r24, r30
    18ee:	00 97       	sbiw	r24, 0x00	; 0
    18f0:	59 f7       	brne	.-42     	; 0x18c8 <u8g2_font_get_glyph_data+0xd8>
    18f2:	80 e0       	ldi	r24, 0x00	; 0
    18f4:	90 e0       	ldi	r25, 0x00	; 0
    18f6:	08 c0       	rjmp	.+16     	; 0x1908 <u8g2_font_get_glyph_data+0x118>
    18f8:	80 e0       	ldi	r24, 0x00	; 0
    18fa:	90 e0       	ldi	r25, 0x00	; 0
    18fc:	05 c0       	rjmp	.+10     	; 0x1908 <u8g2_font_get_glyph_data+0x118>
    18fe:	80 e0       	ldi	r24, 0x00	; 0
    1900:	90 e0       	ldi	r25, 0x00	; 0
    1902:	02 c0       	rjmp	.+4      	; 0x1908 <u8g2_font_get_glyph_data+0x118>
    1904:	80 e0       	ldi	r24, 0x00	; 0
    1906:	90 e0       	ldi	r25, 0x00	; 0
    1908:	df 91       	pop	r29
    190a:	cf 91       	pop	r28
    190c:	1f 91       	pop	r17
    190e:	0f 91       	pop	r16
    1910:	ff 90       	pop	r15
    1912:	ef 90       	pop	r14
    1914:	08 95       	ret

00001916 <u8g2_DrawGlyph>:
    1916:	ef 92       	push	r14
    1918:	ff 92       	push	r15
    191a:	0f 93       	push	r16
    191c:	1f 93       	push	r17
    191e:	cf 93       	push	r28
    1920:	df 93       	push	r29
    1922:	ec 01       	movw	r28, r24
    1924:	06 2f       	mov	r16, r22
    1926:	14 2f       	mov	r17, r20
    1928:	79 01       	movw	r14, r18
    192a:	fc 01       	movw	r30, r24
    192c:	ea 5b       	subi	r30, 0xBA	; 186
    192e:	ff 4f       	sbci	r31, 0xFF	; 255
    1930:	80 81       	ld	r24, Z
    1932:	81 30       	cpi	r24, 0x01	; 1
    1934:	61 f0       	breq	.+24     	; 0x194e <u8g2_DrawGlyph+0x38>
    1936:	28 f0       	brcs	.+10     	; 0x1942 <u8g2_DrawGlyph+0x2c>
    1938:	82 30       	cpi	r24, 0x02	; 2
    193a:	79 f0       	breq	.+30     	; 0x195a <u8g2_DrawGlyph+0x44>
    193c:	83 30       	cpi	r24, 0x03	; 3
    193e:	99 f0       	breq	.+38     	; 0x1966 <u8g2_DrawGlyph+0x50>
    1940:	17 c0       	rjmp	.+46     	; 0x1970 <u8g2_DrawGlyph+0x5a>
    1942:	e8 ad       	ldd	r30, Y+56	; 0x38
    1944:	f9 ad       	ldd	r31, Y+57	; 0x39
    1946:	ce 01       	movw	r24, r28
    1948:	09 95       	icall
    194a:	18 0f       	add	r17, r24
    194c:	11 c0       	rjmp	.+34     	; 0x1970 <u8g2_DrawGlyph+0x5a>
    194e:	e8 ad       	ldd	r30, Y+56	; 0x38
    1950:	f9 ad       	ldd	r31, Y+57	; 0x39
    1952:	ce 01       	movw	r24, r28
    1954:	09 95       	icall
    1956:	08 1b       	sub	r16, r24
    1958:	0b c0       	rjmp	.+22     	; 0x1970 <u8g2_DrawGlyph+0x5a>
    195a:	e8 ad       	ldd	r30, Y+56	; 0x38
    195c:	f9 ad       	ldd	r31, Y+57	; 0x39
    195e:	ce 01       	movw	r24, r28
    1960:	09 95       	icall
    1962:	18 1b       	sub	r17, r24
    1964:	05 c0       	rjmp	.+10     	; 0x1970 <u8g2_DrawGlyph+0x5a>
    1966:	e8 ad       	ldd	r30, Y+56	; 0x38
    1968:	f9 ad       	ldd	r31, Y+57	; 0x39
    196a:	ce 01       	movw	r24, r28
    196c:	09 95       	icall
    196e:	08 0f       	add	r16, r24
    1970:	0c af       	std	Y+60, r16	; 0x3c
    1972:	1d af       	std	Y+61, r17	; 0x3d
    1974:	b7 01       	movw	r22, r14
    1976:	ce 01       	movw	r24, r28
    1978:	0e 94 f8 0b 	call	0x17f0	; 0x17f0 <u8g2_font_get_glyph_data>
    197c:	00 97       	sbiw	r24, 0x00	; 0
    197e:	29 f0       	breq	.+10     	; 0x198a <u8g2_DrawGlyph+0x74>
    1980:	bc 01       	movw	r22, r24
    1982:	ce 01       	movw	r24, r28
    1984:	0e 94 3e 0b 	call	0x167c	; 0x167c <u8g2_font_decode_glyph>
    1988:	01 c0       	rjmp	.+2      	; 0x198c <u8g2_DrawGlyph+0x76>
    198a:	80 e0       	ldi	r24, 0x00	; 0
    198c:	df 91       	pop	r29
    198e:	cf 91       	pop	r28
    1990:	1f 91       	pop	r17
    1992:	0f 91       	pop	r16
    1994:	ff 90       	pop	r15
    1996:	ef 90       	pop	r14
    1998:	08 95       	ret

0000199a <u8g2_draw_string>:
    199a:	bf 92       	push	r11
    199c:	cf 92       	push	r12
    199e:	df 92       	push	r13
    19a0:	ef 92       	push	r14
    19a2:	ff 92       	push	r15
    19a4:	0f 93       	push	r16
    19a6:	1f 93       	push	r17
    19a8:	cf 93       	push	r28
    19aa:	df 93       	push	r29
    19ac:	ec 01       	movw	r28, r24
    19ae:	b6 2e       	mov	r11, r22
    19b0:	c4 2e       	mov	r12, r20
    19b2:	e2 2e       	mov	r14, r18
    19b4:	f3 2e       	mov	r15, r19
    19b6:	0e 94 5b 0f 	call	0x1eb6	; 0x1eb6 <u8x8_utf8_init>
    19ba:	0e 2d       	mov	r16, r14
    19bc:	1f 2d       	mov	r17, r15
    19be:	d1 2c       	mov	r13, r1
    19c0:	7e 01       	movw	r14, r28
    19c2:	26 e4       	ldi	r18, 0x46	; 70
    19c4:	e2 0e       	add	r14, r18
    19c6:	f1 1c       	adc	r15, r1
    19c8:	f8 01       	movw	r30, r16
    19ca:	61 91       	ld	r22, Z+
    19cc:	8f 01       	movw	r16, r30
    19ce:	ea 81       	ldd	r30, Y+2	; 0x02
    19d0:	fb 81       	ldd	r31, Y+3	; 0x03
    19d2:	ce 01       	movw	r24, r28
    19d4:	09 95       	icall
    19d6:	8f 3f       	cpi	r24, 0xFF	; 255
    19d8:	ff ef       	ldi	r31, 0xFF	; 255
    19da:	9f 07       	cpc	r25, r31
    19dc:	e9 f0       	breq	.+58     	; 0x1a18 <u8g2_draw_string+0x7e>
    19de:	8e 3f       	cpi	r24, 0xFE	; 254
    19e0:	2f ef       	ldi	r18, 0xFF	; 255
    19e2:	92 07       	cpc	r25, r18
    19e4:	89 f3       	breq	.-30     	; 0x19c8 <u8g2_draw_string+0x2e>
    19e6:	9c 01       	movw	r18, r24
    19e8:	4c 2d       	mov	r20, r12
    19ea:	6b 2d       	mov	r22, r11
    19ec:	ce 01       	movw	r24, r28
    19ee:	0e 94 8b 0c 	call	0x1916	; 0x1916 <u8g2_DrawGlyph>
    19f2:	f7 01       	movw	r30, r14
    19f4:	90 81       	ld	r25, Z
    19f6:	91 30       	cpi	r25, 0x01	; 1
    19f8:	41 f0       	breq	.+16     	; 0x1a0a <u8g2_draw_string+0x70>
    19fa:	28 f0       	brcs	.+10     	; 0x1a06 <u8g2_draw_string+0x6c>
    19fc:	92 30       	cpi	r25, 0x02	; 2
    19fe:	39 f0       	breq	.+14     	; 0x1a0e <u8g2_draw_string+0x74>
    1a00:	93 30       	cpi	r25, 0x03	; 3
    1a02:	39 f0       	breq	.+14     	; 0x1a12 <u8g2_draw_string+0x78>
    1a04:	07 c0       	rjmp	.+14     	; 0x1a14 <u8g2_draw_string+0x7a>
    1a06:	b8 0e       	add	r11, r24
    1a08:	05 c0       	rjmp	.+10     	; 0x1a14 <u8g2_draw_string+0x7a>
    1a0a:	c8 0e       	add	r12, r24
    1a0c:	03 c0       	rjmp	.+6      	; 0x1a14 <u8g2_draw_string+0x7a>
    1a0e:	b8 1a       	sub	r11, r24
    1a10:	01 c0       	rjmp	.+2      	; 0x1a14 <u8g2_draw_string+0x7a>
    1a12:	c8 1a       	sub	r12, r24
    1a14:	d8 0e       	add	r13, r24
    1a16:	d8 cf       	rjmp	.-80     	; 0x19c8 <u8g2_draw_string+0x2e>
    1a18:	8d 2d       	mov	r24, r13
    1a1a:	df 91       	pop	r29
    1a1c:	cf 91       	pop	r28
    1a1e:	1f 91       	pop	r17
    1a20:	0f 91       	pop	r16
    1a22:	ff 90       	pop	r15
    1a24:	ef 90       	pop	r14
    1a26:	df 90       	pop	r13
    1a28:	cf 90       	pop	r12
    1a2a:	bf 90       	pop	r11
    1a2c:	08 95       	ret

00001a2e <u8g2_DrawStr>:
    1a2e:	ee e4       	ldi	r30, 0x4E	; 78
    1a30:	ff e0       	ldi	r31, 0x0F	; 15
    1a32:	dc 01       	movw	r26, r24
    1a34:	13 96       	adiw	r26, 0x03	; 3
    1a36:	fc 93       	st	X, r31
    1a38:	ee 93       	st	-X, r30
    1a3a:	12 97       	sbiw	r26, 0x02	; 2
    1a3c:	0e 94 cd 0c 	call	0x199a	; 0x199a <u8g2_draw_string>
    1a40:	08 95       	ret

00001a42 <u8g2_UpdateRefHeight>:
    1a42:	fc 01       	movw	r30, r24
    1a44:	26 a9       	ldd	r18, Z+54	; 0x36
    1a46:	37 a9       	ldd	r19, Z+55	; 0x37
    1a48:	23 2b       	or	r18, r19
    1a4a:	e9 f1       	breq	.+122    	; 0x1ac6 <u8g2_UpdateRefHeight+0x84>
    1a4c:	ec 5a       	subi	r30, 0xAC	; 172
    1a4e:	ff 4f       	sbci	r31, 0xFF	; 255
    1a50:	20 81       	ld	r18, Z
    1a52:	3c 96       	adiw	r30, 0x0c	; 12
    1a54:	20 83       	st	Z, r18
    1a56:	3b 97       	sbiw	r30, 0x0b	; 11
    1a58:	40 81       	ld	r20, Z
    1a5a:	3c 96       	adiw	r30, 0x0c	; 12
    1a5c:	40 83       	st	Z, r20
    1a5e:	32 97       	sbiw	r30, 0x02	; 2
    1a60:	30 81       	ld	r19, Z
    1a62:	33 23       	and	r19, r19
    1a64:	81 f1       	breq	.+96     	; 0x1ac6 <u8g2_UpdateRefHeight+0x84>
    1a66:	31 30       	cpi	r19, 0x01	; 1
    1a68:	79 f4       	brne	.+30     	; 0x1a88 <u8g2_UpdateRefHeight+0x46>
    1a6a:	39 97       	sbiw	r30, 0x09	; 9
    1a6c:	30 81       	ld	r19, Z
    1a6e:	23 17       	cp	r18, r19
    1a70:	14 f4       	brge	.+4      	; 0x1a76 <u8g2_UpdateRefHeight+0x34>
    1a72:	3a 96       	adiw	r30, 0x0a	; 10
    1a74:	30 83       	st	Z, r19
    1a76:	fc 01       	movw	r30, r24
    1a78:	e9 5a       	subi	r30, 0xA9	; 169
    1a7a:	ff 4f       	sbci	r31, 0xFF	; 255
    1a7c:	20 81       	ld	r18, Z
    1a7e:	24 17       	cp	r18, r20
    1a80:	14 f5       	brge	.+68     	; 0x1ac6 <u8g2_UpdateRefHeight+0x84>
    1a82:	3a 96       	adiw	r30, 0x0a	; 10
    1a84:	20 83       	st	Z, r18
    1a86:	08 95       	ret
    1a88:	fc 01       	movw	r30, r24
    1a8a:	ef 5a       	subi	r30, 0xAF	; 175
    1a8c:	ff 4f       	sbci	r31, 0xFF	; 255
    1a8e:	e0 81       	ld	r30, Z
    1a90:	dc 01       	movw	r26, r24
    1a92:	ad 5a       	subi	r26, 0xAD	; 173
    1a94:	bf 4f       	sbci	r27, 0xFF	; 255
    1a96:	5c 91       	ld	r21, X
    1a98:	02 2e       	mov	r0, r18
    1a9a:	00 0c       	add	r0, r0
    1a9c:	33 0b       	sbc	r19, r19
    1a9e:	65 2f       	mov	r22, r21
    1aa0:	05 2e       	mov	r0, r21
    1aa2:	00 0c       	add	r0, r0
    1aa4:	77 0b       	sbc	r23, r23
    1aa6:	6e 0f       	add	r22, r30
    1aa8:	71 1d       	adc	r23, r1
    1aaa:	e7 fd       	sbrc	r30, 7
    1aac:	7a 95       	dec	r23
    1aae:	26 17       	cp	r18, r22
    1ab0:	37 07       	cpc	r19, r23
    1ab2:	1c f4       	brge	.+6      	; 0x1aba <u8g2_UpdateRefHeight+0x78>
    1ab4:	1d 96       	adiw	r26, 0x0d	; 13
    1ab6:	e5 0f       	add	r30, r21
    1ab8:	ec 93       	st	X, r30
    1aba:	54 17       	cp	r21, r20
    1abc:	24 f4       	brge	.+8      	; 0x1ac6 <u8g2_UpdateRefHeight+0x84>
    1abe:	fc 01       	movw	r30, r24
    1ac0:	ef 59       	subi	r30, 0x9F	; 159
    1ac2:	ff 4f       	sbci	r31, 0xFF	; 255
    1ac4:	50 83       	st	Z, r21
    1ac6:	08 95       	ret

00001ac8 <u8g2_SetFontPosBaseline>:
    1ac8:	25 ed       	ldi	r18, 0xD5	; 213
    1aca:	39 e0       	ldi	r19, 0x09	; 9
    1acc:	fc 01       	movw	r30, r24
    1ace:	31 af       	std	Z+57, r19	; 0x39
    1ad0:	20 af       	std	Z+56, r18	; 0x38
    1ad2:	08 95       	ret

00001ad4 <u8g2_SetFont>:
}

/*===============================================*/

void u8g2_SetFont(u8g2_t *u8g2, const uint8_t  *font)
{
    1ad4:	cf 93       	push	r28
    1ad6:	df 93       	push	r29
  if ( u8g2->font != font )
    1ad8:	fc 01       	movw	r30, r24
    1ada:	26 a9       	ldd	r18, Z+54	; 0x36
    1adc:	37 a9       	ldd	r19, Z+55	; 0x37
    1ade:	26 17       	cp	r18, r22
    1ae0:	37 07       	cpc	r19, r23
    1ae2:	51 f0       	breq	.+20     	; 0x1af8 <u8g2_SetFont+0x24>
    1ae4:	ec 01       	movw	r28, r24
  {
//#ifdef  __unix__
//	u8g2->last_font_data = NULL;
//	u8g2->last_unicode = 0x0ffff;
//#endif 
    u8g2->font = font;
    1ae6:	77 ab       	std	Z+55, r23	; 0x37
    1ae8:	66 ab       	std	Z+54, r22	; 0x36
    u8g2_read_font_info(&(u8g2->font_info), font);
    1aea:	89 5b       	subi	r24, 0xB9	; 185
    1aec:	9f 4f       	sbci	r25, 0xFF	; 255
    1aee:	0e 94 d7 09 	call	0x13ae	; 0x13ae <u8g2_read_font_info>
    u8g2_UpdateRefHeight(u8g2);
    1af2:	ce 01       	movw	r24, r28
    1af4:	0e 94 21 0d 	call	0x1a42	; 0x1a42 <u8g2_UpdateRefHeight>
    /* u8g2_SetFontPosBaseline(u8g2); */ /* removed with issue 195 */
  }
}
    1af8:	df 91       	pop	r29
    1afa:	cf 91       	pop	r28
    1afc:	08 95       	ret

00001afe <u8g2_draw_hv_line_2dir>:
  This function first adjusts the y position to the local buffer. Then it
  will clip the line and call u8g2_draw_low_level_hv_line()

*/
void u8g2_draw_hv_line_2dir(u8g2_t *u8g2, u8g2_uint_t x, u8g2_uint_t y, u8g2_uint_t len, uint8_t dir)
{
    1afe:	0f 93       	push	r16
  /* clipping happens before the display rotation */

  /* transform to pixel buffer coordinates */
  y -= u8g2->pixel_curr_row;
  
  u8g2->ll_hvline(u8g2, x, y, len, dir);
    1b00:	dc 01       	movw	r26, r24
    1b02:	99 96       	adiw	r26, 0x29	; 41
    1b04:	3c 91       	ld	r19, X
    1b06:	99 97       	sbiw	r26, 0x29	; 41
    1b08:	43 1b       	sub	r20, r19
    1b0a:	5f 96       	adiw	r26, 0x1f	; 31
    1b0c:	ed 91       	ld	r30, X+
    1b0e:	fc 91       	ld	r31, X
    1b10:	90 97       	sbiw	r26, 0x20	; 32
    1b12:	09 95       	icall
}
    1b14:	0f 91       	pop	r16
    1b16:	08 95       	ret

00001b18 <u8g2_DrawHVLine>:
  This function should be called by the user.
  
  "dir" may have 4 directions: 0 (left to right), 1, 2, 3 (down up)
*/
void u8g2_DrawHVLine(u8g2_t *u8g2, u8g2_uint_t x, u8g2_uint_t y, u8g2_uint_t len, uint8_t dir)
{
    1b18:	0f 93       	push	r16
  /* Make a call to the callback function (e.g. u8g2_draw_l90_r0). */
  /* The callback may rotate the hv line */
  /* after rotation this will call u8g2_draw_hv_line_4dir() */
  
#ifdef U8G2_WITH_CLIP_WINDOW_SUPPORT
  if ( u8g2->is_page_clip_window_intersection != 0 )
    1b1a:	fc 01       	movw	r30, r24
    1b1c:	e2 5a       	subi	r30, 0xA2	; 162
    1b1e:	ff 4f       	sbci	r31, 0xFF	; 255
    1b20:	30 81       	ld	r19, Z
    1b22:	33 23       	and	r19, r19
    1b24:	09 f4       	brne	.+2      	; 0x1b28 <u8g2_DrawHVLine+0x10>
    1b26:	65 c0       	rjmp	.+202    	; 0x1bf2 <u8g2_DrawHVLine+0xda>
#endif /* U8G2_WITH_CLIP_WINDOW_SUPPORT */
    if ( len != 0 )
    1b28:	22 23       	and	r18, r18
    1b2a:	09 f4       	brne	.+2      	; 0x1b2e <u8g2_DrawHVLine+0x16>
    1b2c:	62 c0       	rjmp	.+196    	; 0x1bf2 <u8g2_DrawHVLine+0xda>
    {
    
      /* convert to two directions */    
      if ( len > 1 )
    1b2e:	22 30       	cpi	r18, 0x02	; 2
    1b30:	58 f0       	brcs	.+22     	; 0x1b48 <u8g2_DrawHVLine+0x30>
      {
	if ( dir == 2 )
    1b32:	02 30       	cpi	r16, 0x02	; 2
    1b34:	19 f4       	brne	.+6      	; 0x1b3c <u8g2_DrawHVLine+0x24>
    1b36:	6f 5f       	subi	r22, 0xFF	; 255
	{
	  x -= len;
	  x++;
    1b38:	62 1b       	sub	r22, r18
    1b3a:	0a c0       	rjmp	.+20     	; 0x1b50 <u8g2_DrawHVLine+0x38>
	}
	else if ( dir == 3 )
    1b3c:	03 30       	cpi	r16, 0x03	; 3
    1b3e:	21 f4       	brne	.+8      	; 0x1b48 <u8g2_DrawHVLine+0x30>
    1b40:	4f 5f       	subi	r20, 0xFF	; 255
	{
	  y -= len;
	  y++;
    1b42:	42 1b       	sub	r20, r18
	}
      }
      dir &= 1;  
    1b44:	51 e0       	ldi	r21, 0x01	; 1
    1b46:	2d c0       	rjmp	.+90     	; 0x1ba2 <u8g2_DrawHVLine+0x8a>
      
      /* clip against the user window */
      if ( dir == 0 )
    1b48:	50 2f       	mov	r21, r16
    1b4a:	51 70       	andi	r21, 0x01	; 1
    1b4c:	00 fd       	sbrc	r16, 0
    1b4e:	29 c0       	rjmp	.+82     	; 0x1ba2 <u8g2_DrawHVLine+0x8a>
      {
	if ( y < u8g2->user_y0 )
    1b50:	dc 01       	movw	r26, r24
    1b52:	d0 96       	adiw	r26, 0x30	; 48
    1b54:	3c 91       	ld	r19, X
    1b56:	d0 97       	sbiw	r26, 0x30	; 48
    1b58:	43 17       	cp	r20, r19
    1b5a:	08 f4       	brcc	.+2      	; 0x1b5e <u8g2_DrawHVLine+0x46>
    1b5c:	4a c0       	rjmp	.+148    	; 0x1bf2 <u8g2_DrawHVLine+0xda>
	  return;
	if ( y >= u8g2->user_y1 )
    1b5e:	d1 96       	adiw	r26, 0x31	; 49
    1b60:	3c 91       	ld	r19, X
    1b62:	d1 97       	sbiw	r26, 0x31	; 49
    1b64:	43 17       	cp	r20, r19
    1b66:	08 f0       	brcs	.+2      	; 0x1b6a <u8g2_DrawHVLine+0x52>
    1b68:	44 c0       	rjmp	.+136    	; 0x1bf2 <u8g2_DrawHVLine+0xda>
	  return;
	if ( u8g2_clip_intersection2(&x, &len, u8g2->user_x0, u8g2->user_x1) == 0 )
    1b6a:	9f 96       	adiw	r26, 0x2f	; 47
    1b6c:	3c 91       	ld	r19, X
    1b6e:	9f 97       	sbiw	r26, 0x2f	; 47
    1b70:	9e 96       	adiw	r26, 0x2e	; 46
    1b72:	5c 91       	ld	r21, X
static uint8_t u8g2_clip_intersection2(u8g2_uint_t *ap, u8g2_uint_t *len, u8g2_uint_t c, u8g2_uint_t d)
{
  u8g2_uint_t a = *ap;
  u8g2_uint_t b;
  b  = a;
  b += *len;
    1b74:	26 0f       	add	r18, r22
  /* be removed completly (be aware about memory curruption for wrong */
  /* arguments) or return 0 for a>b (will lead to skipped lines for wrong */
  /* arguments) */  
  
  /* removing the following if clause completly may lead to memory corruption of a>b */
  if ( a > b )
    1b76:	26 17       	cp	r18, r22
    1b78:	30 f4       	brcc	.+12     	; 0x1b86 <u8g2_DrawHVLine+0x6e>
  {    
    /* replacing this if with a simple "return 0;" will not handle the case with negative a */    
    if ( a < d )
    1b7a:	63 17       	cp	r22, r19
    1b7c:	18 f4       	brcc	.+6      	; 0x1b84 <u8g2_DrawHVLine+0x6c>
    {
      b = d;
      b--;
    1b7e:	2f ef       	ldi	r18, 0xFF	; 255
    1b80:	23 0f       	add	r18, r19
    1b82:	03 c0       	rjmp	.+6      	; 0x1b8a <u8g2_DrawHVLine+0x72>
    }
    else
    {
      a = c;
    1b84:	65 2f       	mov	r22, r21
    }
  }
  
  /* from now on, the asumption a <= b is ok */
  
  if ( a >= d )
    1b86:	63 17       	cp	r22, r19
    1b88:	a0 f5       	brcc	.+104    	; 0x1bf2 <u8g2_DrawHVLine+0xda>
    return 0;
  if ( b <= c )
    1b8a:	52 17       	cp	r21, r18
    1b8c:	90 f5       	brcc	.+100    	; 0x1bf2 <u8g2_DrawHVLine+0xda>
    1b8e:	65 17       	cp	r22, r21
    1b90:	08 f4       	brcc	.+2      	; 0x1b94 <u8g2_DrawHVLine+0x7c>
    1b92:	65 2f       	mov	r22, r21
    a = c;
  if ( b > d )
    b = d;
  
  *ap = a;
  b -= a;
    1b94:	23 17       	cp	r18, r19
    1b96:	08 f4       	brcc	.+2      	; 0x1b9a <u8g2_DrawHVLine+0x82>
    1b98:	32 2f       	mov	r19, r18
    1b9a:	23 2f       	mov	r18, r19
    1b9c:	26 1b       	sub	r18, r22
    1b9e:	50 e0       	ldi	r21, 0x00	; 0
    1ba0:	1e c0       	rjmp	.+60     	; 0x1bde <u8g2_DrawHVLine+0xc6>
	if ( u8g2_clip_intersection2(&x, &len, u8g2->user_x0, u8g2->user_x1) == 0 )
	  return;
      }
      else
      {
	if ( x < u8g2->user_x0 )
    1ba2:	fc 01       	movw	r30, r24
    1ba4:	36 a5       	ldd	r19, Z+46	; 0x2e
    1ba6:	63 17       	cp	r22, r19
    1ba8:	20 f1       	brcs	.+72     	; 0x1bf2 <u8g2_DrawHVLine+0xda>
	  return;
	if ( x >= u8g2->user_x1 )
    1baa:	37 a5       	ldd	r19, Z+47	; 0x2f
    1bac:	63 17       	cp	r22, r19
    1bae:	08 f5       	brcc	.+66     	; 0x1bf2 <u8g2_DrawHVLine+0xda>
	  return;
	if ( u8g2_clip_intersection2(&y, &len, u8g2->user_y0, u8g2->user_y1) == 0 )
    1bb0:	31 a9       	ldd	r19, Z+49	; 0x31
    1bb2:	70 a9       	ldd	r23, Z+48	; 0x30
static uint8_t u8g2_clip_intersection2(u8g2_uint_t *ap, u8g2_uint_t *len, u8g2_uint_t c, u8g2_uint_t d)
{
  u8g2_uint_t a = *ap;
  u8g2_uint_t b;
  b  = a;
  b += *len;
    1bb4:	24 0f       	add	r18, r20
  /* be removed completly (be aware about memory curruption for wrong */
  /* arguments) or return 0 for a>b (will lead to skipped lines for wrong */
  /* arguments) */  
  
  /* removing the following if clause completly may lead to memory corruption of a>b */
  if ( a > b )
    1bb6:	24 17       	cp	r18, r20
    1bb8:	30 f4       	brcc	.+12     	; 0x1bc6 <u8g2_DrawHVLine+0xae>
  {    
    /* replacing this if with a simple "return 0;" will not handle the case with negative a */    
    if ( a < d )
    1bba:	43 17       	cp	r20, r19
    1bbc:	18 f4       	brcc	.+6      	; 0x1bc4 <u8g2_DrawHVLine+0xac>
    {
      b = d;
      b--;
    1bbe:	2f ef       	ldi	r18, 0xFF	; 255
    1bc0:	23 0f       	add	r18, r19
    1bc2:	03 c0       	rjmp	.+6      	; 0x1bca <u8g2_DrawHVLine+0xb2>
    }
    else
    {
      a = c;
    1bc4:	47 2f       	mov	r20, r23
    }
  }
  
  /* from now on, the asumption a <= b is ok */
  
  if ( a >= d )
    1bc6:	43 17       	cp	r20, r19
    1bc8:	a0 f4       	brcc	.+40     	; 0x1bf2 <u8g2_DrawHVLine+0xda>
    return 0;
  if ( b <= c )
    1bca:	72 17       	cp	r23, r18
    1bcc:	90 f4       	brcc	.+36     	; 0x1bf2 <u8g2_DrawHVLine+0xda>
    1bce:	47 17       	cp	r20, r23
    1bd0:	08 f4       	brcc	.+2      	; 0x1bd4 <u8g2_DrawHVLine+0xbc>
    1bd2:	47 2f       	mov	r20, r23
    a = c;
  if ( b > d )
    b = d;
  
  *ap = a;
  b -= a;
    1bd4:	23 17       	cp	r18, r19
    1bd6:	08 f4       	brcc	.+2      	; 0x1bda <u8g2_DrawHVLine+0xc2>
    1bd8:	32 2f       	mov	r19, r18
    1bda:	23 2f       	mov	r18, r19
    1bdc:	24 1b       	sub	r18, r20
	if ( u8g2_clip_intersection2(&y, &len, u8g2->user_y0, u8g2->user_y1) == 0 )
	  return;
      }
      
      
      u8g2->cb->draw_l90(u8g2, x, y, len, dir);
    1bde:	dc 01       	movw	r26, r24
    1be0:	91 96       	adiw	r26, 0x21	; 33
    1be2:	ed 91       	ld	r30, X+
    1be4:	fc 91       	ld	r31, X
    1be6:	92 97       	sbiw	r26, 0x22	; 34
    1be8:	04 80       	ldd	r0, Z+4	; 0x04
    1bea:	f5 81       	ldd	r31, Z+5	; 0x05
    1bec:	e0 2d       	mov	r30, r0
    1bee:	05 2f       	mov	r16, r21
    1bf0:	09 95       	icall
    }
}
    1bf2:	0f 91       	pop	r16
    1bf4:	08 95       	ret

00001bf6 <u8g2_is_intersection_decision_tree>:
  a1 and v1 are excluded
  v0 == v1 is not support end return 1
*/
uint8_t u8g2_is_intersection_decision_tree(u8g2_uint_t a0, u8g2_uint_t a1, u8g2_uint_t v0, u8g2_uint_t v1)
{
  if ( v0 < a1 )		// v0 <= a1
    1bf6:	46 17       	cp	r20, r22
    1bf8:	38 f4       	brcc	.+14     	; 0x1c08 <u8g2_is_intersection_decision_tree+0x12>
  {
    if ( v1 > a0 )	// v1 >= a0
    1bfa:	82 17       	cp	r24, r18
    1bfc:	60 f0       	brcs	.+24     	; 0x1c16 <u8g2_is_intersection_decision_tree+0x20>
    {
      return 1;
    1bfe:	81 e0       	ldi	r24, 0x01	; 1
    1c00:	24 17       	cp	r18, r20
    1c02:	60 f0       	brcs	.+24     	; 0x1c1c <u8g2_is_intersection_decision_tree+0x26>
    1c04:	80 e0       	ldi	r24, 0x00	; 0
    1c06:	08 95       	ret
      }
    }
  }
  else
  {
    if ( v1 > a0 )	// v1 >= a0
    1c08:	82 17       	cp	r24, r18
    1c0a:	38 f4       	brcc	.+14     	; 0x1c1a <u8g2_is_intersection_decision_tree+0x24>
{
  if ( v0 < a1 )		// v0 <= a1
  {
    if ( v1 > a0 )	// v1 >= a0
    {
      return 1;
    1c0c:	81 e0       	ldi	r24, 0x01	; 1
    1c0e:	24 17       	cp	r18, r20
    1c10:	28 f0       	brcs	.+10     	; 0x1c1c <u8g2_is_intersection_decision_tree+0x26>
    1c12:	80 e0       	ldi	r24, 0x00	; 0
    1c14:	08 95       	ret
    1c16:	81 e0       	ldi	r24, 0x01	; 1
    1c18:	08 95       	ret
	return 0;
      }
    }
    else
    {
      return 0;
    1c1a:	80 e0       	ldi	r24, 0x00	; 0
    }
  }
}
    1c1c:	08 95       	ret

00001c1e <u8g2_IsIntersection>:



/* upper limits are not included (asymetric boundaries) */
uint8_t u8g2_IsIntersection(u8g2_t *u8g2, u8g2_uint_t x0, u8g2_uint_t y0, u8g2_uint_t x1, u8g2_uint_t y1)
{
    1c1e:	ff 92       	push	r15
    1c20:	0f 93       	push	r16
    1c22:	1f 93       	push	r17
    1c24:	cf 93       	push	r28
    1c26:	df 93       	push	r29
    1c28:	ec 01       	movw	r28, r24
    1c2a:	16 2f       	mov	r17, r22
    1c2c:	f2 2e       	mov	r15, r18
    1c2e:	20 2f       	mov	r18, r16
  if ( u8g2_is_intersection_decision_tree(u8g2->user_y0, u8g2->user_y1, y0, y1) == 0 )
    1c30:	69 a9       	ldd	r22, Y+49	; 0x31
    1c32:	88 a9       	ldd	r24, Y+48	; 0x30
    1c34:	0e 94 fb 0d 	call	0x1bf6	; 0x1bf6 <u8g2_is_intersection_decision_tree>
    1c38:	88 23       	and	r24, r24
    1c3a:	31 f0       	breq	.+12     	; 0x1c48 <u8g2_IsIntersection+0x2a>
    return 0; 
  
  return u8g2_is_intersection_decision_tree(u8g2->user_x0, u8g2->user_x1, x0, x1);
    1c3c:	2f 2d       	mov	r18, r15
    1c3e:	41 2f       	mov	r20, r17
    1c40:	6f a5       	ldd	r22, Y+47	; 0x2f
    1c42:	8e a5       	ldd	r24, Y+46	; 0x2e
    1c44:	0e 94 fb 0d 	call	0x1bf6	; 0x1bf6 <u8g2_is_intersection_decision_tree>
}
    1c48:	df 91       	pop	r29
    1c4a:	cf 91       	pop	r28
    1c4c:	1f 91       	pop	r17
    1c4e:	0f 91       	pop	r16
    1c50:	ff 90       	pop	r15
    1c52:	08 95       	ret

00001c54 <u8g2_ll_hvline_vertical_top_lsb>:
		1: vertical line (top to bottom)
  asumption: 
    all clipping done
*/
void u8g2_ll_hvline_vertical_top_lsb(u8g2_t *u8g2, u8g2_uint_t x, u8g2_uint_t y, u8g2_uint_t len, uint8_t dir)
{
    1c54:	ef 92       	push	r14
    1c56:	ff 92       	push	r15
    1c58:	0f 93       	push	r16
    1c5a:	cf 93       	push	r28
    1c5c:	df 93       	push	r29
    1c5e:	7c 01       	movw	r14, r24
  //assert(y >= u8g2->buf_y0);
  //assert(y < u8g2_GetU8x8(u8g2)->display_info->tile_height*8);
  
  /* bytes are vertical, lsb on top (y=0), msb at bottom (y=7) */
  bit_pos = y;		/* overflow truncate is ok here... */
  bit_pos &= 7; 	/* ... because only the lowest 3 bits are needed */
    1c60:	34 2f       	mov	r19, r20
    1c62:	37 70       	andi	r19, 0x07	; 7
  mask = 1;
  mask <<= bit_pos;
    1c64:	81 e0       	ldi	r24, 0x01	; 1
    1c66:	90 e0       	ldi	r25, 0x00	; 0
    1c68:	03 2e       	mov	r0, r19
    1c6a:	02 c0       	rjmp	.+4      	; 0x1c70 <u8g2_ll_hvline_vertical_top_lsb+0x1c>
    1c6c:	88 0f       	add	r24, r24
    1c6e:	99 1f       	adc	r25, r25
    1c70:	0a 94       	dec	r0
    1c72:	e2 f7       	brpl	.-8      	; 0x1c6c <u8g2_ll_hvline_vertical_top_lsb+0x18>
    1c74:	c8 2f       	mov	r28, r24

  or_mask = 0;
  xor_mask = 0;
  if ( u8g2->draw_color <= 1 )
    1c76:	f7 01       	movw	r30, r14
    1c78:	ec 59       	subi	r30, 0x9C	; 156
    1c7a:	ff 4f       	sbci	r31, 0xFF	; 255
    1c7c:	50 81       	ld	r21, Z
    1c7e:	52 30       	cpi	r21, 0x02	; 2
    1c80:	20 f4       	brcc	.+8      	; 0x1c8a <u8g2_ll_hvline_vertical_top_lsb+0x36>
    or_mask  = mask;
  if ( u8g2->draw_color != 1 )
    1c82:	51 30       	cpi	r21, 0x01	; 1
    1c84:	21 f0       	breq	.+8      	; 0x1c8e <u8g2_ll_hvline_vertical_top_lsb+0x3a>
  mask <<= bit_pos;

  or_mask = 0;
  xor_mask = 0;
  if ( u8g2->draw_color <= 1 )
    or_mask  = mask;
    1c86:	78 2f       	mov	r23, r24
    1c88:	04 c0       	rjmp	.+8      	; 0x1c92 <u8g2_ll_hvline_vertical_top_lsb+0x3e>
  bit_pos = y;		/* overflow truncate is ok here... */
  bit_pos &= 7; 	/* ... because only the lowest 3 bits are needed */
  mask = 1;
  mask <<= bit_pos;

  or_mask = 0;
    1c8a:	70 e0       	ldi	r23, 0x00	; 0
    1c8c:	02 c0       	rjmp	.+4      	; 0x1c92 <u8g2_ll_hvline_vertical_top_lsb+0x3e>
  xor_mask = 0;
  if ( u8g2->draw_color <= 1 )
    or_mask  = mask;
    1c8e:	78 2f       	mov	r23, r24
  bit_pos &= 7; 	/* ... because only the lowest 3 bits are needed */
  mask = 1;
  mask <<= bit_pos;

  or_mask = 0;
  xor_mask = 0;
    1c90:	c0 e0       	ldi	r28, 0x00	; 0
    or_mask  = mask;
  if ( u8g2->draw_color != 1 )
    xor_mask = mask;


  offset = y;		/* y might be 8 or 16 bit, but we need 16 bit, so use a 16 bit variable */
    1c92:	50 e0       	ldi	r21, 0x00	; 0
  offset &= ~7;
    1c94:	48 7f       	andi	r20, 0xF8	; 248
  offset *= u8g2_GetU8x8(u8g2)->display_info->tile_width;
  ptr = u8g2->tile_buf_ptr;
    1c96:	d7 01       	movw	r26, r14
    1c98:	93 96       	adiw	r26, 0x23	; 35
    1c9a:	8d 91       	ld	r24, X+
    1c9c:	9c 91       	ld	r25, X
    1c9e:	94 97       	sbiw	r26, 0x24	; 36
    xor_mask = mask;


  offset = y;		/* y might be 8 or 16 bit, but we need 16 bit, so use a 16 bit variable */
  offset &= ~7;
  offset *= u8g2_GetU8x8(u8g2)->display_info->tile_width;
    1ca0:	ed 91       	ld	r30, X+
    1ca2:	fc 91       	ld	r31, X
  ptr = u8g2->tile_buf_ptr;
  ptr += offset;
  ptr += x;
    1ca4:	d0 89       	ldd	r29, Z+16	; 0x10
    1ca6:	d4 9f       	mul	r29, r20
    1ca8:	f0 01       	movw	r30, r0
    1caa:	d5 9f       	mul	r29, r21
    1cac:	f0 0d       	add	r31, r0
    1cae:	11 24       	eor	r1, r1
    1cb0:	e6 0f       	add	r30, r22
    1cb2:	f1 1d       	adc	r31, r1
    1cb4:	e8 0f       	add	r30, r24
    1cb6:	f9 1f       	adc	r31, r25
  
  if ( dir == 0 )
    1cb8:	01 11       	cpse	r16, r1
    1cba:	07 c0       	rjmp	.+14     	; 0x1cca <u8g2_ll_hvline_vertical_top_lsb+0x76>
      {
#ifdef __unix
	assert(ptr < max_ptr);
#endif
	*ptr |= or_mask;
	*ptr ^= xor_mask;
    1cbc:	80 81       	ld	r24, Z
    1cbe:	87 2b       	or	r24, r23
    1cc0:	8c 27       	eor	r24, r28
    1cc2:	81 93       	st	Z+, r24
	ptr++;
	len--;
    1cc4:	21 50       	subi	r18, 0x01	; 1
      } while( len != 0 );
    1cc6:	d1 f7       	brne	.-12     	; 0x1cbc <u8g2_ll_hvline_vertical_top_lsb+0x68>
    1cc8:	22 c0       	rjmp	.+68     	; 0x1d0e <u8g2_ll_hvline_vertical_top_lsb+0xba>

      if ( bit_pos == 0 )
      {
	ptr+=u8g2->pixel_buf_width;	/* 6 Jan 17: Changed u8g2->width to u8g2->pixel_buf_width, issue #148 */
		
	if ( u8g2->draw_color <= 1 )
    1cca:	a7 01       	movw	r20, r14
    1ccc:	4c 59       	subi	r20, 0x9C	; 156
    1cce:	5f 4f       	sbci	r21, 0xFF	; 255
    {
#ifdef __unix
      assert(ptr < max_ptr);
#endif
      *ptr |= or_mask;
      *ptr ^= xor_mask;
    1cd0:	90 81       	ld	r25, Z
    1cd2:	97 2b       	or	r25, r23
    1cd4:	9c 27       	eor	r25, r28
    1cd6:	90 83       	st	Z, r25
      
      bit_pos++;
    1cd8:	3f 5f       	subi	r19, 0xFF	; 255
      bit_pos &= 7;
    1cda:	37 70       	andi	r19, 0x07	; 7

      len--;
    1cdc:	21 50       	subi	r18, 0x01	; 1

      if ( bit_pos == 0 )
    1cde:	31 11       	cpse	r19, r1
    1ce0:	0e c0       	rjmp	.+28     	; 0x1cfe <u8g2_ll_hvline_vertical_top_lsb+0xaa>
      {
	ptr+=u8g2->pixel_buf_width;	/* 6 Jan 17: Changed u8g2->width to u8g2->pixel_buf_width, issue #148 */
    1ce2:	d7 01       	movw	r26, r14
    1ce4:	97 96       	adiw	r26, 0x27	; 39
    1ce6:	8c 91       	ld	r24, X
    1ce8:	e8 0f       	add	r30, r24
    1cea:	f1 1d       	adc	r31, r1
		
	if ( u8g2->draw_color <= 1 )
    1cec:	da 01       	movw	r26, r20
    1cee:	8c 91       	ld	r24, X
    1cf0:	82 30       	cpi	r24, 0x02	; 2
    1cf2:	40 f4       	brcc	.+16     	; 0x1d04 <u8g2_ll_hvline_vertical_top_lsb+0xb0>
	  or_mask  = 1;
	if ( u8g2->draw_color != 1 )
    1cf4:	81 30       	cpi	r24, 0x01	; 1
    1cf6:	41 f0       	breq	.+16     	; 0x1d08 <u8g2_ll_hvline_vertical_top_lsb+0xb4>
	  xor_mask = 1;
    1cf8:	c1 e0       	ldi	r28, 0x01	; 1
      if ( bit_pos == 0 )
      {
	ptr+=u8g2->pixel_buf_width;	/* 6 Jan 17: Changed u8g2->width to u8g2->pixel_buf_width, issue #148 */
		
	if ( u8g2->draw_color <= 1 )
	  or_mask  = 1;
    1cfa:	71 e0       	ldi	r23, 0x01	; 1
    1cfc:	06 c0       	rjmp	.+12     	; 0x1d0a <u8g2_ll_hvline_vertical_top_lsb+0xb6>
	if ( u8g2->draw_color != 1 )
	  xor_mask = 1;
      }
      else
      {
	or_mask <<= 1;
    1cfe:	77 0f       	add	r23, r23
	xor_mask <<= 1;
    1d00:	cc 0f       	add	r28, r28
    1d02:	03 c0       	rjmp	.+6      	; 0x1d0a <u8g2_ll_hvline_vertical_top_lsb+0xb6>
	ptr+=u8g2->pixel_buf_width;	/* 6 Jan 17: Changed u8g2->width to u8g2->pixel_buf_width, issue #148 */
		
	if ( u8g2->draw_color <= 1 )
	  or_mask  = 1;
	if ( u8g2->draw_color != 1 )
	  xor_mask = 1;
    1d04:	c1 e0       	ldi	r28, 0x01	; 1
    1d06:	01 c0       	rjmp	.+2      	; 0x1d0a <u8g2_ll_hvline_vertical_top_lsb+0xb6>
      if ( bit_pos == 0 )
      {
	ptr+=u8g2->pixel_buf_width;	/* 6 Jan 17: Changed u8g2->width to u8g2->pixel_buf_width, issue #148 */
		
	if ( u8g2->draw_color <= 1 )
	  or_mask  = 1;
    1d08:	71 e0       	ldi	r23, 0x01	; 1
      else
      {
	or_mask <<= 1;
	xor_mask <<= 1;
      }
    } while( len != 0 );
    1d0a:	21 11       	cpse	r18, r1
    1d0c:	e1 cf       	rjmp	.-62     	; 0x1cd0 <u8g2_ll_hvline_vertical_top_lsb+0x7c>
  }
}
    1d0e:	df 91       	pop	r29
    1d10:	cf 91       	pop	r28
    1d12:	0f 91       	pop	r16
    1d14:	ff 90       	pop	r15
    1d16:	ef 90       	pop	r14
    1d18:	08 95       	ret

00001d1a <u8g2_update_dimension_common>:
  u8g2->clip_x0 = clip_x0;
  u8g2->clip_y0 = clip_y0;
  u8g2->clip_x1 = clip_x1;
  u8g2->clip_y1 = clip_y1;
  u8g2->cb->update_page_win(u8g2);
}
    1d1a:	fc 01       	movw	r30, r24
    1d1c:	a0 81       	ld	r26, Z
    1d1e:	b1 81       	ldd	r27, Z+1	; 0x01
    1d20:	85 a1       	ldd	r24, Z+37	; 0x25
    1d22:	98 2f       	mov	r25, r24
    1d24:	99 0f       	add	r25, r25
    1d26:	99 0f       	add	r25, r25
    1d28:	99 0f       	add	r25, r25
    1d2a:	90 a7       	std	Z+40, r25	; 0x28
    1d2c:	50 96       	adiw	r26, 0x10	; 16
    1d2e:	9c 91       	ld	r25, X
    1d30:	50 97       	sbiw	r26, 0x10	; 16
    1d32:	90 32       	cpi	r25, 0x20	; 32
    1d34:	08 f0       	brcs	.+2      	; 0x1d38 <u8g2_update_dimension_common+0x1e>
    1d36:	9f e1       	ldi	r25, 0x1F	; 31
    1d38:	99 0f       	add	r25, r25
    1d3a:	99 0f       	add	r25, r25
    1d3c:	99 0f       	add	r25, r25
    1d3e:	97 a3       	std	Z+39, r25	; 0x27
    1d40:	46 a1       	ldd	r20, Z+38	; 0x26
    1d42:	94 2f       	mov	r25, r20
    1d44:	99 0f       	add	r25, r25
    1d46:	99 0f       	add	r25, r25
    1d48:	99 0f       	add	r25, r25
    1d4a:	91 a7       	std	Z+41, r25	; 0x29
    1d4c:	51 96       	adiw	r26, 0x11	; 17
    1d4e:	5c 91       	ld	r21, X
    1d50:	51 97       	sbiw	r26, 0x11	; 17
    1d52:	24 2f       	mov	r18, r20
    1d54:	30 e0       	ldi	r19, 0x00	; 0
    1d56:	28 0f       	add	r18, r24
    1d58:	31 1d       	adc	r19, r1
    1d5a:	65 2f       	mov	r22, r21
    1d5c:	70 e0       	ldi	r23, 0x00	; 0
    1d5e:	62 17       	cp	r22, r18
    1d60:	73 07       	cpc	r23, r19
    1d62:	14 f4       	brge	.+4      	; 0x1d68 <u8g2_update_dimension_common+0x4e>
    1d64:	85 2f       	mov	r24, r21
    1d66:	84 1b       	sub	r24, r20
    1d68:	92 a7       	std	Z+42, r25	; 0x2a
    1d6a:	88 0f       	add	r24, r24
    1d6c:	88 0f       	add	r24, r24
    1d6e:	88 0f       	add	r24, r24
    1d70:	89 0f       	add	r24, r25
    1d72:	83 a7       	std	Z+43, r24	; 0x2b
    1d74:	80 ef       	ldi	r24, 0xF0	; 240
    1d76:	84 a7       	std	Z+44, r24	; 0x2c
    1d78:	54 96       	adiw	r26, 0x14	; 20
    1d7a:	8d 91       	ld	r24, X+
    1d7c:	9c 91       	ld	r25, X
    1d7e:	55 97       	sbiw	r26, 0x15	; 21
    1d80:	81 3f       	cpi	r24, 0xF1	; 241
    1d82:	91 05       	cpc	r25, r1
    1d84:	08 f4       	brcc	.+2      	; 0x1d88 <u8g2_update_dimension_common+0x6e>
    1d86:	84 a7       	std	Z+44, r24	; 0x2c
    1d88:	56 96       	adiw	r26, 0x16	; 22
    1d8a:	8c 91       	ld	r24, X
    1d8c:	85 a7       	std	Z+45, r24	; 0x2d
    1d8e:	08 95       	ret

00001d90 <u8g2_update_dimension_r0>:
    1d90:	0e 94 8d 0e 	call	0x1d1a	; 0x1d1a <u8g2_update_dimension_common>
    1d94:	08 95       	ret

00001d96 <u8g2_apply_clip_window>:
    1d96:	0f 93       	push	r16
    1d98:	cf 93       	push	r28
    1d9a:	df 93       	push	r29
    1d9c:	ec 01       	movw	r28, r24
    1d9e:	0d a9       	ldd	r16, Y+53	; 0x35
    1da0:	2b a9       	ldd	r18, Y+51	; 0x33
    1da2:	4c a9       	ldd	r20, Y+52	; 0x34
    1da4:	6a a9       	ldd	r22, Y+50	; 0x32
    1da6:	0e 94 0f 0e 	call	0x1c1e	; 0x1c1e <u8g2_IsIntersection>
    1daa:	81 11       	cpse	r24, r1
    1dac:	04 c0       	rjmp	.+8      	; 0x1db6 <u8g2_apply_clip_window+0x20>
    1dae:	c2 5a       	subi	r28, 0xA2	; 162
    1db0:	df 4f       	sbci	r29, 0xFF	; 255
    1db2:	18 82       	st	Y, r1
    1db4:	19 c0       	rjmp	.+50     	; 0x1de8 <u8g2_apply_clip_window+0x52>
    1db6:	81 e0       	ldi	r24, 0x01	; 1
    1db8:	fe 01       	movw	r30, r28
    1dba:	e2 5a       	subi	r30, 0xA2	; 162
    1dbc:	ff 4f       	sbci	r31, 0xFF	; 255
    1dbe:	80 83       	st	Z, r24
    1dc0:	8a a9       	ldd	r24, Y+50	; 0x32
    1dc2:	9e a5       	ldd	r25, Y+46	; 0x2e
    1dc4:	98 17       	cp	r25, r24
    1dc6:	08 f4       	brcc	.+2      	; 0x1dca <u8g2_apply_clip_window+0x34>
    1dc8:	8e a7       	std	Y+46, r24	; 0x2e
    1dca:	8b a9       	ldd	r24, Y+51	; 0x33
    1dcc:	9f a5       	ldd	r25, Y+47	; 0x2f
    1dce:	89 17       	cp	r24, r25
    1dd0:	08 f4       	brcc	.+2      	; 0x1dd4 <u8g2_apply_clip_window+0x3e>
    1dd2:	8f a7       	std	Y+47, r24	; 0x2f
    1dd4:	8c a9       	ldd	r24, Y+52	; 0x34
    1dd6:	98 a9       	ldd	r25, Y+48	; 0x30
    1dd8:	98 17       	cp	r25, r24
    1dda:	08 f4       	brcc	.+2      	; 0x1dde <u8g2_apply_clip_window+0x48>
    1ddc:	88 ab       	std	Y+48, r24	; 0x30
    1dde:	8d a9       	ldd	r24, Y+53	; 0x35
    1de0:	99 a9       	ldd	r25, Y+49	; 0x31
    1de2:	89 17       	cp	r24, r25
    1de4:	08 f4       	brcc	.+2      	; 0x1de8 <u8g2_apply_clip_window+0x52>
    1de6:	89 ab       	std	Y+49, r24	; 0x31
    1de8:	df 91       	pop	r29
    1dea:	cf 91       	pop	r28
    1dec:	0f 91       	pop	r16
    1dee:	08 95       	ret

00001df0 <u8g2_update_page_win_r0>:
    1df0:	fc 01       	movw	r30, r24
    1df2:	16 a6       	std	Z+46, r1	; 0x2e
    1df4:	84 a5       	ldd	r24, Z+44	; 0x2c
    1df6:	87 a7       	std	Z+47, r24	; 0x2f
    1df8:	82 a5       	ldd	r24, Z+42	; 0x2a
    1dfa:	80 ab       	std	Z+48, r24	; 0x30
    1dfc:	83 a5       	ldd	r24, Z+43	; 0x2b
    1dfe:	81 ab       	std	Z+49, r24	; 0x31
    1e00:	cf 01       	movw	r24, r30
    1e02:	0e 94 cb 0e 	call	0x1d96	; 0x1d96 <u8g2_apply_clip_window>
    1e06:	08 95       	ret

00001e08 <u8g2_draw_l90_r0>:
    1e08:	0f 93       	push	r16
    1e0a:	0e 94 7f 0d 	call	0x1afe	; 0x1afe <u8g2_draw_hv_line_2dir>
    1e0e:	0f 91       	pop	r16
    1e10:	08 95       	ret

00001e12 <u8g2_SetMaxClipWindow>:
    1e12:	dc 01       	movw	r26, r24
    1e14:	d2 96       	adiw	r26, 0x32	; 50
    1e16:	1c 92       	st	X, r1
    1e18:	d2 97       	sbiw	r26, 0x32	; 50
    1e1a:	d4 96       	adiw	r26, 0x34	; 52
    1e1c:	1c 92       	st	X, r1
    1e1e:	d4 97       	sbiw	r26, 0x34	; 52
    1e20:	8f ef       	ldi	r24, 0xFF	; 255
    1e22:	d3 96       	adiw	r26, 0x33	; 51
    1e24:	8c 93       	st	X, r24
    1e26:	d3 97       	sbiw	r26, 0x33	; 51
    1e28:	d5 96       	adiw	r26, 0x35	; 53
    1e2a:	8c 93       	st	X, r24
    1e2c:	d5 97       	sbiw	r26, 0x35	; 53
    1e2e:	91 96       	adiw	r26, 0x21	; 33
    1e30:	ed 91       	ld	r30, X+
    1e32:	fc 91       	ld	r31, X
    1e34:	92 97       	sbiw	r26, 0x22	; 34
    1e36:	02 80       	ldd	r0, Z+2	; 0x02
    1e38:	f3 81       	ldd	r31, Z+3	; 0x03
    1e3a:	e0 2d       	mov	r30, r0
    1e3c:	cd 01       	movw	r24, r26
    1e3e:	09 95       	icall
    1e40:	08 95       	ret

00001e42 <u8g2_SetupBuffer>:
/*
  This procedure is called after setting up the display (u8x8 structure).
  --> This is the central init procedure for u8g2 object
*/
void u8g2_SetupBuffer(u8g2_t *u8g2, uint8_t *buf, uint8_t tile_buf_height, u8g2_draw_ll_hvline_cb ll_hvline_cb, const u8g2_cb_t *u8g2_cb)
{
    1e42:	0f 93       	push	r16
    1e44:	1f 93       	push	r17
    1e46:	cf 93       	push	r28
    1e48:	df 93       	push	r29
    1e4a:	ec 01       	movw	r28, r24
  u8g2->font = NULL;
    1e4c:	1f aa       	std	Y+55, r1	; 0x37
    1e4e:	1e aa       	std	Y+54, r1	; 0x36
  //u8g2->kerning = NULL;
  //u8g2->get_kerning_cb = u8g2_GetNullKerning;
  
  //u8g2->ll_hvline = u8g2_ll_hvline_vertical_top_lsb;
  u8g2->ll_hvline = ll_hvline_cb;
    1e50:	38 a3       	std	Y+32, r19	; 0x20
    1e52:	2f 8f       	std	Y+31, r18	; 0x1f
  
  u8g2->tile_buf_ptr = buf;
    1e54:	7c a3       	std	Y+36, r23	; 0x24
    1e56:	6b a3       	std	Y+35, r22	; 0x23
  u8g2->tile_buf_height = tile_buf_height;
    1e58:	4d a3       	std	Y+37, r20	; 0x25
  
  u8g2->tile_curr_row = 0;
    1e5a:	1e a2       	std	Y+38, r1	; 0x26
  
  u8g2->font_decode.is_transparent = 0; /* issue 443 */
    1e5c:	fc 01       	movw	r30, r24
    1e5e:	ed 5b       	subi	r30, 0xBD	; 189
    1e60:	ff 4f       	sbci	r31, 0xFF	; 255
    1e62:	10 82       	st	Z, r1
  u8g2->bitmap_transparency = 0;
    1e64:	b0 96       	adiw	r30, 0x20	; 32
    1e66:	10 82       	st	Z, r1
  
  u8g2->draw_color = 1;
    1e68:	31 96       	adiw	r30, 0x01	; 1
    1e6a:	81 e0       	ldi	r24, 0x01	; 1
    1e6c:	80 83       	st	Z, r24
  u8g2->is_auto_page_clear = 1;
    1e6e:	31 96       	adiw	r30, 0x01	; 1
    1e70:	80 83       	st	Z, r24
  
  u8g2->cb = u8g2_cb;
    1e72:	1a a3       	std	Y+34, r17	; 0x22
    1e74:	09 a3       	std	Y+33, r16	; 0x21
  u8g2->cb->update_dimension(u8g2);
    1e76:	d8 01       	movw	r26, r16
    1e78:	ed 91       	ld	r30, X+
    1e7a:	fc 91       	ld	r31, X
    1e7c:	ce 01       	movw	r24, r28
    1e7e:	09 95       	icall
#ifdef U8G2_WITH_CLIP_WINDOW_SUPPORT
  u8g2_SetMaxClipWindow(u8g2);		/* assign a clip window and call the update() procedure */
    1e80:	ce 01       	movw	r24, r28
    1e82:	0e 94 09 0f 	call	0x1e12	; 0x1e12 <u8g2_SetMaxClipWindow>
#else
  u8g2->cb->update_page_win(u8g2);
#endif

  u8g2_SetFontPosBaseline(u8g2);  /* issue 195 */
    1e86:	ce 01       	movw	r24, r28
    1e88:	0e 94 64 0d 	call	0x1ac8	; 0x1ac8 <u8g2_SetFontPosBaseline>
  
#ifdef U8G2_WITH_FONT_ROTATION  
  u8g2->font_decode.dir = 0;
    1e8c:	ca 5b       	subi	r28, 0xBA	; 186
    1e8e:	df 4f       	sbci	r29, 0xFF	; 255
    1e90:	18 82       	st	Y, r1
#endif
}
    1e92:	df 91       	pop	r29
    1e94:	cf 91       	pop	r28
    1e96:	1f 91       	pop	r17
    1e98:	0f 91       	pop	r16
    1e9a:	08 95       	ret

00001e9c <u8x8_ascii_next>:
      x++;
      cnt++;
    }
  }
  return cnt;
}
    1e9c:	66 23       	and	r22, r22
    1e9e:	29 f0       	breq	.+10     	; 0x1eaa <u8x8_ascii_next+0xe>
    1ea0:	6a 30       	cpi	r22, 0x0A	; 10
    1ea2:	31 f0       	breq	.+12     	; 0x1eb0 <u8x8_ascii_next+0x14>
    1ea4:	86 2f       	mov	r24, r22
    1ea6:	90 e0       	ldi	r25, 0x00	; 0
    1ea8:	08 95       	ret
    1eaa:	8f ef       	ldi	r24, 0xFF	; 255
    1eac:	9f ef       	ldi	r25, 0xFF	; 255
    1eae:	08 95       	ret
    1eb0:	8f ef       	ldi	r24, 0xFF	; 255
    1eb2:	9f ef       	ldi	r25, 0xFF	; 255
    1eb4:	08 95       	ret

00001eb6 <u8x8_utf8_init>:
*/

/* reset the internal state machine */
void u8x8_utf8_init(u8x8_t *u8x8)
{
  u8x8->utf8_state = 0;	/* also reset during u8x8_SetupDefaults() */
    1eb6:	fc 01       	movw	r30, r24
    1eb8:	11 8e       	std	Z+25, r1	; 0x19
    1eba:	08 95       	ret

00001ebc <u8x8_byte_SetDC>:
      break;
    default:
      return 0;
  }
  return 1;
}
    1ebc:	46 2f       	mov	r20, r22
    1ebe:	dc 01       	movw	r26, r24
    1ec0:	18 96       	adiw	r26, 0x08	; 8
    1ec2:	ed 91       	ld	r30, X+
    1ec4:	fc 91       	ld	r31, X
    1ec6:	19 97       	sbiw	r26, 0x09	; 9
    1ec8:	20 e0       	ldi	r18, 0x00	; 0
    1eca:	30 e0       	ldi	r19, 0x00	; 0
    1ecc:	60 e2       	ldi	r22, 0x20	; 32
    1ece:	09 95       	icall
    1ed0:	08 95       	ret

00001ed2 <u8x8_byte_SendBytes>:
    1ed2:	9a 01       	movw	r18, r20
    1ed4:	dc 01       	movw	r26, r24
    1ed6:	18 96       	adiw	r26, 0x08	; 8
    1ed8:	ed 91       	ld	r30, X+
    1eda:	fc 91       	ld	r31, X
    1edc:	19 97       	sbiw	r26, 0x09	; 9
    1ede:	46 2f       	mov	r20, r22
    1ee0:	67 e1       	ldi	r22, 0x17	; 23
    1ee2:	09 95       	icall
    1ee4:	08 95       	ret

00001ee6 <u8x8_byte_SendByte>:
    1ee6:	cf 93       	push	r28
    1ee8:	df 93       	push	r29
    1eea:	1f 92       	push	r1
    1eec:	cd b7       	in	r28, 0x3d	; 61
    1eee:	de b7       	in	r29, 0x3e	; 62
    1ef0:	69 83       	std	Y+1, r22	; 0x01
    1ef2:	ae 01       	movw	r20, r28
    1ef4:	4f 5f       	subi	r20, 0xFF	; 255
    1ef6:	5f 4f       	sbci	r21, 0xFF	; 255
    1ef8:	61 e0       	ldi	r22, 0x01	; 1
    1efa:	0e 94 69 0f 	call	0x1ed2	; 0x1ed2 <u8x8_byte_SendBytes>
    1efe:	0f 90       	pop	r0
    1f00:	df 91       	pop	r29
    1f02:	cf 91       	pop	r28
    1f04:	08 95       	ret

00001f06 <u8x8_byte_sed1520>:
/* sed1520 or sbn1661 
  U8X8_MSG_GPIO_E --> E1
  U8X8_MSG_GPIO_CS --> E2
*/
uint8_t u8x8_byte_sed1520(u8x8_t *u8x8, uint8_t msg, uint8_t arg_int, void *arg_ptr)
{
    1f06:	cf 92       	push	r12
    1f08:	df 92       	push	r13
    1f0a:	ef 92       	push	r14
    1f0c:	ff 92       	push	r15
    1f0e:	0f 93       	push	r16
    1f10:	1f 93       	push	r17
    1f12:	cf 93       	push	r28
    1f14:	df 93       	push	r29
    1f16:	8c 01       	movw	r16, r24
    1f18:	79 01       	movw	r14, r18
  uint8_t i, b;
  uint8_t *data;
  static uint8_t enable_pin;
 
  switch(msg)
    1f1a:	68 31       	cpi	r22, 0x18	; 24
    1f1c:	09 f4       	brne	.+2      	; 0x1f20 <u8x8_byte_sed1520+0x1a>
    1f1e:	69 c0       	rjmp	.+210    	; 0x1ff2 <u8x8_byte_sed1520+0xec>
    1f20:	30 f4       	brcc	.+12     	; 0x1f2e <u8x8_byte_sed1520+0x28>
    1f22:	64 31       	cpi	r22, 0x14	; 20
    1f24:	09 f4       	brne	.+2      	; 0x1f28 <u8x8_byte_sed1520+0x22>
    1f26:	4a c0       	rjmp	.+148    	; 0x1fbc <u8x8_byte_sed1520+0xb6>
    1f28:	67 31       	cpi	r22, 0x17	; 23
    1f2a:	49 f0       	breq	.+18     	; 0x1f3e <u8x8_byte_sed1520+0x38>
    1f2c:	6e c0       	rjmp	.+220    	; 0x200a <u8x8_byte_sed1520+0x104>
    1f2e:	69 31       	cpi	r22, 0x19	; 25
    1f30:	21 f0       	breq	.+8      	; 0x1f3a <u8x8_byte_sed1520+0x34>
    1f32:	60 32       	cpi	r22, 0x20	; 32
    1f34:	09 f4       	brne	.+2      	; 0x1f38 <u8x8_byte_sed1520+0x32>
    1f36:	58 c0       	rjmp	.+176    	; 0x1fe8 <u8x8_byte_sed1520+0xe2>
    1f38:	68 c0       	rjmp	.+208    	; 0x200a <u8x8_byte_sed1520+0x104>
    case U8X8_MSG_BYTE_END_TRANSFER:
      break;
    default:
      return 0;
  }
  return 1;
    1f3a:	81 e0       	ldi	r24, 0x01	; 1
    1f3c:	69 c0       	rjmp	.+210    	; 0x2010 <u8x8_byte_sed1520+0x10a>
 
  switch(msg)
  {
    case U8X8_MSG_BYTE_SEND:
      data = (uint8_t *)arg_ptr;
      while( arg_int > 0 )
    1f3e:	44 23       	and	r20, r20
    1f40:	09 f4       	brne	.+2      	; 0x1f44 <u8x8_byte_sed1520+0x3e>
    1f42:	65 c0       	rjmp	.+202    	; 0x200e <u8x8_byte_sed1520+0x108>
    1f44:	41 50       	subi	r20, 0x01	; 1
    1f46:	c4 2e       	mov	r12, r20
    1f48:	d1 2c       	mov	r13, r1
    1f4a:	8f ef       	ldi	r24, 0xFF	; 255
    1f4c:	c8 1a       	sub	r12, r24
    1f4e:	d8 0a       	sbc	r13, r24
    1f50:	c2 0e       	add	r12, r18
    1f52:	d3 1e       	adc	r13, r19
      {
	b = *data;
    1f54:	d7 01       	movw	r26, r14
    1f56:	dd 91       	ld	r29, X+
    1f58:	7d 01       	movw	r14, r26
	data++;
	arg_int--;
	for( i = U8X8_MSG_GPIO_D0; i <= U8X8_MSG_GPIO_D7; i++ )
    1f5a:	c0 e4       	ldi	r28, 0x40	; 64
	{
	  u8x8_gpio_call(u8x8, i, b&1);
    1f5c:	4d 2f       	mov	r20, r29
    1f5e:	41 70       	andi	r20, 0x01	; 1
    1f60:	6c 2f       	mov	r22, r28
    1f62:	c8 01       	movw	r24, r16
    1f64:	0e 94 36 12 	call	0x246c	; 0x246c <u8x8_gpio_call>
	  b >>= 1;
    1f68:	d6 95       	lsr	r29
      while( arg_int > 0 )
      {
	b = *data;
	data++;
	arg_int--;
	for( i = U8X8_MSG_GPIO_D0; i <= U8X8_MSG_GPIO_D7; i++ )
    1f6a:	cf 5f       	subi	r28, 0xFF	; 255
    1f6c:	c8 34       	cpi	r28, 0x48	; 72
    1f6e:	b1 f7       	brne	.-20     	; 0x1f5c <u8x8_byte_sed1520+0x56>
	{
	  u8x8_gpio_call(u8x8, i, b&1);
	  b >>= 1;
	}    
	
	u8x8_gpio_Delay(u8x8, U8X8_MSG_DELAY_NANO, u8x8->display_info->data_setup_time_ns);
    1f70:	d8 01       	movw	r26, r16
    1f72:	ed 91       	ld	r30, X+
    1f74:	fc 91       	ld	r31, X
    1f76:	46 85       	ldd	r20, Z+14	; 0x0e
    1f78:	6c e2       	ldi	r22, 0x2C	; 44
    1f7a:	c8 01       	movw	r24, r16
    1f7c:	0e 94 36 12 	call	0x246c	; 0x246c <u8x8_gpio_call>
	u8x8_gpio_call(u8x8, enable_pin, 1);
    1f80:	41 e0       	ldi	r20, 0x01	; 1
    1f82:	60 91 32 03 	lds	r22, 0x0332	; 0x800332 <enable_pin.2984>
    1f86:	c8 01       	movw	r24, r16
    1f88:	0e 94 36 12 	call	0x246c	; 0x246c <u8x8_gpio_call>
	u8x8_gpio_Delay(u8x8, U8X8_MSG_DELAY_NANO, 200);		/* KS0108 requires 450 ns, use 200 here */
    1f8c:	48 ec       	ldi	r20, 0xC8	; 200
    1f8e:	6c e2       	ldi	r22, 0x2C	; 44
    1f90:	c8 01       	movw	r24, r16
    1f92:	0e 94 36 12 	call	0x246c	; 0x246c <u8x8_gpio_call>
	u8x8_gpio_Delay(u8x8, U8X8_MSG_DELAY_NANO, u8x8->display_info->write_pulse_width_ns);  /* expect 250 here */
    1f96:	d8 01       	movw	r26, r16
    1f98:	ed 91       	ld	r30, X+
    1f9a:	fc 91       	ld	r31, X
    1f9c:	47 85       	ldd	r20, Z+15	; 0x0f
    1f9e:	6c e2       	ldi	r22, 0x2C	; 44
    1fa0:	c8 01       	movw	r24, r16
    1fa2:	0e 94 36 12 	call	0x246c	; 0x246c <u8x8_gpio_call>
	u8x8_gpio_call(u8x8, enable_pin, 0);
    1fa6:	40 e0       	ldi	r20, 0x00	; 0
    1fa8:	60 91 32 03 	lds	r22, 0x0332	; 0x800332 <enable_pin.2984>
    1fac:	c8 01       	movw	r24, r16
    1fae:	0e 94 36 12 	call	0x246c	; 0x246c <u8x8_gpio_call>
 
  switch(msg)
  {
    case U8X8_MSG_BYTE_SEND:
      data = (uint8_t *)arg_ptr;
      while( arg_int > 0 )
    1fb2:	ec 14       	cp	r14, r12
    1fb4:	fd 04       	cpc	r15, r13
    1fb6:	71 f6       	brne	.-100    	; 0x1f54 <u8x8_byte_sed1520+0x4e>
    case U8X8_MSG_BYTE_END_TRANSFER:
      break;
    default:
      return 0;
  }
  return 1;
    1fb8:	81 e0       	ldi	r24, 0x01	; 1
    1fba:	2a c0       	rjmp	.+84     	; 0x2010 <u8x8_byte_sed1520+0x10a>
      }
      break;
      
    case U8X8_MSG_BYTE_INIT:
      /* disable chipselect */
      u8x8_gpio_SetCS(u8x8, u8x8->display_info->chip_disable_level);    
    1fbc:	dc 01       	movw	r26, r24
    1fbe:	ed 91       	ld	r30, X+
    1fc0:	fc 91       	ld	r31, X
    1fc2:	41 81       	ldd	r20, Z+1	; 0x01
    1fc4:	69 e4       	ldi	r22, 0x49	; 73
    1fc6:	0e 94 36 12 	call	0x246c	; 0x246c <u8x8_gpio_call>
      /* ensure that the enable signals are low */
      u8x8_gpio_call(u8x8, U8X8_MSG_GPIO_E, 0);
    1fca:	40 e0       	ldi	r20, 0x00	; 0
    1fcc:	68 e4       	ldi	r22, 0x48	; 72
    1fce:	c8 01       	movw	r24, r16
    1fd0:	0e 94 36 12 	call	0x246c	; 0x246c <u8x8_gpio_call>
      u8x8_gpio_call(u8x8, U8X8_MSG_GPIO_CS, 0);
    1fd4:	40 e0       	ldi	r20, 0x00	; 0
    1fd6:	69 e4       	ldi	r22, 0x49	; 73
    1fd8:	c8 01       	movw	r24, r16
    1fda:	0e 94 36 12 	call	0x246c	; 0x246c <u8x8_gpio_call>
      enable_pin = U8X8_MSG_GPIO_E;
    1fde:	88 e4       	ldi	r24, 0x48	; 72
    1fe0:	80 93 32 03 	sts	0x0332, r24	; 0x800332 <enable_pin.2984>
    case U8X8_MSG_BYTE_END_TRANSFER:
      break;
    default:
      return 0;
  }
  return 1;
    1fe4:	81 e0       	ldi	r24, 0x01	; 1
      u8x8_gpio_SetCS(u8x8, u8x8->display_info->chip_disable_level);    
      /* ensure that the enable signals are low */
      u8x8_gpio_call(u8x8, U8X8_MSG_GPIO_E, 0);
      u8x8_gpio_call(u8x8, U8X8_MSG_GPIO_CS, 0);
      enable_pin = U8X8_MSG_GPIO_E;
      break;
    1fe6:	14 c0       	rjmp	.+40     	; 0x2010 <u8x8_byte_sed1520+0x10a>
    case U8X8_MSG_BYTE_SET_DC:
      u8x8_gpio_SetDC(u8x8, arg_int);
    1fe8:	6a e4       	ldi	r22, 0x4A	; 74
    1fea:	0e 94 36 12 	call	0x246c	; 0x246c <u8x8_gpio_call>
    case U8X8_MSG_BYTE_END_TRANSFER:
      break;
    default:
      return 0;
  }
  return 1;
    1fee:	81 e0       	ldi	r24, 0x01	; 1
      u8x8_gpio_call(u8x8, U8X8_MSG_GPIO_CS, 0);
      enable_pin = U8X8_MSG_GPIO_E;
      break;
    case U8X8_MSG_BYTE_SET_DC:
      u8x8_gpio_SetDC(u8x8, arg_int);
      break;
    1ff0:	0f c0       	rjmp	.+30     	; 0x2010 <u8x8_byte_sed1520+0x10a>
    case U8X8_MSG_BYTE_START_TRANSFER:
      /* cs lines are not supported for the SED1520/SBN1661 */
      /* instead, this will select the E1 or E2 line */ 
      enable_pin = U8X8_MSG_GPIO_E;
      if ( arg_int != 0 )
    1ff2:	41 11       	cpse	r20, r1
    1ff4:	05 c0       	rjmp	.+10     	; 0x2000 <u8x8_byte_sed1520+0xfa>
      u8x8_gpio_SetDC(u8x8, arg_int);
      break;
    case U8X8_MSG_BYTE_START_TRANSFER:
      /* cs lines are not supported for the SED1520/SBN1661 */
      /* instead, this will select the E1 or E2 line */ 
      enable_pin = U8X8_MSG_GPIO_E;
    1ff6:	88 e4       	ldi	r24, 0x48	; 72
    1ff8:	80 93 32 03 	sts	0x0332, r24	; 0x800332 <enable_pin.2984>
    case U8X8_MSG_BYTE_END_TRANSFER:
      break;
    default:
      return 0;
  }
  return 1;
    1ffc:	81 e0       	ldi	r24, 0x01	; 1
    1ffe:	08 c0       	rjmp	.+16     	; 0x2010 <u8x8_byte_sed1520+0x10a>
    case U8X8_MSG_BYTE_START_TRANSFER:
      /* cs lines are not supported for the SED1520/SBN1661 */
      /* instead, this will select the E1 or E2 line */ 
      enable_pin = U8X8_MSG_GPIO_E;
      if ( arg_int != 0 )
	enable_pin = U8X8_MSG_GPIO_CS;
    2000:	89 e4       	ldi	r24, 0x49	; 73
    2002:	80 93 32 03 	sts	0x0332, r24	; 0x800332 <enable_pin.2984>
    case U8X8_MSG_BYTE_END_TRANSFER:
      break;
    default:
      return 0;
  }
  return 1;
    2006:	81 e0       	ldi	r24, 0x01	; 1
    2008:	03 c0       	rjmp	.+6      	; 0x2010 <u8x8_byte_sed1520+0x10a>
	enable_pin = U8X8_MSG_GPIO_CS;
      break;
    case U8X8_MSG_BYTE_END_TRANSFER:
      break;
    default:
      return 0;
    200a:	80 e0       	ldi	r24, 0x00	; 0
    200c:	01 c0       	rjmp	.+2      	; 0x2010 <u8x8_byte_sed1520+0x10a>
  }
  return 1;
    200e:	81 e0       	ldi	r24, 0x01	; 1
}
    2010:	df 91       	pop	r29
    2012:	cf 91       	pop	r28
    2014:	1f 91       	pop	r17
    2016:	0f 91       	pop	r16
    2018:	ff 90       	pop	r15
    201a:	ef 90       	pop	r14
    201c:	df 90       	pop	r13
    201e:	cf 90       	pop	r12
    2020:	08 95       	ret

00002022 <u8x8_cad_SendCmd>:
      return u8x8->byte_cb(u8x8, msg, arg_int, arg_ptr);
    default:
      return 0;
  }
  return 1;
}
    2022:	46 2f       	mov	r20, r22
    2024:	dc 01       	movw	r26, r24
    2026:	16 96       	adiw	r26, 0x06	; 6
    2028:	ed 91       	ld	r30, X+
    202a:	fc 91       	ld	r31, X
    202c:	17 97       	sbiw	r26, 0x07	; 7
    202e:	20 e0       	ldi	r18, 0x00	; 0
    2030:	30 e0       	ldi	r19, 0x00	; 0
    2032:	65 e1       	ldi	r22, 0x15	; 21
    2034:	09 95       	icall
    2036:	08 95       	ret

00002038 <u8x8_cad_SendData>:
    2038:	9a 01       	movw	r18, r20
    203a:	dc 01       	movw	r26, r24
    203c:	16 96       	adiw	r26, 0x06	; 6
    203e:	ed 91       	ld	r30, X+
    2040:	fc 91       	ld	r31, X
    2042:	17 97       	sbiw	r26, 0x07	; 7
    2044:	46 2f       	mov	r20, r22
    2046:	67 e1       	ldi	r22, 0x17	; 23
    2048:	09 95       	icall
    204a:	08 95       	ret

0000204c <u8x8_cad_SendSequence>:
    204c:	ef 92       	push	r14
    204e:	ff 92       	push	r15
    2050:	0f 93       	push	r16
    2052:	1f 93       	push	r17
    2054:	cf 93       	push	r28
    2056:	df 93       	push	r29
    2058:	1f 92       	push	r1
    205a:	cd b7       	in	r28, 0x3d	; 61
    205c:	de b7       	in	r29, 0x3e	; 62
    205e:	7c 01       	movw	r14, r24
    2060:	8b 01       	movw	r16, r22
    2062:	d8 01       	movw	r26, r16
    2064:	6c 91       	ld	r22, X
    2066:	67 31       	cpi	r22, 0x17	; 23
    2068:	c1 f0       	breq	.+48     	; 0x209a <u8x8_cad_SendSequence+0x4e>
    206a:	18 f4       	brcc	.+6      	; 0x2072 <u8x8_cad_SendSequence+0x26>
    206c:	65 31       	cpi	r22, 0x15	; 21
    206e:	30 f4       	brcc	.+12     	; 0x207c <u8x8_cad_SendSequence+0x30>
    2070:	38 c0       	rjmp	.+112    	; 0x20e2 <u8x8_cad_SendSequence+0x96>
    2072:	6a 31       	cpi	r22, 0x1A	; 26
    2074:	f8 f0       	brcs	.+62     	; 0x20b4 <u8x8_cad_SendSequence+0x68>
    2076:	6e 3f       	cpi	r22, 0xFE	; 254
    2078:	51 f1       	breq	.+84     	; 0x20ce <u8x8_cad_SendSequence+0x82>
    207a:	33 c0       	rjmp	.+102    	; 0x20e2 <u8x8_cad_SendSequence+0x96>
    207c:	f8 01       	movw	r30, r16
    207e:	41 81       	ldd	r20, Z+1	; 0x01
    2080:	49 83       	std	Y+1, r20	; 0x01
    2082:	d7 01       	movw	r26, r14
    2084:	16 96       	adiw	r26, 0x06	; 6
    2086:	ed 91       	ld	r30, X+
    2088:	fc 91       	ld	r31, X
    208a:	17 97       	sbiw	r26, 0x07	; 7
    208c:	20 e0       	ldi	r18, 0x00	; 0
    208e:	30 e0       	ldi	r19, 0x00	; 0
    2090:	c7 01       	movw	r24, r14
    2092:	09 95       	icall
    2094:	0e 5f       	subi	r16, 0xFE	; 254
    2096:	1f 4f       	sbci	r17, 0xFF	; 255
    2098:	e4 cf       	rjmp	.-56     	; 0x2062 <u8x8_cad_SendSequence+0x16>
    209a:	f8 01       	movw	r30, r16
    209c:	81 81       	ldd	r24, Z+1	; 0x01
    209e:	89 83       	std	Y+1, r24	; 0x01
    20a0:	ae 01       	movw	r20, r28
    20a2:	4f 5f       	subi	r20, 0xFF	; 255
    20a4:	5f 4f       	sbci	r21, 0xFF	; 255
    20a6:	61 e0       	ldi	r22, 0x01	; 1
    20a8:	c7 01       	movw	r24, r14
    20aa:	0e 94 1c 10 	call	0x2038	; 0x2038 <u8x8_cad_SendData>
    20ae:	0e 5f       	subi	r16, 0xFE	; 254
    20b0:	1f 4f       	sbci	r17, 0xFF	; 255
    20b2:	d7 cf       	rjmp	.-82     	; 0x2062 <u8x8_cad_SendSequence+0x16>
    20b4:	0f 5f       	subi	r16, 0xFF	; 255
    20b6:	1f 4f       	sbci	r17, 0xFF	; 255
    20b8:	d7 01       	movw	r26, r14
    20ba:	16 96       	adiw	r26, 0x06	; 6
    20bc:	ed 91       	ld	r30, X+
    20be:	fc 91       	ld	r31, X
    20c0:	17 97       	sbiw	r26, 0x07	; 7
    20c2:	20 e0       	ldi	r18, 0x00	; 0
    20c4:	30 e0       	ldi	r19, 0x00	; 0
    20c6:	40 e0       	ldi	r20, 0x00	; 0
    20c8:	c7 01       	movw	r24, r14
    20ca:	09 95       	icall
    20cc:	ca cf       	rjmp	.-108    	; 0x2062 <u8x8_cad_SendSequence+0x16>
    20ce:	f8 01       	movw	r30, r16
    20d0:	41 81       	ldd	r20, Z+1	; 0x01
    20d2:	49 83       	std	Y+1, r20	; 0x01
    20d4:	69 e2       	ldi	r22, 0x29	; 41
    20d6:	c7 01       	movw	r24, r14
    20d8:	0e 94 36 12 	call	0x246c	; 0x246c <u8x8_gpio_call>
    20dc:	0e 5f       	subi	r16, 0xFE	; 254
    20de:	1f 4f       	sbci	r17, 0xFF	; 255
    20e0:	c0 cf       	rjmp	.-128    	; 0x2062 <u8x8_cad_SendSequence+0x16>
    20e2:	0f 90       	pop	r0
    20e4:	df 91       	pop	r29
    20e6:	cf 91       	pop	r28
    20e8:	1f 91       	pop	r17
    20ea:	0f 91       	pop	r16
    20ec:	ff 90       	pop	r15
    20ee:	ef 90       	pop	r14
    20f0:	08 95       	ret

000020f2 <u8x8_cad_001>:
  convert to bytes by using 
    dc = 0 for commands and args and
    dc = 1 for data
*/
uint8_t u8x8_cad_001(u8x8_t *u8x8, uint8_t msg, uint8_t arg_int, void *arg_ptr)
{
    20f2:	ef 92       	push	r14
    20f4:	ff 92       	push	r15
    20f6:	0f 93       	push	r16
    20f8:	1f 93       	push	r17
    20fa:	cf 93       	push	r28
    20fc:	df 93       	push	r29
    20fe:	8c 01       	movw	r16, r24
    2100:	c6 2f       	mov	r28, r22
    2102:	d4 2f       	mov	r29, r20
    2104:	79 01       	movw	r14, r18
  switch(msg)
    2106:	66 31       	cpi	r22, 0x16	; 22
    2108:	a1 f0       	breq	.+40     	; 0x2132 <u8x8_cad_001+0x40>
    210a:	28 f4       	brcc	.+10     	; 0x2116 <u8x8_cad_001+0x24>
    210c:	64 31       	cpi	r22, 0x14	; 20
    210e:	e9 f0       	breq	.+58     	; 0x214a <u8x8_cad_001+0x58>
    2110:	65 31       	cpi	r22, 0x15	; 21
    2112:	31 f0       	breq	.+12     	; 0x2120 <u8x8_cad_001+0x2e>
    2114:	25 c0       	rjmp	.+74     	; 0x2160 <u8x8_cad_001+0x6e>
    2116:	67 31       	cpi	r22, 0x17	; 23
    2118:	a9 f0       	breq	.+42     	; 0x2144 <u8x8_cad_001+0x52>
    211a:	6a 31       	cpi	r22, 0x1A	; 26
    211c:	08 f5       	brcc	.+66     	; 0x2160 <u8x8_cad_001+0x6e>
    211e:	15 c0       	rjmp	.+42     	; 0x214a <u8x8_cad_001+0x58>
  {
    case U8X8_MSG_CAD_SEND_CMD:
      u8x8_byte_SetDC(u8x8, 0);
    2120:	60 e0       	ldi	r22, 0x00	; 0
    2122:	0e 94 5e 0f 	call	0x1ebc	; 0x1ebc <u8x8_byte_SetDC>
      u8x8_byte_SendByte(u8x8, arg_int);
    2126:	6d 2f       	mov	r22, r29
    2128:	c8 01       	movw	r24, r16
    212a:	0e 94 73 0f 	call	0x1ee6	; 0x1ee6 <u8x8_byte_SendByte>
    case U8X8_MSG_CAD_END_TRANSFER:
      return u8x8->byte_cb(u8x8, msg, arg_int, arg_ptr);
    default:
      return 0;
  }
  return 1;
    212e:	81 e0       	ldi	r24, 0x01	; 1
  switch(msg)
  {
    case U8X8_MSG_CAD_SEND_CMD:
      u8x8_byte_SetDC(u8x8, 0);
      u8x8_byte_SendByte(u8x8, arg_int);
      break;
    2130:	18 c0       	rjmp	.+48     	; 0x2162 <u8x8_cad_001+0x70>
    case U8X8_MSG_CAD_SEND_ARG:
      u8x8_byte_SetDC(u8x8, 0);
    2132:	60 e0       	ldi	r22, 0x00	; 0
    2134:	0e 94 5e 0f 	call	0x1ebc	; 0x1ebc <u8x8_byte_SetDC>
      u8x8_byte_SendByte(u8x8, arg_int);
    2138:	6d 2f       	mov	r22, r29
    213a:	c8 01       	movw	r24, r16
    213c:	0e 94 73 0f 	call	0x1ee6	; 0x1ee6 <u8x8_byte_SendByte>
    case U8X8_MSG_CAD_END_TRANSFER:
      return u8x8->byte_cb(u8x8, msg, arg_int, arg_ptr);
    default:
      return 0;
  }
  return 1;
    2140:	81 e0       	ldi	r24, 0x01	; 1
      u8x8_byte_SendByte(u8x8, arg_int);
      break;
    case U8X8_MSG_CAD_SEND_ARG:
      u8x8_byte_SetDC(u8x8, 0);
      u8x8_byte_SendByte(u8x8, arg_int);
      break;
    2142:	0f c0       	rjmp	.+30     	; 0x2162 <u8x8_cad_001+0x70>
    case U8X8_MSG_CAD_SEND_DATA:
      u8x8_byte_SetDC(u8x8, 1);
    2144:	61 e0       	ldi	r22, 0x01	; 1
    2146:	0e 94 5e 0f 	call	0x1ebc	; 0x1ebc <u8x8_byte_SetDC>
      //break;
      /* fall through */
    case U8X8_MSG_CAD_INIT:
    case U8X8_MSG_CAD_START_TRANSFER:
    case U8X8_MSG_CAD_END_TRANSFER:
      return u8x8->byte_cb(u8x8, msg, arg_int, arg_ptr);
    214a:	d8 01       	movw	r26, r16
    214c:	18 96       	adiw	r26, 0x08	; 8
    214e:	ed 91       	ld	r30, X+
    2150:	fc 91       	ld	r31, X
    2152:	19 97       	sbiw	r26, 0x09	; 9
    2154:	97 01       	movw	r18, r14
    2156:	4d 2f       	mov	r20, r29
    2158:	6c 2f       	mov	r22, r28
    215a:	c8 01       	movw	r24, r16
    215c:	09 95       	icall
    215e:	01 c0       	rjmp	.+2      	; 0x2162 <u8x8_cad_001+0x70>
    default:
      return 0;
    2160:	80 e0       	ldi	r24, 0x00	; 0
  }
  return 1;
}
    2162:	df 91       	pop	r29
    2164:	cf 91       	pop	r28
    2166:	1f 91       	pop	r17
    2168:	0f 91       	pop	r16
    216a:	ff 90       	pop	r15
    216c:	ef 90       	pop	r14
    216e:	08 95       	ret

00002170 <u8x8_d_helper_display_setup_memory>:
  u8x8->display_cb(u8x8, U8X8_MSG_DISPLAY_SET_FLIP_MODE, mode, NULL);  
}

void u8x8_SetContrast(u8x8_t *u8x8, uint8_t value)
{
  u8x8->display_cb(u8x8, U8X8_MSG_DISPLAY_SET_CONTRAST, value, NULL);  
    2170:	fc 01       	movw	r30, r24
    2172:	71 83       	std	Z+1, r23	; 0x01
    2174:	60 83       	st	Z, r22
    2176:	fb 01       	movw	r30, r22
    2178:	22 89       	ldd	r18, Z+18	; 0x12
    217a:	fc 01       	movw	r30, r24
    217c:	24 8b       	std	Z+20, r18	; 0x14
    217e:	08 95       	ret

00002180 <u8x8_d_helper_display_init>:
    2180:	cf 93       	push	r28
    2182:	df 93       	push	r29
    2184:	ec 01       	movw	r28, r24
    2186:	ea 85       	ldd	r30, Y+10	; 0x0a
    2188:	fb 85       	ldd	r31, Y+11	; 0x0b
    218a:	20 e0       	ldi	r18, 0x00	; 0
    218c:	30 e0       	ldi	r19, 0x00	; 0
    218e:	40 e0       	ldi	r20, 0x00	; 0
    2190:	68 e2       	ldi	r22, 0x28	; 40
    2192:	09 95       	icall
    2194:	ee 81       	ldd	r30, Y+6	; 0x06
    2196:	ff 81       	ldd	r31, Y+7	; 0x07
    2198:	20 e0       	ldi	r18, 0x00	; 0
    219a:	30 e0       	ldi	r19, 0x00	; 0
    219c:	40 e0       	ldi	r20, 0x00	; 0
    219e:	64 e1       	ldi	r22, 0x14	; 20
    21a0:	ce 01       	movw	r24, r28
    21a2:	09 95       	icall
    21a4:	41 e0       	ldi	r20, 0x01	; 1
    21a6:	6b e4       	ldi	r22, 0x4B	; 75
    21a8:	ce 01       	movw	r24, r28
    21aa:	0e 94 36 12 	call	0x246c	; 0x246c <u8x8_gpio_call>
    21ae:	e8 81       	ld	r30, Y
    21b0:	f9 81       	ldd	r31, Y+1	; 0x01
    21b2:	44 81       	ldd	r20, Z+4	; 0x04
    21b4:	69 e2       	ldi	r22, 0x29	; 41
    21b6:	ce 01       	movw	r24, r28
    21b8:	0e 94 36 12 	call	0x246c	; 0x246c <u8x8_gpio_call>
    21bc:	40 e0       	ldi	r20, 0x00	; 0
    21be:	6b e4       	ldi	r22, 0x4B	; 75
    21c0:	ce 01       	movw	r24, r28
    21c2:	0e 94 36 12 	call	0x246c	; 0x246c <u8x8_gpio_call>
    21c6:	e8 81       	ld	r30, Y
    21c8:	f9 81       	ldd	r31, Y+1	; 0x01
    21ca:	44 81       	ldd	r20, Z+4	; 0x04
    21cc:	69 e2       	ldi	r22, 0x29	; 41
    21ce:	ce 01       	movw	r24, r28
    21d0:	0e 94 36 12 	call	0x246c	; 0x246c <u8x8_gpio_call>
    21d4:	41 e0       	ldi	r20, 0x01	; 1
    21d6:	6b e4       	ldi	r22, 0x4B	; 75
    21d8:	ce 01       	movw	r24, r28
    21da:	0e 94 36 12 	call	0x246c	; 0x246c <u8x8_gpio_call>
    21de:	e8 81       	ld	r30, Y
    21e0:	f9 81       	ldd	r31, Y+1	; 0x01
    21e2:	45 81       	ldd	r20, Z+5	; 0x05
    21e4:	69 e2       	ldi	r22, 0x29	; 41
    21e6:	ce 01       	movw	r24, r28
    21e8:	0e 94 36 12 	call	0x246c	; 0x246c <u8x8_gpio_call>
    21ec:	df 91       	pop	r29
    21ee:	cf 91       	pop	r28
    21f0:	08 95       	ret

000021f2 <u8x8_DrawTile>:
    21f2:	0f 93       	push	r16
    21f4:	1f 93       	push	r17
    21f6:	cf 93       	push	r28
    21f8:	df 93       	push	r29
    21fa:	00 d0       	rcall	.+0      	; 0x21fc <u8x8_DrawTile+0xa>
    21fc:	00 d0       	rcall	.+0      	; 0x21fe <u8x8_DrawTile+0xc>
    21fe:	1f 92       	push	r1
    2200:	cd b7       	in	r28, 0x3d	; 61
    2202:	de b7       	in	r29, 0x3e	; 62
    2204:	6c 83       	std	Y+4, r22	; 0x04
    2206:	4d 83       	std	Y+5, r20	; 0x05
    2208:	2b 83       	std	Y+3, r18	; 0x03
    220a:	1a 83       	std	Y+2, r17	; 0x02
    220c:	09 83       	std	Y+1, r16	; 0x01
    220e:	dc 01       	movw	r26, r24
    2210:	14 96       	adiw	r26, 0x04	; 4
    2212:	ed 91       	ld	r30, X+
    2214:	fc 91       	ld	r31, X
    2216:	15 97       	sbiw	r26, 0x05	; 5
    2218:	9e 01       	movw	r18, r28
    221a:	2f 5f       	subi	r18, 0xFF	; 255
    221c:	3f 4f       	sbci	r19, 0xFF	; 255
    221e:	41 e0       	ldi	r20, 0x01	; 1
    2220:	6f e0       	ldi	r22, 0x0F	; 15
    2222:	09 95       	icall
    2224:	0f 90       	pop	r0
    2226:	0f 90       	pop	r0
    2228:	0f 90       	pop	r0
    222a:	0f 90       	pop	r0
    222c:	0f 90       	pop	r0
    222e:	df 91       	pop	r29
    2230:	cf 91       	pop	r28
    2232:	1f 91       	pop	r17
    2234:	0f 91       	pop	r16
    2236:	08 95       	ret

00002238 <u8x8_SetupMemory>:
    2238:	dc 01       	movw	r26, r24
    223a:	14 96       	adiw	r26, 0x04	; 4
    223c:	ed 91       	ld	r30, X+
    223e:	fc 91       	ld	r31, X
    2240:	15 97       	sbiw	r26, 0x05	; 5
    2242:	20 e0       	ldi	r18, 0x00	; 0
    2244:	30 e0       	ldi	r19, 0x00	; 0
    2246:	40 e0       	ldi	r20, 0x00	; 0
    2248:	69 e0       	ldi	r22, 0x09	; 9
    224a:	09 95       	icall
    224c:	08 95       	ret

0000224e <u8x8_InitDisplay>:
    224e:	dc 01       	movw	r26, r24
    2250:	14 96       	adiw	r26, 0x04	; 4
    2252:	ed 91       	ld	r30, X+
    2254:	fc 91       	ld	r31, X
    2256:	15 97       	sbiw	r26, 0x05	; 5
    2258:	20 e0       	ldi	r18, 0x00	; 0
    225a:	30 e0       	ldi	r19, 0x00	; 0
    225c:	40 e0       	ldi	r20, 0x00	; 0
    225e:	6a e0       	ldi	r22, 0x0A	; 10
    2260:	09 95       	icall
    2262:	08 95       	ret

00002264 <u8x8_SetPowerSave>:
    2264:	46 2f       	mov	r20, r22
    2266:	dc 01       	movw	r26, r24
    2268:	14 96       	adiw	r26, 0x04	; 4
    226a:	ed 91       	ld	r30, X+
    226c:	fc 91       	ld	r31, X
    226e:	15 97       	sbiw	r26, 0x05	; 5
    2270:	20 e0       	ldi	r18, 0x00	; 0
    2272:	30 e0       	ldi	r19, 0x00	; 0
    2274:	6b e0       	ldi	r22, 0x0B	; 11
    2276:	09 95       	icall
    2278:	08 95       	ret

0000227a <u8x8_RefreshDisplay>:
}

void u8x8_RefreshDisplay(u8x8_t *u8x8)
{
  u8x8->display_cb(u8x8, U8X8_MSG_DISPLAY_REFRESH, 0, NULL);  
    227a:	dc 01       	movw	r26, r24
    227c:	14 96       	adiw	r26, 0x04	; 4
    227e:	ed 91       	ld	r30, X+
    2280:	fc 91       	ld	r31, X
    2282:	15 97       	sbiw	r26, 0x05	; 5
    2284:	20 e0       	ldi	r18, 0x00	; 0
    2286:	30 e0       	ldi	r19, 0x00	; 0
    2288:	40 e0       	ldi	r20, 0x00	; 0
    228a:	60 e1       	ldi	r22, 0x10	; 16
    228c:	09 95       	icall
    228e:	08 95       	ret

00002290 <u8x8_d_sbn1661_122x32>:
  /* pixel_width = */ 122,
  /* pixel_height = */ 32
};

uint8_t u8x8_d_sbn1661_122x32(u8x8_t *u8x8, uint8_t msg, uint8_t arg_int, void *arg_ptr)
{
    2290:	ef 92       	push	r14
    2292:	ff 92       	push	r15
    2294:	0f 93       	push	r16
    2296:	1f 93       	push	r17
    2298:	cf 93       	push	r28
    229a:	df 93       	push	r29
    229c:	ec 01       	movw	r28, r24
    229e:	89 01       	movw	r16, r18
  uint8_t *ptr;
  //uint8_t x;
  //uint8_t c;
  
  switch(msg)
    22a0:	6a 30       	cpi	r22, 0x0A	; 10
    22a2:	81 f0       	breq	.+32     	; 0x22c4 <u8x8_d_sbn1661_122x32+0x34>
    22a4:	18 f4       	brcc	.+6      	; 0x22ac <u8x8_d_sbn1661_122x32+0x1c>
    22a6:	69 30       	cpi	r22, 0x09	; 9
    22a8:	39 f0       	breq	.+14     	; 0x22b8 <u8x8_d_sbn1661_122x32+0x28>
    22aa:	d5 c0       	rjmp	.+426    	; 0x2456 <u8x8_d_sbn1661_122x32+0x1c6>
    22ac:	6b 30       	cpi	r22, 0x0B	; 11
    22ae:	c1 f1       	breq	.+112    	; 0x2320 <u8x8_d_sbn1661_122x32+0x90>
    22b0:	6f 30       	cpi	r22, 0x0F	; 15
    22b2:	09 f4       	brne	.+2      	; 0x22b6 <u8x8_d_sbn1661_122x32+0x26>
    22b4:	8c c0       	rjmp	.+280    	; 0x23ce <u8x8_d_sbn1661_122x32+0x13e>
    22b6:	cf c0       	rjmp	.+414    	; 0x2456 <u8x8_d_sbn1661_122x32+0x1c6>
  {
    case U8X8_MSG_DISPLAY_SETUP_MEMORY:
      u8x8_d_helper_display_setup_memory(u8x8, &u8x8_sbn1661_122x32_display_info);
    22b8:	6b e0       	ldi	r22, 0x0B	; 11
    22ba:	71 e0       	ldi	r23, 0x01	; 1
    22bc:	0e 94 b8 10 	call	0x2170	; 0x2170 <u8x8_d_helper_display_setup_memory>
    
      break;
    default:
      return 0;
  }
  return 1;
    22c0:	81 e0       	ldi	r24, 0x01	; 1
  
  switch(msg)
  {
    case U8X8_MSG_DISPLAY_SETUP_MEMORY:
      u8x8_d_helper_display_setup_memory(u8x8, &u8x8_sbn1661_122x32_display_info);
      break;
    22c2:	ca c0       	rjmp	.+404    	; 0x2458 <u8x8_d_sbn1661_122x32+0x1c8>
    case U8X8_MSG_DISPLAY_INIT:
      u8x8_d_helper_display_init(u8x8);
    22c4:	0e 94 c0 10 	call	0x2180	; 0x2180 <u8x8_d_helper_display_init>
    
      u8x8->cad_cb(u8x8, U8X8_MSG_CAD_START_TRANSFER, 0, NULL);
    22c8:	ee 81       	ldd	r30, Y+6	; 0x06
    22ca:	ff 81       	ldd	r31, Y+7	; 0x07
    22cc:	20 e0       	ldi	r18, 0x00	; 0
    22ce:	30 e0       	ldi	r19, 0x00	; 0
    22d0:	40 e0       	ldi	r20, 0x00	; 0
    22d2:	68 e1       	ldi	r22, 0x18	; 24
    22d4:	ce 01       	movw	r24, r28
    22d6:	09 95       	icall
      u8x8_cad_SendSequence(u8x8, u8x8_d_sbn1661_init_seq);
    22d8:	69 e2       	ldi	r22, 0x29	; 41
    22da:	71 e0       	ldi	r23, 0x01	; 1
    22dc:	ce 01       	movw	r24, r28
    22de:	0e 94 26 10 	call	0x204c	; 0x204c <u8x8_cad_SendSequence>
      u8x8->cad_cb(u8x8, U8X8_MSG_CAD_END_TRANSFER, 0, NULL);
    22e2:	ee 81       	ldd	r30, Y+6	; 0x06
    22e4:	ff 81       	ldd	r31, Y+7	; 0x07
    22e6:	20 e0       	ldi	r18, 0x00	; 0
    22e8:	30 e0       	ldi	r19, 0x00	; 0
    22ea:	40 e0       	ldi	r20, 0x00	; 0
    22ec:	69 e1       	ldi	r22, 0x19	; 25
    22ee:	ce 01       	movw	r24, r28
    22f0:	09 95       	icall
    
      u8x8->cad_cb(u8x8, U8X8_MSG_CAD_START_TRANSFER, 1, NULL);
    22f2:	ee 81       	ldd	r30, Y+6	; 0x06
    22f4:	ff 81       	ldd	r31, Y+7	; 0x07
    22f6:	20 e0       	ldi	r18, 0x00	; 0
    22f8:	30 e0       	ldi	r19, 0x00	; 0
    22fa:	41 e0       	ldi	r20, 0x01	; 1
    22fc:	68 e1       	ldi	r22, 0x18	; 24
    22fe:	ce 01       	movw	r24, r28
    2300:	09 95       	icall
      u8x8_cad_SendSequence(u8x8, u8x8_d_sbn1661_init_seq);
    2302:	69 e2       	ldi	r22, 0x29	; 41
    2304:	71 e0       	ldi	r23, 0x01	; 1
    2306:	ce 01       	movw	r24, r28
    2308:	0e 94 26 10 	call	0x204c	; 0x204c <u8x8_cad_SendSequence>
      u8x8->cad_cb(u8x8, U8X8_MSG_CAD_END_TRANSFER, 1, NULL);
    230c:	ee 81       	ldd	r30, Y+6	; 0x06
    230e:	ff 81       	ldd	r31, Y+7	; 0x07
    2310:	20 e0       	ldi	r18, 0x00	; 0
    2312:	30 e0       	ldi	r19, 0x00	; 0
    2314:	41 e0       	ldi	r20, 0x01	; 1
    2316:	69 e1       	ldi	r22, 0x19	; 25
    2318:	ce 01       	movw	r24, r28
    231a:	09 95       	icall
    
      break;
    default:
      return 0;
  }
  return 1;
    231c:	81 e0       	ldi	r24, 0x01	; 1
      u8x8->cad_cb(u8x8, U8X8_MSG_CAD_END_TRANSFER, 0, NULL);
    
      u8x8->cad_cb(u8x8, U8X8_MSG_CAD_START_TRANSFER, 1, NULL);
      u8x8_cad_SendSequence(u8x8, u8x8_d_sbn1661_init_seq);
      u8x8->cad_cb(u8x8, U8X8_MSG_CAD_END_TRANSFER, 1, NULL);
      break;
    231e:	9c c0       	rjmp	.+312    	; 0x2458 <u8x8_d_sbn1661_122x32+0x1c8>
    case U8X8_MSG_DISPLAY_SET_POWER_SAVE:
      
      if ( arg_int == 0 )
    2320:	41 11       	cpse	r20, r1
    2322:	2a c0       	rjmp	.+84     	; 0x2378 <u8x8_d_sbn1661_122x32+0xe8>
      {
	u8x8->cad_cb(u8x8, U8X8_MSG_CAD_START_TRANSFER, 0, NULL);
    2324:	ee 81       	ldd	r30, Y+6	; 0x06
    2326:	ff 81       	ldd	r31, Y+7	; 0x07
    2328:	20 e0       	ldi	r18, 0x00	; 0
    232a:	30 e0       	ldi	r19, 0x00	; 0
    232c:	68 e1       	ldi	r22, 0x18	; 24
    232e:	09 95       	icall
	u8x8_cad_SendSequence(u8x8, u8x8_d_sbn1661_powersave0_seq);
    2330:	66 e2       	ldi	r22, 0x26	; 38
    2332:	71 e0       	ldi	r23, 0x01	; 1
    2334:	ce 01       	movw	r24, r28
    2336:	0e 94 26 10 	call	0x204c	; 0x204c <u8x8_cad_SendSequence>
	u8x8->cad_cb(u8x8, U8X8_MSG_CAD_END_TRANSFER, 0, NULL);
    233a:	ee 81       	ldd	r30, Y+6	; 0x06
    233c:	ff 81       	ldd	r31, Y+7	; 0x07
    233e:	20 e0       	ldi	r18, 0x00	; 0
    2340:	30 e0       	ldi	r19, 0x00	; 0
    2342:	40 e0       	ldi	r20, 0x00	; 0
    2344:	69 e1       	ldi	r22, 0x19	; 25
    2346:	ce 01       	movw	r24, r28
    2348:	09 95       	icall

	u8x8->cad_cb(u8x8, U8X8_MSG_CAD_START_TRANSFER, 1, NULL);
    234a:	ee 81       	ldd	r30, Y+6	; 0x06
    234c:	ff 81       	ldd	r31, Y+7	; 0x07
    234e:	20 e0       	ldi	r18, 0x00	; 0
    2350:	30 e0       	ldi	r19, 0x00	; 0
    2352:	41 e0       	ldi	r20, 0x01	; 1
    2354:	68 e1       	ldi	r22, 0x18	; 24
    2356:	ce 01       	movw	r24, r28
    2358:	09 95       	icall
	u8x8_cad_SendSequence(u8x8, u8x8_d_sbn1661_powersave0_seq);
    235a:	66 e2       	ldi	r22, 0x26	; 38
    235c:	71 e0       	ldi	r23, 0x01	; 1
    235e:	ce 01       	movw	r24, r28
    2360:	0e 94 26 10 	call	0x204c	; 0x204c <u8x8_cad_SendSequence>
	u8x8->cad_cb(u8x8, U8X8_MSG_CAD_END_TRANSFER, 1, NULL);	
    2364:	ee 81       	ldd	r30, Y+6	; 0x06
    2366:	ff 81       	ldd	r31, Y+7	; 0x07
    2368:	20 e0       	ldi	r18, 0x00	; 0
    236a:	30 e0       	ldi	r19, 0x00	; 0
    236c:	41 e0       	ldi	r20, 0x01	; 1
    236e:	69 e1       	ldi	r22, 0x19	; 25
    2370:	ce 01       	movw	r24, r28
    2372:	09 95       	icall
    
      break;
    default:
      return 0;
  }
  return 1;
    2374:	81 e0       	ldi	r24, 0x01	; 1
    2376:	70 c0       	rjmp	.+224    	; 0x2458 <u8x8_d_sbn1661_122x32+0x1c8>
	u8x8_cad_SendSequence(u8x8, u8x8_d_sbn1661_powersave0_seq);
	u8x8->cad_cb(u8x8, U8X8_MSG_CAD_END_TRANSFER, 1, NULL);	
      }
      else
      {
	u8x8->cad_cb(u8x8, U8X8_MSG_CAD_START_TRANSFER, 0, NULL);
    2378:	ee 81       	ldd	r30, Y+6	; 0x06
    237a:	ff 81       	ldd	r31, Y+7	; 0x07
    237c:	20 e0       	ldi	r18, 0x00	; 0
    237e:	30 e0       	ldi	r19, 0x00	; 0
    2380:	40 e0       	ldi	r20, 0x00	; 0
    2382:	68 e1       	ldi	r22, 0x18	; 24
    2384:	09 95       	icall
	u8x8_cad_SendSequence(u8x8, u8x8_d_sbn1661_powersave1_seq);
    2386:	63 e2       	ldi	r22, 0x23	; 35
    2388:	71 e0       	ldi	r23, 0x01	; 1
    238a:	ce 01       	movw	r24, r28
    238c:	0e 94 26 10 	call	0x204c	; 0x204c <u8x8_cad_SendSequence>
	u8x8->cad_cb(u8x8, U8X8_MSG_CAD_END_TRANSFER, 0, NULL);
    2390:	ee 81       	ldd	r30, Y+6	; 0x06
    2392:	ff 81       	ldd	r31, Y+7	; 0x07
    2394:	20 e0       	ldi	r18, 0x00	; 0
    2396:	30 e0       	ldi	r19, 0x00	; 0
    2398:	40 e0       	ldi	r20, 0x00	; 0
    239a:	69 e1       	ldi	r22, 0x19	; 25
    239c:	ce 01       	movw	r24, r28
    239e:	09 95       	icall
	
	u8x8->cad_cb(u8x8, U8X8_MSG_CAD_START_TRANSFER, 1, NULL);
    23a0:	ee 81       	ldd	r30, Y+6	; 0x06
    23a2:	ff 81       	ldd	r31, Y+7	; 0x07
    23a4:	20 e0       	ldi	r18, 0x00	; 0
    23a6:	30 e0       	ldi	r19, 0x00	; 0
    23a8:	41 e0       	ldi	r20, 0x01	; 1
    23aa:	68 e1       	ldi	r22, 0x18	; 24
    23ac:	ce 01       	movw	r24, r28
    23ae:	09 95       	icall
	u8x8_cad_SendSequence(u8x8, u8x8_d_sbn1661_powersave1_seq);
    23b0:	63 e2       	ldi	r22, 0x23	; 35
    23b2:	71 e0       	ldi	r23, 0x01	; 1
    23b4:	ce 01       	movw	r24, r28
    23b6:	0e 94 26 10 	call	0x204c	; 0x204c <u8x8_cad_SendSequence>
	u8x8->cad_cb(u8x8, U8X8_MSG_CAD_END_TRANSFER, 1, NULL);
    23ba:	ee 81       	ldd	r30, Y+6	; 0x06
    23bc:	ff 81       	ldd	r31, Y+7	; 0x07
    23be:	20 e0       	ldi	r18, 0x00	; 0
    23c0:	30 e0       	ldi	r19, 0x00	; 0
    23c2:	41 e0       	ldi	r20, 0x01	; 1
    23c4:	69 e1       	ldi	r22, 0x19	; 25
    23c6:	ce 01       	movw	r24, r28
    23c8:	09 95       	icall
    
      break;
    default:
      return 0;
  }
  return 1;
    23ca:	81 e0       	ldi	r24, 0x01	; 1
    23cc:	45 c0       	rjmp	.+138    	; 0x2458 <u8x8_d_sbn1661_122x32+0x1c8>
	
      }
      break;
    case U8X8_MSG_DISPLAY_DRAW_TILE:

      ptr = ((u8x8_tile_t *)arg_ptr)->tile_ptr;
    23ce:	f9 01       	movw	r30, r18
    23d0:	e0 80       	ld	r14, Z
    23d2:	f1 80       	ldd	r15, Z+1	; 0x01
      // x and c are ignored (u8g2 only)
      //x = ((u8x8_tile_t *)arg_ptr)->x_pos;
      //c = ((u8x8_tile_t *)arg_ptr)->cnt;
      
      u8x8->cad_cb(u8x8, U8X8_MSG_CAD_START_TRANSFER, 0, NULL);
    23d4:	ee 81       	ldd	r30, Y+6	; 0x06
    23d6:	ff 81       	ldd	r31, Y+7	; 0x07
    23d8:	20 e0       	ldi	r18, 0x00	; 0
    23da:	30 e0       	ldi	r19, 0x00	; 0
    23dc:	40 e0       	ldi	r20, 0x00	; 0
    23de:	68 e1       	ldi	r22, 0x18	; 24
    23e0:	09 95       	icall
      u8x8_cad_SendCmd(u8x8, 0x000 | 0);		// column 0
    23e2:	60 e0       	ldi	r22, 0x00	; 0
    23e4:	ce 01       	movw	r24, r28
    23e6:	0e 94 11 10 	call	0x2022	; 0x2022 <u8x8_cad_SendCmd>
      u8x8_cad_SendCmd(u8x8, 0x0b8 | (((u8x8_tile_t *)arg_ptr)->y_pos));
    23ea:	f8 01       	movw	r30, r16
    23ec:	64 81       	ldd	r22, Z+4	; 0x04
    23ee:	68 6b       	ori	r22, 0xB8	; 184
    23f0:	ce 01       	movw	r24, r28
    23f2:	0e 94 11 10 	call	0x2022	; 0x2022 <u8x8_cad_SendCmd>
      u8x8_cad_SendData(u8x8, 61, ptr);	/* note: SendData can not handle more than 255 bytes */    
    23f6:	a7 01       	movw	r20, r14
    23f8:	6d e3       	ldi	r22, 0x3D	; 61
    23fa:	ce 01       	movw	r24, r28
    23fc:	0e 94 1c 10 	call	0x2038	; 0x2038 <u8x8_cad_SendData>
      u8x8->cad_cb(u8x8, U8X8_MSG_CAD_END_TRANSFER, 0, NULL);
    2400:	ee 81       	ldd	r30, Y+6	; 0x06
    2402:	ff 81       	ldd	r31, Y+7	; 0x07
    2404:	20 e0       	ldi	r18, 0x00	; 0
    2406:	30 e0       	ldi	r19, 0x00	; 0
    2408:	40 e0       	ldi	r20, 0x00	; 0
    240a:	69 e1       	ldi	r22, 0x19	; 25
    240c:	ce 01       	movw	r24, r28
    240e:	09 95       	icall

      ptr += 61;
      
      u8x8->cad_cb(u8x8, U8X8_MSG_CAD_START_TRANSFER, 1, NULL);
    2410:	ee 81       	ldd	r30, Y+6	; 0x06
    2412:	ff 81       	ldd	r31, Y+7	; 0x07
    2414:	20 e0       	ldi	r18, 0x00	; 0
    2416:	30 e0       	ldi	r19, 0x00	; 0
    2418:	41 e0       	ldi	r20, 0x01	; 1
    241a:	68 e1       	ldi	r22, 0x18	; 24
    241c:	ce 01       	movw	r24, r28
    241e:	09 95       	icall
      u8x8_cad_SendCmd(u8x8, 0x000 | 0);		// column 0
    2420:	60 e0       	ldi	r22, 0x00	; 0
    2422:	ce 01       	movw	r24, r28
    2424:	0e 94 11 10 	call	0x2022	; 0x2022 <u8x8_cad_SendCmd>
      u8x8_cad_SendCmd(u8x8, 0x0b8 | (((u8x8_tile_t *)arg_ptr)->y_pos));
    2428:	f8 01       	movw	r30, r16
    242a:	64 81       	ldd	r22, Z+4	; 0x04
    242c:	68 6b       	ori	r22, 0xB8	; 184
    242e:	ce 01       	movw	r24, r28
    2430:	0e 94 11 10 	call	0x2022	; 0x2022 <u8x8_cad_SendCmd>
    
      u8x8_cad_SendData(u8x8, 61, ptr);	/* note: SendData can not handle more than 255 bytes */    
    2434:	a7 01       	movw	r20, r14
    2436:	43 5c       	subi	r20, 0xC3	; 195
    2438:	5f 4f       	sbci	r21, 0xFF	; 255
    243a:	6d e3       	ldi	r22, 0x3D	; 61
    243c:	ce 01       	movw	r24, r28
    243e:	0e 94 1c 10 	call	0x2038	; 0x2038 <u8x8_cad_SendData>
      u8x8->cad_cb(u8x8, U8X8_MSG_CAD_END_TRANSFER, 1, NULL);
    2442:	ee 81       	ldd	r30, Y+6	; 0x06
    2444:	ff 81       	ldd	r31, Y+7	; 0x07
    2446:	20 e0       	ldi	r18, 0x00	; 0
    2448:	30 e0       	ldi	r19, 0x00	; 0
    244a:	41 e0       	ldi	r20, 0x01	; 1
    244c:	69 e1       	ldi	r22, 0x19	; 25
    244e:	ce 01       	movw	r24, r28
    2450:	09 95       	icall
    
      break;
    default:
      return 0;
  }
  return 1;
    2452:	81 e0       	ldi	r24, 0x01	; 1
      u8x8_cad_SendCmd(u8x8, 0x0b8 | (((u8x8_tile_t *)arg_ptr)->y_pos));
    
      u8x8_cad_SendData(u8x8, 61, ptr);	/* note: SendData can not handle more than 255 bytes */    
      u8x8->cad_cb(u8x8, U8X8_MSG_CAD_END_TRANSFER, 1, NULL);
    
      break;
    2454:	01 c0       	rjmp	.+2      	; 0x2458 <u8x8_d_sbn1661_122x32+0x1c8>
    default:
      return 0;
    2456:	80 e0       	ldi	r24, 0x00	; 0
  }
  return 1;
}
    2458:	df 91       	pop	r29
    245a:	cf 91       	pop	r28
    245c:	1f 91       	pop	r17
    245e:	0f 91       	pop	r16
    2460:	ff 90       	pop	r15
    2462:	ef 90       	pop	r14
    2464:	08 95       	ret

00002466 <u8x8_d_sed1520_122x32>:

uint8_t u8x8_d_sed1520_122x32(u8x8_t *u8x8, uint8_t msg, uint8_t arg_int, void *arg_ptr)
{
  return u8x8_d_sbn1661_122x32(u8x8, msg, arg_int, arg_ptr);
    2466:	0e 94 48 11 	call	0x2290	; 0x2290 <u8x8_d_sbn1661_122x32>

}
    246a:	08 95       	ret

0000246c <u8x8_gpio_call>:
#include "u8x8.h"


void u8x8_gpio_call(u8x8_t *u8x8, uint8_t msg, uint8_t arg)
{
  u8x8->gpio_and_delay_cb(u8x8, msg, arg, NULL);
    246c:	dc 01       	movw	r26, r24
    246e:	1a 96       	adiw	r26, 0x0a	; 10
    2470:	ed 91       	ld	r30, X+
    2472:	fc 91       	ld	r31, X
    2474:	1b 97       	sbiw	r26, 0x0b	; 11
    2476:	20 e0       	ldi	r18, 0x00	; 0
    2478:	30 e0       	ldi	r19, 0x00	; 0
    247a:	09 95       	icall
    247c:	08 95       	ret

0000247e <u8x8_dummy_cb>:
      u8x8_d_helper_display_init(u8x8);
      break;
  }
  /* the null device callback will succeed for all messages */
  return 1;
}
    247e:	80 e0       	ldi	r24, 0x00	; 0
    2480:	08 95       	ret

00002482 <u8x8_SetupDefaults>:
    Setup u8x8
  Args:
    u8x8	An empty u8x8 structure
*/
void u8x8_SetupDefaults(u8x8_t *u8x8)
{
    2482:	fc 01       	movw	r30, r24
    u8x8->display_info = NULL;
    2484:	11 82       	std	Z+1, r1	; 0x01
    2486:	10 82       	st	Z, r1
    u8x8->display_cb = u8x8_dummy_cb;
    2488:	8f e3       	ldi	r24, 0x3F	; 63
    248a:	92 e1       	ldi	r25, 0x12	; 18
    248c:	95 83       	std	Z+5, r25	; 0x05
    248e:	84 83       	std	Z+4, r24	; 0x04
    u8x8->cad_cb = u8x8_dummy_cb;
    2490:	97 83       	std	Z+7, r25	; 0x07
    2492:	86 83       	std	Z+6, r24	; 0x06
    u8x8->byte_cb = u8x8_dummy_cb;
    2494:	91 87       	std	Z+9, r25	; 0x09
    2496:	80 87       	std	Z+8, r24	; 0x08
    u8x8->gpio_and_delay_cb = u8x8_dummy_cb;
    2498:	93 87       	std	Z+11, r25	; 0x0b
    249a:	82 87       	std	Z+10, r24	; 0x0a
    u8x8->is_font_inverse_mode = 0;
    249c:	15 8a       	std	Z+21, r1	; 0x15
    u8x8->device_address = 0;
    249e:	10 8e       	std	Z+24, r1	; 0x18
    u8x8->utf8_state = 0;		/* also reset by u8x8_utf8_init */
    24a0:	11 8e       	std	Z+25, r1	; 0x19
    u8x8->bus_clock = 0;		/* issue 769 */
    24a2:	14 86       	std	Z+12, r1	; 0x0c
    24a4:	15 86       	std	Z+13, r1	; 0x0d
    24a6:	16 86       	std	Z+14, r1	; 0x0e
    24a8:	17 86       	std	Z+15, r1	; 0x0f
    u8x8->i2c_address = 255;
    24aa:	8f ef       	ldi	r24, 0xFF	; 255
    24ac:	86 8b       	std	Z+22, r24	; 0x16
    u8x8->debounce_default_pin_state = 255;	/* assume all low active buttons */
    24ae:	83 8f       	std	Z+27, r24	; 0x1b
    24b0:	08 95       	ret

000024b2 <u8x8_Setup>:
    byte_cb			Display controller/communication specific callback funtion
    gpio_and_delay_cb	Environment specific callback function

*/
void u8x8_Setup(u8x8_t *u8x8, u8x8_msg_cb display_cb, u8x8_msg_cb cad_cb, u8x8_msg_cb byte_cb, u8x8_msg_cb gpio_and_delay_cb)
{
    24b2:	af 92       	push	r10
    24b4:	bf 92       	push	r11
    24b6:	cf 92       	push	r12
    24b8:	df 92       	push	r13
    24ba:	ef 92       	push	r14
    24bc:	ff 92       	push	r15
    24be:	0f 93       	push	r16
    24c0:	1f 93       	push	r17
    24c2:	cf 93       	push	r28
    24c4:	df 93       	push	r29
    24c6:	ec 01       	movw	r28, r24
    24c8:	5b 01       	movw	r10, r22
    24ca:	6a 01       	movw	r12, r20
    24cc:	79 01       	movw	r14, r18
  /* setup defaults and reset pins to U8X8_PIN_NONE */
  u8x8_SetupDefaults(u8x8);
    24ce:	0e 94 41 12 	call	0x2482	; 0x2482 <u8x8_SetupDefaults>

  /* setup specific callbacks */
  u8x8->display_cb = display_cb;
    24d2:	bd 82       	std	Y+5, r11	; 0x05
    24d4:	ac 82       	std	Y+4, r10	; 0x04
  u8x8->cad_cb = cad_cb;
    24d6:	df 82       	std	Y+7, r13	; 0x07
    24d8:	ce 82       	std	Y+6, r12	; 0x06
  u8x8->byte_cb = byte_cb;
    24da:	f9 86       	std	Y+9, r15	; 0x09
    24dc:	e8 86       	std	Y+8, r14	; 0x08
  u8x8->gpio_and_delay_cb = gpio_and_delay_cb;
    24de:	1b 87       	std	Y+11, r17	; 0x0b
    24e0:	0a 87       	std	Y+10, r16	; 0x0a

  /* setup display info */
  u8x8_SetupMemory(u8x8);
    24e2:	ce 01       	movw	r24, r28
    24e4:	0e 94 1c 11 	call	0x2238	; 0x2238 <u8x8_SetupMemory>
}
    24e8:	df 91       	pop	r29
    24ea:	cf 91       	pop	r28
    24ec:	1f 91       	pop	r17
    24ee:	0f 91       	pop	r16
    24f0:	ff 90       	pop	r15
    24f2:	ef 90       	pop	r14
    24f4:	df 90       	pop	r13
    24f6:	cf 90       	pop	r12
    24f8:	bf 90       	pop	r11
    24fa:	af 90       	pop	r10
    24fc:	08 95       	ret

000024fe <__udivmodsi4>:
    24fe:	a1 e2       	ldi	r26, 0x21	; 33
    2500:	1a 2e       	mov	r1, r26
    2502:	aa 1b       	sub	r26, r26
    2504:	bb 1b       	sub	r27, r27
    2506:	fd 01       	movw	r30, r26
    2508:	0d c0       	rjmp	.+26     	; 0x2524 <__udivmodsi4_ep>

0000250a <__udivmodsi4_loop>:
    250a:	aa 1f       	adc	r26, r26
    250c:	bb 1f       	adc	r27, r27
    250e:	ee 1f       	adc	r30, r30
    2510:	ff 1f       	adc	r31, r31
    2512:	a2 17       	cp	r26, r18
    2514:	b3 07       	cpc	r27, r19
    2516:	e4 07       	cpc	r30, r20
    2518:	f5 07       	cpc	r31, r21
    251a:	20 f0       	brcs	.+8      	; 0x2524 <__udivmodsi4_ep>
    251c:	a2 1b       	sub	r26, r18
    251e:	b3 0b       	sbc	r27, r19
    2520:	e4 0b       	sbc	r30, r20
    2522:	f5 0b       	sbc	r31, r21

00002524 <__udivmodsi4_ep>:
    2524:	66 1f       	adc	r22, r22
    2526:	77 1f       	adc	r23, r23
    2528:	88 1f       	adc	r24, r24
    252a:	99 1f       	adc	r25, r25
    252c:	1a 94       	dec	r1
    252e:	69 f7       	brne	.-38     	; 0x250a <__udivmodsi4_loop>
    2530:	60 95       	com	r22
    2532:	70 95       	com	r23
    2534:	80 95       	com	r24
    2536:	90 95       	com	r25
    2538:	9b 01       	movw	r18, r22
    253a:	ac 01       	movw	r20, r24
    253c:	bd 01       	movw	r22, r26
    253e:	cf 01       	movw	r24, r30
    2540:	08 95       	ret

00002542 <__tablejump2__>:
    2542:	ee 0f       	add	r30, r30
    2544:	ff 1f       	adc	r31, r31
    2546:	05 90       	lpm	r0, Z+
    2548:	f4 91       	lpm	r31, Z
    254a:	e0 2d       	mov	r30, r0
    254c:	09 94       	ijmp

0000254e <__umulhisi3>:
    254e:	a2 9f       	mul	r26, r18
    2550:	b0 01       	movw	r22, r0
    2552:	b3 9f       	mul	r27, r19
    2554:	c0 01       	movw	r24, r0
    2556:	a3 9f       	mul	r26, r19
    2558:	70 0d       	add	r23, r0
    255a:	81 1d       	adc	r24, r1
    255c:	11 24       	eor	r1, r1
    255e:	91 1d       	adc	r25, r1
    2560:	b2 9f       	mul	r27, r18
    2562:	70 0d       	add	r23, r0
    2564:	81 1d       	adc	r24, r1
    2566:	11 24       	eor	r1, r1
    2568:	91 1d       	adc	r25, r1
    256a:	08 95       	ret

0000256c <memset>:
    256c:	dc 01       	movw	r26, r24
    256e:	01 c0       	rjmp	.+2      	; 0x2572 <memset+0x6>
    2570:	6d 93       	st	X+, r22
    2572:	41 50       	subi	r20, 0x01	; 1
    2574:	50 40       	sbci	r21, 0x00	; 0
    2576:	e0 f7       	brcc	.-8      	; 0x2570 <memset+0x4>
    2578:	08 95       	ret

0000257a <_exit>:
    257a:	f8 94       	cli

0000257c <__stop_program>:
    257c:	ff cf       	rjmp	.-2      	; 0x257c <__stop_program>
