
GccApplication1.elf:     file format elf32-avr

Sections:
Idx Name          Size      VMA       LMA       File off  Algn
  0 .data         0000013c  00800100  00002382  00002416  2**0
                  CONTENTS, ALLOC, LOAD, DATA
  1 .text         00002382  00000000  00000000  00000094  2**1
                  CONTENTS, ALLOC, LOAD, READONLY, CODE
  2 .bss          000002ae  0080023c  0080023c  00002552  2**0
                  ALLOC
  3 .comment      0000005c  00000000  00000000  00002552  2**0
                  CONTENTS, READONLY
  4 .note.gnu.avr.deviceinfo 0000003c  00000000  00000000  000025b0  2**2
                  CONTENTS, READONLY
  5 .debug_aranges 00001a98  00000000  00000000  000025ec  2**0
                  CONTENTS, READONLY, DEBUGGING
  6 .debug_info   00037cc4  00000000  00000000  00004084  2**0
                  CONTENTS, READONLY, DEBUGGING
  7 .debug_abbrev 00002dc2  00000000  00000000  0003bd48  2**0
                  CONTENTS, READONLY, DEBUGGING
  8 .debug_line   00009f43  00000000  00000000  0003eb0a  2**0
                  CONTENTS, READONLY, DEBUGGING
  9 .debug_frame  000097a8  00000000  00000000  00048a50  2**2
                  CONTENTS, READONLY, DEBUGGING
 10 .debug_str    0000cb36  00000000  00000000  000521f8  2**0
                  CONTENTS, READONLY, DEBUGGING
 11 .debug_loc    0003ba40  00000000  00000000  0005ed2e  2**0
                  CONTENTS, READONLY, DEBUGGING
 12 .debug_ranges 00001a30  00000000  00000000  0009a76e  2**0
                  CONTENTS, READONLY, DEBUGGING

Disassembly of section .text:

00000000 <__vectors>:
       0:	ed c1       	rjmp	.+986    	; 0x3dc <__ctors_end>
       2:	00 00       	nop
       4:	07 c2       	rjmp	.+1038   	; 0x414 <__bad_interrupt>
       6:	00 00       	nop
       8:	05 c2       	rjmp	.+1034   	; 0x414 <__bad_interrupt>
       a:	00 00       	nop
       c:	03 c2       	rjmp	.+1030   	; 0x414 <__bad_interrupt>
       e:	00 00       	nop
      10:	01 c2       	rjmp	.+1026   	; 0x414 <__bad_interrupt>
      12:	00 00       	nop
      14:	ff c1       	rjmp	.+1022   	; 0x414 <__bad_interrupt>
      16:	00 00       	nop
      18:	fd c1       	rjmp	.+1018   	; 0x414 <__bad_interrupt>
      1a:	00 00       	nop
      1c:	fb c1       	rjmp	.+1014   	; 0x414 <__bad_interrupt>
      1e:	00 00       	nop
      20:	f9 c1       	rjmp	.+1010   	; 0x414 <__bad_interrupt>
      22:	00 00       	nop
      24:	f7 c1       	rjmp	.+1006   	; 0x414 <__bad_interrupt>
      26:	00 00       	nop
      28:	f5 c1       	rjmp	.+1002   	; 0x414 <__bad_interrupt>
      2a:	00 00       	nop
      2c:	f3 c1       	rjmp	.+998    	; 0x414 <__bad_interrupt>
      2e:	00 00       	nop
      30:	f1 c1       	rjmp	.+994    	; 0x414 <__bad_interrupt>
      32:	00 00       	nop
      34:	ef c1       	rjmp	.+990    	; 0x414 <__bad_interrupt>
      36:	00 00       	nop
      38:	ed c1       	rjmp	.+986    	; 0x414 <__bad_interrupt>
      3a:	00 00       	nop
      3c:	eb c1       	rjmp	.+982    	; 0x414 <__bad_interrupt>
      3e:	00 00       	nop
      40:	e9 c1       	rjmp	.+978    	; 0x414 <__bad_interrupt>
      42:	00 00       	nop
      44:	e7 c1       	rjmp	.+974    	; 0x414 <__bad_interrupt>
      46:	00 00       	nop
      48:	e5 c1       	rjmp	.+970    	; 0x414 <__bad_interrupt>
      4a:	00 00       	nop
      4c:	e3 c1       	rjmp	.+966    	; 0x414 <__bad_interrupt>
      4e:	00 00       	nop
      50:	e1 c1       	rjmp	.+962    	; 0x414 <__bad_interrupt>
      52:	00 00       	nop
      54:	df c1       	rjmp	.+958    	; 0x414 <__bad_interrupt>
      56:	00 00       	nop
      58:	dd c1       	rjmp	.+954    	; 0x414 <__bad_interrupt>
      5a:	00 00       	nop
      5c:	db c1       	rjmp	.+950    	; 0x414 <__bad_interrupt>
      5e:	00 00       	nop
      60:	d9 c1       	rjmp	.+946    	; 0x414 <__bad_interrupt>
      62:	00 00       	nop
      64:	d7 c1       	rjmp	.+942    	; 0x414 <__bad_interrupt>
      66:	00 00       	nop
      68:	d5 c1       	rjmp	.+938    	; 0x414 <__bad_interrupt>
      6a:	00 00       	nop
      6c:	d3 c1       	rjmp	.+934    	; 0x414 <__bad_interrupt>
      6e:	00 00       	nop
      70:	96 02       	muls	r25, r22
      72:	ee 02       	muls	r30, r30
      74:	ee 02       	muls	r30, r30
      76:	ee 02       	muls	r30, r30
      78:	ee 02       	muls	r30, r30
      7a:	ee 02       	muls	r30, r30
      7c:	ee 02       	muls	r30, r30
      7e:	ee 02       	muls	r30, r30
      80:	ee 02       	muls	r30, r30
      82:	ee 02       	muls	r30, r30
      84:	ee 02       	muls	r30, r30
      86:	ee 02       	muls	r30, r30
      88:	ee 02       	muls	r30, r30
      8a:	ee 02       	muls	r30, r30
      8c:	ee 02       	muls	r30, r30
      8e:	ee 02       	muls	r30, r30
      90:	ee 02       	muls	r30, r30
      92:	ee 02       	muls	r30, r30
      94:	ee 02       	muls	r30, r30
      96:	ee 02       	muls	r30, r30
      98:	ee 02       	muls	r30, r30
      9a:	ee 02       	muls	r30, r30
      9c:	ee 02       	muls	r30, r30
      9e:	ee 02       	muls	r30, r30
      a0:	a5 02       	muls	r26, r21
      a2:	ab 02       	muls	r26, r27
      a4:	b1 02       	muls	r27, r17
      a6:	b7 02       	muls	r27, r23
      a8:	bd 02       	muls	r27, r29
      aa:	c3 02       	muls	r28, r19
      ac:	c9 02       	muls	r28, r25
      ae:	cf 02       	muls	r28, r31
      b0:	d5 02       	muls	r29, r21
      b2:	d9 02       	muls	r29, r25
      b4:	e2 02       	muls	r30, r18
      b6:	e8 02       	muls	r30, r24

000000b8 <__trampolines_end>:
      b8:	10 30       	cpi	r17, 0x00	; 0
      ba:	7c 36       	cpi	r23, 0x6C	; 108
      bc:	12 02       	muls	r17, r18
      be:	02 00       	.word	0x0002	; ????

000000c0 <left8x8>:
      c0:	08 0c 3e 6c 48 40 40 00                             ..>lH@@.

000000c8 <forward8x8>:
      c8:	00 10 38 7c 10 10 10 00                             ..8|....

000000d0 <backward8x8>:
      d0:	00 10 10 10 7c 38 10 00                             ....|8..

000000d8 <right20x20>:
      d8:	00 10 00 00 30 00 00 70 00 80 ff 00 e0 ff 01 f0     ....0..p........
      e8:	ff 03 f0 ff 01 f8 ff 00 f8 71 00 f8 30 00 f8 10     .........q..0...
      f8:	00 f8 00 00 f8 00 00 f8 00 00 f8 00 00 f8 00 00     ................
     108:	f8 00 00 f8 00 00 f8 00 00 00 00 00                 ............

00000114 <left20x20>:
     114:	80 00 00 c0 00 00 e0 00 00 f0 1f 00 f8 7f 00 fc     ................
     124:	ff 00 f8 ff 00 f0 ff 01 e0 f8 01 c0 f0 01 80 f0     ................
     134:	01 00 f0 01 00 f0 01 00 f0 01 00 f0 01 00 f0 01     ................
     144:	00 f0 01 00 f0 01 00 f0 01 00 00 00                 ............

00000150 <forward20x20>:
     150:	00 00 00 00 04 00 00 0e 00 00 1f 00 80 3f 00 c0     .............?..
     160:	7f 00 e0 ff 00 f0 ff 01 80 3f 00 80 3f 00 80 3f     .........?..?..?
     170:	00 80 3f 00 80 3f 00 80 3f 00 80 3f 00 80 3f 00     ..?..?..?..?..?.
     180:	80 3f 00 80 3f 00 80 3f 00 00 00 00                 .?..?..?....

0000018c <backward20x20>:
     18c:	00 00 00 80 3f 00 80 3f 00 80 3f 00 80 3f 00 80     ....?..?..?..?..
     19c:	3f 00 80 3f 00 80 3f 00 80 3f 00 80 3f 00 80 3f     ?..?..?..?..?..?
     1ac:	00 80 3f 00 f0 ff 01 e0 ff 00 c0 7f 00 80 3f 00     ..?...........?.
     1bc:	00 1f 00 00 0e 00 00 04 00 00 00 00                 ............

000001c8 <u8g2_font_profont22_tn>:
     1c8:	12 00 04 04 04 05 03 04 05 0b 14 00 fc 0e fc 10     ................
     1d8:	fe 00 00 00 00 01 3c 20 05 00 88 1c 2a 13 aa c8     ......< ....*...
     1e8:	9c 04 0a 12 22 84 89 21 23 4c 24 12 28 08 00 2b     ...."..!#L$.(..+
     1f8:	0d aa a8 9c 04 ca e8 41 21 81 32 02 2c 0f 95 4c     .......A!.2.,..L
     208:	5c 84 90 20 32 46 c8 88 69 c2 00 2d 06 26 ec 1c     \.. 2F..i..-.&..
     218:	18 2e 0a 44 9e 3c 44 a0 10 01 00 2f 1c 4b 49 3c     ...D.<D..../.KI<
     228:	25 14 29 50 a4 40 91 02 45 0a 14 29 50 a4 40 91     %.)P.@..E..)P.@.
     238:	02 45 0a 14 29 12 00 30 19 ea 88 5c cc a0 18 54     .E..)..0...\...T
     248:	aa 90 99 23 23 48 0c 39 63 a8 54 a1 11 68 8c 00     ...##H.9c.T..h..
     258:	31 0d ea 88 9c 04 8a aa 50 fe e8 41 01 32 11 ea     1.......P..A.2..
     268:	88 5c cc a0 18 54 4c a0 b8 61 f3 d9 83 02 33 17     .\...TL..a....3.
     278:	ea 88 5c cc a0 18 54 4c a0 38 51 c4 0a 0e 24 56     ..\...TL.8Q...$V
     288:	68 04 1a 23 00 34 19 ea 88 dc c4 0d 23 55 68 84     h..#.4......#Uh.
     298:	98 21 42 c6 08 11 24 e4 41 31 81 c2 0c 19 35 14     .!B...$.A1....5.
     2a8:	ea 88 1c 1e 1c 14 88 24 e1 40 09 89 15 1a 81 c6     .......$.@......
     2b8:	08 00 36 15 ea 88 5c cc 1c 19 27 10 49 0a 51 c5     ..6...\...'.I.Q.
     2c8:	68 56 68 04 1a 23 00 37 0f ea 88 1c 1e 14 94 dd     hVh..#.7........
     2d8:	b0 d9 09 94 23 00 38 19 ea 88 5c cc a0 18 54 8c     ....#.8...\...T.
     2e8:	98 08 41 62 cc a0 18 54 8c 58 a1 11 68 8c 00 39     ..Ab...T.X..h..9
     2f8:	15 ea 88 5c cc a0 18 54 8c 66 a5 44 24 41 28 6e     ...\...T.f.D$A(n
     308:	c8 19 23 00 3a 0d a4 9e 3c 44 a0 10 2a 02 85 08     ..#.:...<D..*...
     318:	00 00 00 00 04 ff ff 00 00                          .........

00000321 <u8g2_font_5x8_tn>:
     321:	12 00 02 02 03 03 02 04 04 05 08 00 ff 07 ff 07     ................
     331:	ff 00 00 00 00 00 9e 20 05 80 df 00 2a 09 ac d8     ....... ....*...
     341:	c4 a4 46 52 31 2b 0a ad d8 66 14 87 cc 28 02 2c     ..FR1+...f...(.,
     351:	06 db d7 a9 12 2d 06 8c da 8c 00 2e 07 db d7 a5     .....-..........
     361:	95 00 2f 0a b4 d8 83 0c 62 1b 64 00 30 07 f3 d8     ../.....b.d.0...
     371:	55 ae 0a 31 07 f3 d8 25 d9 1a 32 0b b4 d8 a9 98     U..1...%..2.....
     381:	41 52 19 8c 00 33 0a b4 d8 8c 18 35 92 49 01 34     AR...3.....5.I.4
     391:	0a b4 d8 46 55 8d 98 41 02 35 0a b4 d8 0c 0d 36     ...FU..A.5.....6
     3a1:	92 49 01 36 0a b4 d8 a9 0c 56 94 49 01 37 0b b4     .I.6.....V.I.7..
     3b1:	d8 8c 0c 62 06 31 83 08 38 0a b4 d8 a9 98 54 94     ...b.1..8.....T.
     3c1:	49 01 39 0a b4 d8 a9 28 d3 06 49 01 3a 07 ea d8     I.9....(..I.:...
     3d1:	8c 38 02 00 00 00 04 ff ff 00 00                    .8.........

000003dc <__ctors_end>:
     3dc:	11 24       	eor	r1, r1
     3de:	1f be       	out	0x3f, r1	; 63
     3e0:	cf ef       	ldi	r28, 0xFF	; 255
     3e2:	d4 e0       	ldi	r29, 0x04	; 4
     3e4:	de bf       	out	0x3e, r29	; 62
     3e6:	cd bf       	out	0x3d, r28	; 61

000003e8 <__do_copy_data>:
     3e8:	12 e0       	ldi	r17, 0x02	; 2
     3ea:	a0 e0       	ldi	r26, 0x00	; 0
     3ec:	b1 e0       	ldi	r27, 0x01	; 1
     3ee:	e2 e8       	ldi	r30, 0x82	; 130
     3f0:	f3 e2       	ldi	r31, 0x23	; 35
     3f2:	02 c0       	rjmp	.+4      	; 0x3f8 <__do_copy_data+0x10>
     3f4:	05 90       	lpm	r0, Z+
     3f6:	0d 92       	st	X+, r0
     3f8:	ac 33       	cpi	r26, 0x3C	; 60
     3fa:	b1 07       	cpc	r27, r17
     3fc:	d9 f7       	brne	.-10     	; 0x3f4 <__do_copy_data+0xc>

000003fe <__do_clear_bss>:
     3fe:	24 e0       	ldi	r18, 0x04	; 4
     400:	ac e3       	ldi	r26, 0x3C	; 60
     402:	b2 e0       	ldi	r27, 0x02	; 2
     404:	01 c0       	rjmp	.+2      	; 0x408 <.do_clear_bss_start>

00000406 <.do_clear_bss_loop>:
     406:	1d 92       	st	X+, r1

00000408 <.do_clear_bss_start>:
     408:	aa 3e       	cpi	r26, 0xEA	; 234
     40a:	b2 07       	cpc	r27, r18
     40c:	e1 f7       	brne	.-8      	; 0x406 <.do_clear_bss_loop>
     40e:	b2 d3       	rcall	.+1892   	; 0xb74 <main>
     410:	0c 94 bf 11 	jmp	0x237e	; 0x237e <_exit>

00000414 <__bad_interrupt>:
     414:	f5 cd       	rjmp	.-1046   	; 0x0 <__vectors>

00000416 <pwm_start>:
	 TCCR1B = 0;
 }

 void pwm_amp_freq(char amp, unsigned short freq){
	 OCR1A = freq;
	 OCR1B = amp;
     416:	81 e3       	ldi	r24, 0x31	; 49
     418:	8f bd       	out	0x2f, r24	; 47
     41a:	82 e1       	ldi	r24, 0x12	; 18
     41c:	8e bd       	out	0x2e, r24	; 46
     41e:	82 e3       	ldi	r24, 0x32	; 50
     420:	90 e0       	ldi	r25, 0x00	; 0
     422:	99 bd       	out	0x29, r25	; 41
     424:	88 bd       	out	0x28, r24	; 40
     426:	84 ef       	ldi	r24, 0xF4	; 244
     428:	91 e0       	ldi	r25, 0x01	; 1
     42a:	9b bd       	out	0x2b, r25	; 43
     42c:	8a bd       	out	0x2a, r24	; 42
     42e:	08 95       	ret

00000430 <beep_delay_ms>:
 }

 void beep_delay_ms(unsigned char ms){
	for (unsigned char i=0;i<ms;i++){
     430:	90 e0       	ldi	r25, 0x00	; 0
     432:	98 17       	cp	r25, r24
     434:	41 f0       	breq	.+16     	; 0x446 <beep_delay_ms+0x16>
	#else
		//round up by default
		__ticks_dc = (uint32_t)(ceil(fabs(__tmp)));
	#endif

	__builtin_avr_delay_cycles(__ticks_dc);
     436:	eb eb       	ldi	r30, 0xBB	; 187
     438:	f7 e0       	ldi	r31, 0x07	; 7
     43a:	31 97       	sbiw	r30, 0x01	; 1
     43c:	f1 f7       	brne	.-4      	; 0x43a <beep_delay_ms+0xa>
     43e:	00 c0       	rjmp	.+0      	; 0x440 <beep_delay_ms+0x10>
     440:	00 00       	nop
     442:	9f 5f       	subi	r25, 0xFF	; 255
     444:	f6 cf       	rjmp	.-20     	; 0x432 <beep_delay_ms+0x2>
		_delay_us(990);
	}
 }
     446:	08 95       	ret

00000448 <blip>:

 void blip(sound_t sound){
     448:	0f 93       	push	r16
     44a:	1f 93       	push	r17
     44c:	cf 93       	push	r28
     44e:	df 93       	push	r29
     450:	d6 2f       	mov	r29, r22
     452:	07 2f       	mov	r16, r23
     454:	18 2f       	mov	r17, r24
	 pwm_start();
     456:	df df       	rcall	.-66     	; 0x416 <pwm_start>
	 for (unsigned char step=0;step<sound.len;step++){
     458:	c0 e0       	ldi	r28, 0x00	; 0
     45a:	cd 17       	cp	r28, r29
     45c:	a0 f4       	brcc	.+40     	; 0x486 <blip+0x3e>
		pwm_amp_freq(sound.samples[step].duty,sound.samples[step].freq);
     45e:	f8 01       	movw	r30, r16
     460:	86 e0       	ldi	r24, 0x06	; 6
     462:	c8 9f       	mul	r28, r24
     464:	e0 0d       	add	r30, r0
     466:	f1 1d       	adc	r31, r1
     468:	11 24       	eor	r1, r1
     46a:	22 81       	ldd	r18, Z+2	; 0x02
     46c:	33 81       	ldd	r19, Z+3	; 0x03
     46e:	80 81       	ld	r24, Z
 void pwm_stop(){
	 TCCR1B = 0;
 }

 void pwm_amp_freq(char amp, unsigned short freq){
	 OCR1A = freq;
     470:	3b bd       	out	0x2b, r19	; 43
     472:	2a bd       	out	0x2a, r18	; 42
	 OCR1B = amp;
     474:	08 2e       	mov	r0, r24
     476:	00 0c       	add	r0, r0
     478:	99 0b       	sbc	r25, r25
     47a:	99 bd       	out	0x29, r25	; 41
     47c:	88 bd       	out	0x28, r24	; 40

 void blip(sound_t sound){
	 pwm_start();
	 for (unsigned char step=0;step<sound.len;step++){
		pwm_amp_freq(sound.samples[step].duty,sound.samples[step].freq);
		beep_delay_ms(sound.samples[step].period);
     47e:	84 81       	ldd	r24, Z+4	; 0x04
     480:	d7 df       	rcall	.-82     	; 0x430 <beep_delay_ms>
	}
 }

 void blip(sound_t sound){
	 pwm_start();
	 for (unsigned char step=0;step<sound.len;step++){
     482:	cf 5f       	subi	r28, 0xFF	; 255
     484:	ea cf       	rjmp	.-44     	; 0x45a <blip+0x12>
	 OCR1B = 50;
	 OCR1A = 500UL;
 }

 void pwm_stop(){
	 TCCR1B = 0;
     486:	1e bc       	out	0x2e, r1	; 46
	 for (unsigned char step=0;step<sound.len;step++){
		pwm_amp_freq(sound.samples[step].duty,sound.samples[step].freq);
		beep_delay_ms(sound.samples[step].period);
	 }
	 pwm_stop();
	 CLR(BEEPER);
     488:	3a 98       	cbi	0x07, 2	; 7
 }
     48a:	df 91       	pop	r29
     48c:	cf 91       	pop	r28
     48e:	1f 91       	pop	r17
     490:	0f 91       	pop	r16
     492:	08 95       	ret

00000494 <u8x8_avr_delay>:
void draw_mode_num(char yes){

}

/// Р’С‹РІРѕРґРёС‚/СЃС‚РёСЂР°РµС‚ Р·РЅР°С‡РѕРє Edit
void draw_mode_edt(char yes){
     494:	6a 32       	cpi	r22, 0x2A	; 42
     496:	61 f0       	breq	.+24     	; 0x4b0 <u8x8_avr_delay+0x1c>
     498:	30 f4       	brcc	.+12     	; 0x4a6 <u8x8_avr_delay+0x12>
     49a:	69 32       	cpi	r22, 0x29	; 41
     49c:	a1 f5       	brne	.+104    	; 0x506 <__stack+0x7>
     49e:	80 e0       	ldi	r24, 0x00	; 0
     4a0:	90 e0       	ldi	r25, 0x00	; 0
     4a2:	50 e0       	ldi	r21, 0x00	; 0
     4a4:	25 c0       	rjmp	.+74     	; 0x4f0 <u8x8_avr_delay+0x5c>
     4a6:	6b 32       	cpi	r22, 0x2B	; 43
     4a8:	39 f0       	breq	.+14     	; 0x4b8 <u8x8_avr_delay+0x24>
     4aa:	6c 32       	cpi	r22, 0x2C	; 44
     4ac:	b1 f0       	breq	.+44     	; 0x4da <u8x8_avr_delay+0x46>
     4ae:	2b c0       	rjmp	.+86     	; 0x506 <__stack+0x7>
     4b0:	80 e0       	ldi	r24, 0x00	; 0
     4b2:	90 e0       	ldi	r25, 0x00	; 0
     4b4:	50 e0       	ldi	r21, 0x00	; 0
     4b6:	13 c0       	rjmp	.+38     	; 0x4de <u8x8_avr_delay+0x4a>
     4b8:	24 2f       	mov	r18, r20
     4ba:	30 e0       	ldi	r19, 0x00	; 0
     4bc:	a4 e6       	ldi	r26, 0x64	; 100
     4be:	b0 e0       	ldi	r27, 0x00	; 0
     4c0:	0e 94 d8 0e 	call	0x1db0	; 0x1db0 <__umulhisi3>
     4c4:	24 ef       	ldi	r18, 0xF4	; 244
     4c6:	31 e0       	ldi	r19, 0x01	; 1
     4c8:	40 e0       	ldi	r20, 0x00	; 0
     4ca:	50 e0       	ldi	r21, 0x00	; 0
     4cc:	0e 94 b0 0e 	call	0x1d60	; 0x1d60 <__udivmodsi4>
     4d0:	23 32       	cpi	r18, 0x23	; 35
     4d2:	18 f4       	brcc	.+6      	; 0x4da <u8x8_avr_delay+0x46>
     4d4:	82 2f       	mov	r24, r18
     4d6:	01 97       	sbiw	r24, 0x01	; 1
     4d8:	f1 f7       	brne	.-4      	; 0x4d6 <u8x8_avr_delay+0x42>
     4da:	81 e0       	ldi	r24, 0x01	; 1
     4dc:	08 95       	ret
     4de:	84 17       	cp	r24, r20
     4e0:	95 07       	cpc	r25, r21
     4e2:	dc f7       	brge	.-10     	; 0x4da <u8x8_avr_delay+0x46>
     4e4:	2a e1       	ldi	r18, 0x1A	; 26
     4e6:	2a 95       	dec	r18
     4e8:	f1 f7       	brne	.-4      	; 0x4e6 <u8x8_avr_delay+0x52>
     4ea:	00 c0       	rjmp	.+0      	; 0x4ec <u8x8_avr_delay+0x58>
     4ec:	01 96       	adiw	r24, 0x01	; 1
     4ee:	f7 cf       	rjmp	.-18     	; 0x4de <u8x8_avr_delay+0x4a>
     4f0:	84 17       	cp	r24, r20
     4f2:	95 07       	cpc	r25, r21
     4f4:	94 f7       	brge	.-28     	; 0x4da <u8x8_avr_delay+0x46>
     4f6:	ef ec       	ldi	r30, 0xCF	; 207
     4f8:	f7 e0       	ldi	r31, 0x07	; 7
     4fa:	31 97       	sbiw	r30, 0x01	; 1
     4fc:	f1 f7       	brne	.-4      	; 0x4fa <u8x8_avr_delay+0x66>
     4fe:	00 c0       	rjmp	.+0      	; 0x500 <__stack+0x1>
     500:	00 00       	nop
     502:	01 96       	adiw	r24, 0x01	; 1
     504:	f5 cf       	rjmp	.-22     	; 0x4f0 <u8x8_avr_delay+0x5c>
     506:	80 e0       	ldi	r24, 0x00	; 0
     508:	08 95       	ret

0000050a <u8x8_gpio_and_delay>:
     50a:	0f 93       	push	r16
     50c:	1f 93       	push	r17
     50e:	cf 93       	push	r28
     510:	df 93       	push	r29
     512:	d9 01       	movw	r26, r18
     514:	06 2f       	mov	r16, r22
     516:	10 e0       	ldi	r17, 0x00	; 0
     518:	f8 01       	movw	r30, r16
     51a:	b8 97       	sbiw	r30, 0x28	; 40
     51c:	e4 32       	cpi	r30, 0x24	; 36
     51e:	f1 05       	cpc	r31, r1
     520:	08 f0       	brcs	.+2      	; 0x524 <u8x8_gpio_and_delay+0x1a>
     522:	5c c0       	rjmp	.+184    	; 0x5dc <u8x8_gpio_and_delay+0xd2>
     524:	e8 5c       	subi	r30, 0xC8	; 200
     526:	ff 4f       	sbci	r31, 0xFF	; 255
     528:	0c 94 d2 0e 	jmp	0x1da4	; 0x1da4 <__tablejump2__>
     52c:	d5 9a       	sbi	0x1a, 5	; 26
     52e:	d4 9a       	sbi	0x1a, 4	; 26
     530:	d3 9a       	sbi	0x1a, 3	; 26
     532:	d2 9a       	sbi	0x1a, 2	; 26
     534:	bc 9a       	sbi	0x17, 4	; 23
     536:	bb 9a       	sbi	0x17, 3	; 23
     538:	ba 9a       	sbi	0x17, 2	; 23
     53a:	b9 9a       	sbi	0x17, 1	; 23
     53c:	d7 9a       	sbi	0x1a, 7	; 26
     53e:	b8 9a       	sbi	0x17, 0	; 23
     540:	d6 9a       	sbi	0x1a, 6	; 26
     542:	d1 9a       	sbi	0x1a, 1	; 26
     544:	d0 9a       	sbi	0x1a, 0	; 26
     546:	d9 9a       	sbi	0x1b, 1	; 27
     548:	45 c0       	rjmp	.+138    	; 0x5d4 <u8x8_gpio_and_delay+0xca>
     54a:	44 23       	and	r20, r20
     54c:	11 f0       	breq	.+4      	; 0x552 <u8x8_gpio_and_delay+0x48>
     54e:	dd 9a       	sbi	0x1b, 5	; 27
     550:	4c c0       	rjmp	.+152    	; 0x5ea <u8x8_gpio_and_delay+0xe0>
     552:	dd 98       	cbi	0x1b, 5	; 27
     554:	4a c0       	rjmp	.+148    	; 0x5ea <u8x8_gpio_and_delay+0xe0>
     556:	44 23       	and	r20, r20
     558:	11 f0       	breq	.+4      	; 0x55e <u8x8_gpio_and_delay+0x54>
     55a:	dc 9a       	sbi	0x1b, 4	; 27
     55c:	46 c0       	rjmp	.+140    	; 0x5ea <u8x8_gpio_and_delay+0xe0>
     55e:	dc 98       	cbi	0x1b, 4	; 27
     560:	44 c0       	rjmp	.+136    	; 0x5ea <u8x8_gpio_and_delay+0xe0>
     562:	44 23       	and	r20, r20
     564:	11 f0       	breq	.+4      	; 0x56a <u8x8_gpio_and_delay+0x60>
     566:	db 9a       	sbi	0x1b, 3	; 27
     568:	40 c0       	rjmp	.+128    	; 0x5ea <u8x8_gpio_and_delay+0xe0>
     56a:	db 98       	cbi	0x1b, 3	; 27
     56c:	3e c0       	rjmp	.+124    	; 0x5ea <u8x8_gpio_and_delay+0xe0>
     56e:	44 23       	and	r20, r20
     570:	11 f0       	breq	.+4      	; 0x576 <u8x8_gpio_and_delay+0x6c>
     572:	da 9a       	sbi	0x1b, 2	; 27
     574:	3a c0       	rjmp	.+116    	; 0x5ea <u8x8_gpio_and_delay+0xe0>
     576:	da 98       	cbi	0x1b, 2	; 27
     578:	38 c0       	rjmp	.+112    	; 0x5ea <u8x8_gpio_and_delay+0xe0>
     57a:	44 23       	and	r20, r20
     57c:	11 f0       	breq	.+4      	; 0x582 <u8x8_gpio_and_delay+0x78>
     57e:	c4 9a       	sbi	0x18, 4	; 24
     580:	34 c0       	rjmp	.+104    	; 0x5ea <u8x8_gpio_and_delay+0xe0>
     582:	c4 98       	cbi	0x18, 4	; 24
     584:	32 c0       	rjmp	.+100    	; 0x5ea <u8x8_gpio_and_delay+0xe0>
     586:	44 23       	and	r20, r20
     588:	11 f0       	breq	.+4      	; 0x58e <u8x8_gpio_and_delay+0x84>
     58a:	c3 9a       	sbi	0x18, 3	; 24
     58c:	2e c0       	rjmp	.+92     	; 0x5ea <u8x8_gpio_and_delay+0xe0>
     58e:	c3 98       	cbi	0x18, 3	; 24
     590:	2c c0       	rjmp	.+88     	; 0x5ea <u8x8_gpio_and_delay+0xe0>
     592:	44 23       	and	r20, r20
     594:	11 f0       	breq	.+4      	; 0x59a <u8x8_gpio_and_delay+0x90>
     596:	c2 9a       	sbi	0x18, 2	; 24
     598:	28 c0       	rjmp	.+80     	; 0x5ea <u8x8_gpio_and_delay+0xe0>
     59a:	c2 98       	cbi	0x18, 2	; 24
     59c:	26 c0       	rjmp	.+76     	; 0x5ea <u8x8_gpio_and_delay+0xe0>
     59e:	44 23       	and	r20, r20
     5a0:	11 f0       	breq	.+4      	; 0x5a6 <u8x8_gpio_and_delay+0x9c>
     5a2:	c1 9a       	sbi	0x18, 1	; 24
     5a4:	22 c0       	rjmp	.+68     	; 0x5ea <u8x8_gpio_and_delay+0xe0>
     5a6:	c1 98       	cbi	0x18, 1	; 24
     5a8:	20 c0       	rjmp	.+64     	; 0x5ea <u8x8_gpio_and_delay+0xe0>
     5aa:	df 9a       	sbi	0x1b, 7	; 27
     5ac:	44 23       	and	r20, r20
     5ae:	41 f0       	breq	.+16     	; 0x5c0 <u8x8_gpio_and_delay+0xb6>
     5b0:	04 c0       	rjmp	.+8      	; 0x5ba <u8x8_gpio_and_delay+0xb0>
     5b2:	df 98       	cbi	0x1b, 7	; 27
     5b4:	44 23       	and	r20, r20
     5b6:	19 f0       	breq	.+6      	; 0x5be <u8x8_gpio_and_delay+0xb4>
     5b8:	d9 9a       	sbi	0x1b, 1	; 27
     5ba:	d9 9a       	sbi	0x1b, 1	; 27
     5bc:	16 c0       	rjmp	.+44     	; 0x5ea <u8x8_gpio_and_delay+0xe0>
     5be:	d9 98       	cbi	0x1b, 1	; 27
     5c0:	d9 98       	cbi	0x1b, 1	; 27
     5c2:	13 c0       	rjmp	.+38     	; 0x5ea <u8x8_gpio_and_delay+0xe0>
     5c4:	44 23       	and	r20, r20
     5c6:	11 f0       	breq	.+4      	; 0x5cc <u8x8_gpio_and_delay+0xc2>
     5c8:	c0 9a       	sbi	0x18, 0	; 24
     5ca:	0f c0       	rjmp	.+30     	; 0x5ea <u8x8_gpio_and_delay+0xe0>
     5cc:	c0 98       	cbi	0x18, 0	; 24
     5ce:	0d c0       	rjmp	.+26     	; 0x5ea <u8x8_gpio_and_delay+0xe0>
     5d0:	44 23       	and	r20, r20
     5d2:	11 f0       	breq	.+4      	; 0x5d8 <u8x8_gpio_and_delay+0xce>
     5d4:	de 9a       	sbi	0x1b, 6	; 27
     5d6:	09 c0       	rjmp	.+18     	; 0x5ea <u8x8_gpio_and_delay+0xe0>
     5d8:	de 98       	cbi	0x1b, 6	; 27
     5da:	07 c0       	rjmp	.+14     	; 0x5ea <u8x8_gpio_and_delay+0xe0>
     5dc:	9d 01       	movw	r18, r26
     5de:	ec 01       	movw	r28, r24
     5e0:	59 df       	rcall	.-334    	; 0x494 <u8x8_avr_delay>
     5e2:	81 11       	cpse	r24, r1
     5e4:	02 c0       	rjmp	.+4      	; 0x5ea <u8x8_gpio_and_delay+0xe0>
     5e6:	81 e0       	ldi	r24, 0x01	; 1
     5e8:	8a 8f       	std	Y+26, r24	; 0x1a
     5ea:	81 e0       	ldi	r24, 0x01	; 1
     5ec:	df 91       	pop	r29
     5ee:	cf 91       	pop	r28
     5f0:	1f 91       	pop	r17
     5f2:	0f 91       	pop	r16
     5f4:	08 95       	ret

000005f6 <init_display>:
     5f6:	25 e8       	ldi	r18, 0x85	; 133
     5f8:	32 e0       	ldi	r19, 0x02	; 2
     5fa:	41 e3       	ldi	r20, 0x31	; 49
     5fc:	5c e0       	ldi	r21, 0x0C	; 12
     5fe:	66 e0       	ldi	r22, 0x06	; 6
     600:	72 e0       	ldi	r23, 0x02	; 2
     602:	82 e4       	ldi	r24, 0x42	; 66
     604:	94 e0       	ldi	r25, 0x04	; 4
     606:	96 d3       	rcall	.+1836   	; 0xd34 <u8g2_Setup_mt12232_122x32_f>
     608:	82 e4       	ldi	r24, 0x42	; 66
     60a:	94 e0       	ldi	r25, 0x04	; 4
     60c:	0e 94 93 0d 	call	0x1b26	; 0x1b26 <u8x8_InitDisplay>
     610:	60 e0       	ldi	r22, 0x00	; 0
     612:	82 e4       	ldi	r24, 0x42	; 66
     614:	94 e0       	ldi	r25, 0x04	; 4
     616:	0c 94 9d 0d 	jmp	0x1b3a	; 0x1b3a <u8x8_SetPowerSave>

0000061a <show_logo>:
     61a:	61 e2       	ldi	r22, 0x21	; 33
     61c:	73 e0       	ldi	r23, 0x03	; 3
     61e:	82 e4       	ldi	r24, 0x42	; 66
     620:	94 e0       	ldi	r25, 0x04	; 4
     622:	1b d7       	rcall	.+3638   	; 0x145a <u8g2_SetFont>
     624:	82 e4       	ldi	r24, 0x42	; 66
     626:	94 e0       	ldi	r25, 0x04	; 4
     628:	77 c3       	rjmp	.+1774   	; 0xd18 <u8g2_SendBuffer>

0000062a <draw_cmd_line>:
     62a:	ef 92       	push	r14
     62c:	ff 92       	push	r15
     62e:	0f 93       	push	r16
     630:	cf 93       	push	r28
     632:	c6 2f       	mov	r28, r22
     634:	88 0f       	add	r24, r24
     636:	99 0b       	sbc	r25, r25
     638:	fc 01       	movw	r30, r24
     63a:	e8 50       	subi	r30, 0x08	; 8
     63c:	fe 4f       	sbci	r31, 0xFE	; 254
     63e:	e0 80       	ld	r14, Z
     640:	f1 80       	ldd	r15, Z+1	; 0x01
     642:	04 e1       	ldi	r16, 0x14	; 20
     644:	24 e1       	ldi	r18, 0x14	; 20
     646:	4b e0       	ldi	r20, 0x0B	; 11
     648:	6e e3       	ldi	r22, 0x3E	; 62
     64a:	82 e4       	ldi	r24, 0x42	; 66
     64c:	94 e0       	ldi	r25, 0x04	; 4
     64e:	ef d2       	rcall	.+1502   	; 0xc2e <u8g2_DrawXBMP>
     650:	1f 92       	push	r1
     652:	cf 93       	push	r28
     654:	83 ee       	ldi	r24, 0xE3	; 227
     656:	91 e0       	ldi	r25, 0x01	; 1
     658:	9f 93       	push	r25
     65a:	8f 93       	push	r24
     65c:	8c e3       	ldi	r24, 0x3C	; 60
     65e:	92 e0       	ldi	r25, 0x02	; 2
     660:	9f 93       	push	r25
     662:	8f 93       	push	r24
     664:	0e 94 e7 0e 	call	0x1dce	; 0x1dce <sprintf>
     668:	68 ec       	ldi	r22, 0xC8	; 200
     66a:	71 e0       	ldi	r23, 0x01	; 1
     66c:	82 e4       	ldi	r24, 0x42	; 66
     66e:	94 e0       	ldi	r25, 0x04	; 4
     670:	f4 d6       	rcall	.+3560   	; 0x145a <u8g2_SetFont>
     672:	2c e3       	ldi	r18, 0x3C	; 60
     674:	32 e0       	ldi	r19, 0x02	; 2
     676:	4d e1       	ldi	r20, 0x1D	; 29
     678:	62 e5       	ldi	r22, 0x52	; 82
     67a:	82 e4       	ldi	r24, 0x42	; 66
     67c:	94 e0       	ldi	r25, 0x04	; 4
     67e:	9c d6       	rcall	.+3384   	; 0x13b8 <u8g2_DrawStr>
     680:	0f 90       	pop	r0
     682:	0f 90       	pop	r0
     684:	0f 90       	pop	r0
     686:	0f 90       	pop	r0
     688:	0f 90       	pop	r0
     68a:	0f 90       	pop	r0
     68c:	82 e4       	ldi	r24, 0x42	; 66
     68e:	94 e0       	ldi	r25, 0x04	; 4
     690:	cf 91       	pop	r28
     692:	0f 91       	pop	r16
     694:	ff 90       	pop	r15
     696:	ef 90       	pop	r14
     698:	3f c3       	rjmp	.+1662   	; 0xd18 <u8g2_SendBuffer>

0000069a <draw_prg_list>:
/// Р»РёСЃС‚РёРЅРі РІС‹РІРѕРґРёС‚СЃСЏ РІ 2 РєРѕР»РѕРЅРєРё РїРѕ 4 Р·Р°РїРёСЃРё
#define MAX_COL 2
#define MAX_ROW 4
#define PRGREC_W 25
#define PRGREC_H 8
void draw_prg_list(prg_t *prg){
     69a:	2f 92       	push	r2
     69c:	3f 92       	push	r3
     69e:	4f 92       	push	r4
     6a0:	5f 92       	push	r5
     6a2:	6f 92       	push	r6
     6a4:	7f 92       	push	r7
     6a6:	8f 92       	push	r8
     6a8:	9f 92       	push	r9
     6aa:	af 92       	push	r10
     6ac:	bf 92       	push	r11
     6ae:	cf 92       	push	r12
     6b0:	df 92       	push	r13
     6b2:	ef 92       	push	r14
     6b4:	ff 92       	push	r15
     6b6:	0f 93       	push	r16
     6b8:	1f 93       	push	r17
     6ba:	cf 93       	push	r28
     6bc:	df 93       	push	r29
     6be:	00 d0       	rcall	.+0      	; 0x6c0 <draw_prg_list+0x26>
     6c0:	00 d0       	rcall	.+0      	; 0x6c2 <draw_prg_list+0x28>
     6c2:	cd b7       	in	r28, 0x3d	; 61
     6c4:	de b7       	in	r29, 0x3e	; 62
     6c6:	f8 2e       	mov	r15, r24
     6c8:	19 2f       	mov	r17, r25
	u8g2_SetFont(&u8g2, /*u8g2_font_cu12_t_cyrillic*/ u8g2_font_5x8_tn );
     6ca:	61 e2       	ldi	r22, 0x21	; 33
     6cc:	73 e0       	ldi	r23, 0x03	; 3
     6ce:	82 e4       	ldi	r24, 0x42	; 66
     6d0:	94 e0       	ldi	r25, 0x04	; 4
     6d2:	c3 d6       	rcall	.+3462   	; 0x145a <u8g2_SetFont>
     6d4:	fb 82       	std	Y+3, r15	; 0x03
     6d6:	1c 83       	std	Y+4, r17	; 0x04
     6d8:	c1 2c       	mov	r12, r1
     6da:	d1 2c       	mov	r13, r1
     6dc:	31 2c       	mov	r3, r1
	/// РџРѕ РєРѕР»РѕРЅРєР°Рј
	for (char col=0;col<MAX_COL;col++){
		// РџРѕ СЃС‚СЂРѕС‡РєР°Рј
		for (char row=0;row<MAX_ROW;row++){
			/// РќР°РїРµС‡Р°С‚Р°С‚СЊ РІ РЅСѓР¶РЅРѕРј РјРµСЃС‚Рµ СЃРёРјРІРѕР» РєСѓСЂСЃРѕСЂР°
			if ((MAX_ROW*col+row)==prg->cur_pos){
     6de:	8b 81       	ldd	r24, Y+3	; 0x03
     6e0:	9c 81       	ldd	r25, Y+4	; 0x04
     6e2:	8f 5b       	subi	r24, 0xBF	; 191
     6e4:	9f 4f       	sbci	r25, 0xFF	; 255
     6e6:	9a 83       	std	Y+2, r25	; 0x02
     6e8:	89 83       	std	Y+1, r24	; 0x01
				u8g2_DrawStr(&u8g2,col*PRGREC_W,row*PRGREC_H+PRGREC_H,">");
			}
			u8g2_DrawXBMP(&u8g2, col*PRGREC_W,row*PRGREC_H,8,8,cmd_gliphs8x8[prg->prg_rows[MAX_ROW*col+row].code]);
			sprintf(arg_str,"%03u",prg->prg_rows[MAX_ROW*col+row].arg);
     6ea:	93 ee       	ldi	r25, 0xE3	; 227
     6ec:	49 2e       	mov	r4, r25
     6ee:	91 e0       	ldi	r25, 0x01	; 1
     6f0:	59 2e       	mov	r5, r25
     6f2:	2c e3       	ldi	r18, 0x3C	; 60
     6f4:	62 2e       	mov	r6, r18
     6f6:	22 e0       	ldi	r18, 0x02	; 2
     6f8:	72 2e       	mov	r7, r18
     6fa:	89 e0       	ldi	r24, 0x09	; 9
     6fc:	28 2e       	mov	r2, r24
     6fe:	23 0c       	add	r2, r3
/// Р»РёСЃС‚РёРЅРі РІС‹РІРѕРґРёС‚СЃСЏ РІ 2 РєРѕР»РѕРЅРєРё РїРѕ 4 Р·Р°РїРёСЃРё
#define MAX_COL 2
#define MAX_ROW 4
#define PRGREC_W 25
#define PRGREC_H 8
void draw_prg_list(prg_t *prg){
     700:	ab 80       	ldd	r10, Y+3	; 0x03
     702:	bc 80       	ldd	r11, Y+4	; 0x04
     704:	46 01       	movw	r8, r12
     706:	18 e0       	ldi	r17, 0x08	; 8
	/// РџРѕ РєРѕР»РѕРЅРєР°Рј
	for (char col=0;col<MAX_COL;col++){
		// РџРѕ СЃС‚СЂРѕС‡РєР°Рј
		for (char row=0;row<MAX_ROW;row++){
			/// РќР°РїРµС‡Р°С‚Р°С‚СЊ РІ РЅСѓР¶РЅРѕРј РјРµСЃС‚Рµ СЃРёРјРІРѕР» РєСѓСЂСЃРѕСЂР°
			if ((MAX_ROW*col+row)==prg->cur_pos){
     708:	a9 81       	ldd	r26, Y+1	; 0x01
     70a:	ba 81       	ldd	r27, Y+2	; 0x02
     70c:	8c 91       	ld	r24, X
     70e:	90 e0       	ldi	r25, 0x00	; 0
     710:	88 16       	cp	r8, r24
     712:	99 06       	cpc	r9, r25
     714:	39 f4       	brne	.+14     	; 0x724 <draw_prg_list+0x8a>
				u8g2_DrawStr(&u8g2,col*PRGREC_W,row*PRGREC_H+PRGREC_H,">");
     716:	28 ee       	ldi	r18, 0xE8	; 232
     718:	31 e0       	ldi	r19, 0x01	; 1
     71a:	41 2f       	mov	r20, r17
     71c:	63 2d       	mov	r22, r3
     71e:	82 e4       	ldi	r24, 0x42	; 66
     720:	94 e0       	ldi	r25, 0x04	; 4
     722:	4a d6       	rcall	.+3220   	; 0x13b8 <u8g2_DrawStr>
			}
			u8g2_DrawXBMP(&u8g2, col*PRGREC_W,row*PRGREC_H,8,8,cmd_gliphs8x8[prg->prg_rows[MAX_ROW*col+row].code]);
     724:	d5 01       	movw	r26, r10
     726:	ec 91       	ld	r30, X
     728:	ee 0f       	add	r30, r30
     72a:	ff 0b       	sbc	r31, r31
     72c:	e6 51       	subi	r30, 0x16	; 22
     72e:	fe 4f       	sbci	r31, 0xFE	; 254
     730:	e0 80       	ld	r14, Z
     732:	f1 80       	ldd	r15, Z+1	; 0x01
     734:	48 ef       	ldi	r20, 0xF8	; 248
     736:	41 0f       	add	r20, r17
     738:	08 e0       	ldi	r16, 0x08	; 8
     73a:	28 e0       	ldi	r18, 0x08	; 8
     73c:	63 2d       	mov	r22, r3
     73e:	82 e4       	ldi	r24, 0x42	; 66
     740:	94 e0       	ldi	r25, 0x04	; 4
     742:	75 d2       	rcall	.+1258   	; 0xc2e <u8g2_DrawXBMP>
			sprintf(arg_str,"%03u",prg->prg_rows[MAX_ROW*col+row].arg);
     744:	f5 01       	movw	r30, r10
     746:	81 81       	ldd	r24, Z+1	; 0x01
     748:	1f 92       	push	r1
     74a:	8f 93       	push	r24
     74c:	5f 92       	push	r5
     74e:	4f 92       	push	r4
     750:	7f 92       	push	r7
     752:	6f 92       	push	r6
     754:	0e 94 e7 0e 	call	0x1dce	; 0x1dce <sprintf>
			u8g2_DrawStr(&u8g2, col*PRGREC_W+9,row*PRGREC_H+PRGREC_H,arg_str);
     758:	2c e3       	ldi	r18, 0x3C	; 60
     75a:	32 e0       	ldi	r19, 0x02	; 2
     75c:	41 2f       	mov	r20, r17
     75e:	62 2d       	mov	r22, r2
     760:	82 e4       	ldi	r24, 0x42	; 66
     762:	94 e0       	ldi	r25, 0x04	; 4
     764:	29 d6       	rcall	.+3154   	; 0x13b8 <u8g2_DrawStr>
     766:	ff ef       	ldi	r31, 0xFF	; 255
     768:	8f 1a       	sub	r8, r31
     76a:	9f 0a       	sbc	r9, r31
     76c:	82 e0       	ldi	r24, 0x02	; 2
     76e:	a8 0e       	add	r10, r24
     770:	b1 1c       	adc	r11, r1
     772:	18 5f       	subi	r17, 0xF8	; 248
void draw_prg_list(prg_t *prg){
	u8g2_SetFont(&u8g2, /*u8g2_font_cu12_t_cyrillic*/ u8g2_font_5x8_tn );
	/// РџРѕ РєРѕР»РѕРЅРєР°Рј
	for (char col=0;col<MAX_COL;col++){
		// РџРѕ СЃС‚СЂРѕС‡РєР°Рј
		for (char row=0;row<MAX_ROW;row++){
     774:	0f 90       	pop	r0
     776:	0f 90       	pop	r0
     778:	0f 90       	pop	r0
     77a:	0f 90       	pop	r0
     77c:	0f 90       	pop	r0
     77e:	0f 90       	pop	r0
     780:	18 32       	cpi	r17, 0x28	; 40
     782:	09 f0       	breq	.+2      	; 0x786 <draw_prg_list+0xec>
     784:	c1 cf       	rjmp	.-126    	; 0x708 <draw_prg_list+0x6e>
     786:	99 e1       	ldi	r25, 0x19	; 25
     788:	39 0e       	add	r3, r25
     78a:	a4 e0       	ldi	r26, 0x04	; 4
     78c:	ca 0e       	add	r12, r26
     78e:	d1 1c       	adc	r13, r1
     790:	eb 81       	ldd	r30, Y+3	; 0x03
     792:	fc 81       	ldd	r31, Y+4	; 0x04
     794:	38 96       	adiw	r30, 0x08	; 8
     796:	fc 83       	std	Y+4, r31	; 0x04
     798:	eb 83       	std	Y+3, r30	; 0x03
#define PRGREC_W 25
#define PRGREC_H 8
void draw_prg_list(prg_t *prg){
	u8g2_SetFont(&u8g2, /*u8g2_font_cu12_t_cyrillic*/ u8g2_font_5x8_tn );
	/// РџРѕ РєРѕР»РѕРЅРєР°Рј
	for (char col=0;col<MAX_COL;col++){
     79a:	f8 e0       	ldi	r31, 0x08	; 8
     79c:	cf 16       	cp	r12, r31
     79e:	d1 04       	cpc	r13, r1
     7a0:	09 f0       	breq	.+2      	; 0x7a4 <draw_prg_list+0x10a>
     7a2:	ab cf       	rjmp	.-170    	; 0x6fa <draw_prg_list+0x60>
			u8g2_DrawXBMP(&u8g2, col*PRGREC_W,row*PRGREC_H,8,8,cmd_gliphs8x8[prg->prg_rows[MAX_ROW*col+row].code]);
			sprintf(arg_str,"%03u",prg->prg_rows[MAX_ROW*col+row].arg);
			u8g2_DrawStr(&u8g2, col*PRGREC_W+9,row*PRGREC_H+PRGREC_H,arg_str);
		}
	}
     7a4:	0f 90       	pop	r0
     7a6:	0f 90       	pop	r0
     7a8:	0f 90       	pop	r0
     7aa:	0f 90       	pop	r0
     7ac:	df 91       	pop	r29
     7ae:	cf 91       	pop	r28
     7b0:	1f 91       	pop	r17
     7b2:	0f 91       	pop	r16
     7b4:	ff 90       	pop	r15
     7b6:	ef 90       	pop	r14
     7b8:	df 90       	pop	r13
     7ba:	cf 90       	pop	r12
     7bc:	bf 90       	pop	r11
     7be:	af 90       	pop	r10
     7c0:	9f 90       	pop	r9
     7c2:	8f 90       	pop	r8
     7c4:	7f 90       	pop	r7
     7c6:	6f 90       	pop	r6
     7c8:	5f 90       	pop	r5
     7ca:	4f 90       	pop	r4
     7cc:	3f 90       	pop	r3
     7ce:	2f 90       	pop	r2
     7d0:	08 95       	ret

000007d2 <move_cursor.part.0>:
}

// Стирает всю программу
void clear_prg(){
	programm.len=0;
	programm.cur_pos=0;
     7d2:	80 91 e9 04 	lds	r24, 0x04E9	; 0x8004e9 <programm+0x41>
     7d6:	90 91 e8 04 	lds	r25, 0x04E8	; 0x8004e8 <programm+0x40>
     7da:	89 17       	cp	r24, r25
     7dc:	20 f4       	brcc	.+8      	; 0x7e6 <move_cursor.part.0+0x14>
     7de:	8f 5f       	subi	r24, 0xFF	; 255
     7e0:	80 93 e9 04 	sts	0x04E9, r24	; 0x8004e9 <programm+0x41>
     7e4:	08 95       	ret
     7e6:	10 92 e9 04 	sts	0x04E9, r1	; 0x8004e9 <programm+0x41>
     7ea:	08 95       	ret

000007ec <add_to_prg>:
     7ec:	a8 ee       	ldi	r26, 0xE8	; 232
     7ee:	b4 e0       	ldi	r27, 0x04	; 4
     7f0:	8c 91       	ld	r24, X
     7f2:	e8 2f       	mov	r30, r24
     7f4:	f0 e0       	ldi	r31, 0x00	; 0
     7f6:	ee 0f       	add	r30, r30
     7f8:	ff 1f       	adc	r31, r31
     7fa:	e8 55       	subi	r30, 0x58	; 88
     7fc:	fb 4f       	sbci	r31, 0xFB	; 251
     7fe:	90 91 40 02 	lds	r25, 0x0240	; 0x800240 <curr_cmd>
     802:	90 83       	st	Z, r25
     804:	90 91 00 01 	lds	r25, 0x0100	; 0x800100 <__data_start>
     808:	91 83       	std	Z+1, r25	; 0x01
     80a:	8f 5f       	subi	r24, 0xFF	; 255
     80c:	8c 93       	st	X, r24
     80e:	88 ea       	ldi	r24, 0xA8	; 168
     810:	94 e0       	ldi	r25, 0x04	; 4
     812:	43 cf       	rjmp	.-378    	; 0x69a <draw_prg_list>

00000814 <delete_line>:
     814:	80 91 e9 04 	lds	r24, 0x04E9	; 0x8004e9 <programm+0x41>
     818:	8f 5f       	subi	r24, 0xFF	; 255
     81a:	90 91 e8 04 	lds	r25, 0x04E8	; 0x8004e8 <programm+0x40>
     81e:	89 17       	cp	r24, r25
     820:	88 f4       	brcc	.+34     	; 0x844 <delete_line+0x30>
     822:	28 2f       	mov	r18, r24
     824:	30 e0       	ldi	r19, 0x00	; 0
     826:	d9 01       	movw	r26, r18
     828:	aa 0f       	add	r26, r26
     82a:	bb 1f       	adc	r27, r27
     82c:	aa 55       	subi	r26, 0x5A	; 90
     82e:	bb 4f       	sbci	r27, 0xFB	; 251
     830:	22 0f       	add	r18, r18
     832:	33 1f       	adc	r19, r19
     834:	f9 01       	movw	r30, r18
     836:	e8 55       	subi	r30, 0x58	; 88
     838:	fb 4f       	sbci	r31, 0xFB	; 251
     83a:	20 81       	ld	r18, Z
     83c:	31 81       	ldd	r19, Z+1	; 0x01
     83e:	2d 93       	st	X+, r18
     840:	3c 93       	st	X, r19
     842:	ea cf       	rjmp	.-44     	; 0x818 <delete_line+0x4>
     844:	91 50       	subi	r25, 0x01	; 1
     846:	90 93 e8 04 	sts	0x04E8, r25	; 0x8004e8 <programm+0x40>
     84a:	88 ea       	ldi	r24, 0xA8	; 168
     84c:	94 e0       	ldi	r25, 0x04	; 4
     84e:	25 cf       	rjmp	.-438    	; 0x69a <draw_prg_list>

00000850 <move_cursor>:
     850:	81 11       	cpse	r24, r1
     852:	bf cf       	rjmp	.-130    	; 0x7d2 <move_cursor.part.0>
     854:	80 91 e9 04 	lds	r24, 0x04E9	; 0x8004e9 <programm+0x41>
     858:	88 23       	and	r24, r24
     85a:	11 f0       	breq	.+4      	; 0x860 <move_cursor+0x10>
     85c:	81 50       	subi	r24, 0x01	; 1
     85e:	02 c0       	rjmp	.+4      	; 0x864 <move_cursor+0x14>
     860:	80 91 e8 04 	lds	r24, 0x04E8	; 0x8004e8 <programm+0x40>
     864:	80 93 e9 04 	sts	0x04E9, r24	; 0x8004e9 <programm+0x41>
     868:	08 95       	ret

0000086a <set_cmd>:
}

void set_cmd(char cmd){
	if (cmd!=curr_cmd){
     86a:	90 91 40 02 	lds	r25, 0x0240	; 0x800240 <curr_cmd>
     86e:	98 17       	cp	r25, r24
     870:	39 f0       	breq	.+14     	; 0x880 <set_cmd+0x16>
		// Ввод новой команды
		curr_cmd = cmd;
     872:	80 93 40 02 	sts	0x0240, r24	; 0x800240 <curr_cmd>
		curr_arg = 1;
     876:	91 e0       	ldi	r25, 0x01	; 1
     878:	90 93 00 01 	sts	0x0100, r25	; 0x800100 <__data_start>
		draw_cmd_line(cmd,curr_arg);
     87c:	61 e0       	ldi	r22, 0x01	; 1
     87e:	06 c0       	rjmp	.+12     	; 0x88c <set_cmd+0x22>
	}else{
		// Увеличение аргумента
		curr_arg++;
     880:	60 91 00 01 	lds	r22, 0x0100	; 0x800100 <__data_start>
     884:	6f 5f       	subi	r22, 0xFF	; 255
     886:	60 93 00 01 	sts	0x0100, r22	; 0x800100 <__data_start>
		draw_cmd_line(cmd,curr_arg);
     88a:	89 2f       	mov	r24, r25
     88c:	ce ce       	rjmp	.-612    	; 0x62a <draw_cmd_line>

0000088e <process_cmd_key>:
	}

}

int process_cmd_key(char key){
	switch(key){
     88e:	87 30       	cpi	r24, 0x07	; 7
     890:	34 f4       	brge	.+12     	; 0x89e <process_cmd_key+0x10>
     892:	81 30       	cpi	r24, 0x01	; 1
     894:	54 f4       	brge	.+20     	; 0x8aa <process_cmd_key+0x1c>
     896:	81 11       	cpse	r24, r1
     898:	12 c0       	rjmp	.+36     	; 0x8be <process_cmd_key+0x30>
		/// Если введена команда - перейти в режим ввода числового аргумента
		state = STATE_ARG;
		return 2;
	case 0:
		// В режиме команды это переход в режим редактирования
		state = STATE_EDT;
     89a:	83 e0       	ldi	r24, 0x03	; 3
     89c:	0b c0       	rjmp	.+22     	; 0x8b4 <process_cmd_key+0x26>
	}

}

int process_cmd_key(char key){
	switch(key){
     89e:	89 30       	cpi	r24, 0x09	; 9
     8a0:	41 f0       	breq	.+16     	; 0x8b2 <process_cmd_key+0x24>
     8a2:	8d 30       	cpi	r24, 0x0D	; 13
     8a4:	61 f4       	brne	.+24     	; 0x8be <process_cmd_key+0x30>
		state = STATE_EDT;
		return 2;
	case 0x0d:
		// Завершить ввод команды
		/// подшить введенную строчку в программу
		add_to_prg();
     8a6:	a2 df       	rcall	.-188    	; 0x7ec <add_to_prg>
     8a8:	07 c0       	rjmp	.+14     	; 0x8b8 <process_cmd_key+0x2a>
	case 2:
	case 3:
	case 4:
	case 5:
	case 6:
		set_cmd(key);
     8aa:	df df       	rcall	.-66     	; 0x86a <set_cmd>
     8ac:	81 e0       	ldi	r24, 0x01	; 1
		return 1;
     8ae:	90 e0       	ldi	r25, 0x00	; 0
     8b0:	08 95       	ret
     8b2:	82 e0       	ldi	r24, 0x02	; 2
	case 9:
		/// Если введена команда - перейти в режим ввода числового аргумента
		state = STATE_ARG;
     8b4:	80 93 01 01 	sts	0x0101, r24	; 0x800101 <state>
		return 2;
	case 0:
		// В режиме команды это переход в режим редактирования
		state = STATE_EDT;
     8b8:	82 e0       	ldi	r24, 0x02	; 2
		return 2;
	case 0x0d:
		// Завершить ввод команды
		/// подшить введенную строчку в программу
		add_to_prg();
		return 2;
     8ba:	90 e0       	ldi	r25, 0x00	; 0
     8bc:	08 95       	ret
     8be:	80 e0       	ldi	r24, 0x00	; 0
	default:
		return 0;
     8c0:	90 e0       	ldi	r25, 0x00	; 0
     8c2:	08 95       	ret

000008c4 <process_arg_key>:
	}
}
     8c4:	8d 30       	cpi	r24, 0x0D	; 13

int process_arg_key(char key){
	switch(key){
     8c6:	29 f0       	breq	.+10     	; 0x8d2 <process_arg_key+0xe>
     8c8:	83 34       	cpi	r24, 0x43	; 67
     8ca:	39 f0       	breq	.+14     	; 0x8da <process_arg_key+0x16>
		/// Завершить ввод
		/// подшить введенную строчку в программу
		add_to_prg();
		return 2;
	default:
		return 0;
     8cc:	80 e0       	ldi	r24, 0x00	; 0
     8ce:	90 e0       	ldi	r25, 0x00	; 0
     8d0:	08 95       	ret
		/// Стереть введенную цифру, если цыфа была последняя - перейти в режим cmd
		return 1;
	case 0x0d:
		/// Завершить ввод
		/// подшить введенную строчку в программу
		add_to_prg();
     8d2:	8c df       	rcall	.-232    	; 0x7ec <add_to_prg>
		return 2;
     8d4:	82 e0       	ldi	r24, 0x02	; 2
     8d6:	90 e0       	ldi	r25, 0x00	; 0
     8d8:	08 95       	ret

int process_arg_key(char key){
	switch(key){
	case 'C':
		/// Стереть введенную цифру, если цыфа была последняя - перейти в режим cmd
		return 1;
     8da:	81 e0       	ldi	r24, 0x01	; 1
     8dc:	90 e0       	ldi	r25, 0x00	; 0
		add_to_prg();
		return 2;
	default:
		return 0;
	}
}
     8de:	08 95       	ret

000008e0 <process_edt_key>:

int process_edt_key(char key){
	switch(key){
     8e0:	82 33       	cpi	r24, 0x32	; 50
     8e2:	69 f0       	breq	.+26     	; 0x8fe <process_edt_key+0x1e>
     8e4:	2c f4       	brge	.+10     	; 0x8f0 <process_edt_key+0x10>
     8e6:	8d 30       	cpi	r24, 0x0D	; 13
     8e8:	89 f0       	breq	.+34     	; 0x90c <process_edt_key+0x2c>
     8ea:	80 33       	cpi	r24, 0x30	; 48
     8ec:	a9 f0       	breq	.+42     	; 0x918 <process_edt_key+0x38>
     8ee:	04 c0       	rjmp	.+8      	; 0x8f8 <process_edt_key+0x18>
     8f0:	85 33       	cpi	r24, 0x35	; 53
     8f2:	41 f0       	breq	.+16     	; 0x904 <process_edt_key+0x24>
     8f4:	83 34       	cpi	r24, 0x43	; 67
     8f6:	41 f0       	breq	.+16     	; 0x908 <process_edt_key+0x28>
	case 0x0d:
		// завершить установку курсора
		state = STATE_CMD;
		return 2;
	default:
		return 0;
     8f8:	80 e0       	ldi	r24, 0x00	; 0
     8fa:	90 e0       	ldi	r25, 0x00	; 0
     8fc:	08 95       	ret

int process_edt_key(char key){
	switch(key){
	// Кнопки 2,5 являются стрелками навигации по коду
	case '2':
		move_cursor(0);
     8fe:	80 e0       	ldi	r24, 0x00	; 0
     900:	a7 df       	rcall	.-178    	; 0x850 <move_cursor>
     902:	0a c0       	rjmp	.+20     	; 0x918 <process_edt_key+0x38>
     904:	66 df       	rcall	.-308    	; 0x7d2 <move_cursor.part.0>
     906:	08 c0       	rjmp	.+16     	; 0x918 <process_edt_key+0x38>
	case '5':
		move_cursor(1);
		return 1;
	case 'C':
		// Стереть строку программы под курсором
		delete_line();
     908:	85 df       	rcall	.-246    	; 0x814 <delete_line>
     90a:	06 c0       	rjmp	.+12     	; 0x918 <process_edt_key+0x38>
     90c:	81 e0       	ldi	r24, 0x01	; 1
	case '0':
		/// Выйти из режима навигации без изменений
		return 1;
	case 0x0d:
		// завершить установку курсора
		state = STATE_CMD;
     90e:	80 93 01 01 	sts	0x0101, r24	; 0x800101 <state>
     912:	82 e0       	ldi	r24, 0x02	; 2
		return 2;
     914:	90 e0       	ldi	r25, 0x00	; 0
     916:	08 95       	ret
     918:	81 e0       	ldi	r24, 0x01	; 1
		// Стереть строку программы под курсором
		delete_line();
		return 1;
	case '0':
		/// Выйти из режима навигации без изменений
		return 1;
     91a:	90 e0       	ldi	r25, 0x00	; 0
     91c:	08 95       	ret

0000091e <process_key>:
		state = STATE_CMD;
		return 2;
	default:
		return 0;
	}
}
     91e:	90 91 01 01 	lds	r25, 0x0101	; 0x800101 <state>

// Вызывается в цикле после получения нового нажатия
void process_key(char key){
	int res=0;
	switch(state){
     922:	92 30       	cpi	r25, 0x02	; 2
     924:	31 f0       	breq	.+12     	; 0x932 <process_key+0x14>
     926:	93 30       	cpi	r25, 0x03	; 3
     928:	31 f0       	breq	.+12     	; 0x936 <process_key+0x18>
     92a:	91 30       	cpi	r25, 0x01	; 1
     92c:	69 f4       	brne	.+26     	; 0x948 <process_key+0x2a>
	case STATE_CMD:
		res = process_cmd_key(key);
     92e:	af df       	rcall	.-162    	; 0x88e <process_cmd_key>
		break;
	case STATE_ARG:
		res = process_arg_key(key);
     930:	03 c0       	rjmp	.+6      	; 0x938 <process_key+0x1a>
		break;
     932:	c8 df       	rcall	.-112    	; 0x8c4 <process_arg_key>
	case STATE_EDT:
		res = process_edt_key(key);
     934:	01 c0       	rjmp	.+2      	; 0x938 <process_key+0x1a>
     936:	d4 df       	rcall	.-88     	; 0x8e0 <process_edt_key>
		break;
	}
	switch (res){
     938:	81 30       	cpi	r24, 0x01	; 1
     93a:	91 05       	cpc	r25, r1
     93c:	61 f0       	breq	.+24     	; 0x956 <process_key+0x38>
     93e:	82 30       	cpi	r24, 0x02	; 2
     940:	91 05       	cpc	r25, r1
     942:	81 f0       	breq	.+32     	; 0x964 <process_key+0x46>
     944:	89 2b       	or	r24, r25
     946:	a9 f4       	brne	.+42     	; 0x972 <process_key+0x54>
	case 0:
		blip(blip_err);
     948:	60 91 59 01 	lds	r22, 0x0159	; 0x800159 <blip_err>
     94c:	70 91 5a 01 	lds	r23, 0x015A	; 0x80015a <blip_err+0x1>
     950:	80 91 5b 01 	lds	r24, 0x015B	; 0x80015b <blip_err+0x2>
     954:	0d c0       	rjmp	.+26     	; 0x970 <process_key+0x52>
		break;
	case 1:
		blip(blip_ok);
     956:	60 91 9e 01 	lds	r22, 0x019E	; 0x80019e <blip_ok>
     95a:	70 91 9f 01 	lds	r23, 0x019F	; 0x80019f <blip_ok+0x1>
     95e:	80 91 a0 01 	lds	r24, 0x01A0	; 0x8001a0 <blip_ok+0x2>
     962:	06 c0       	rjmp	.+12     	; 0x970 <process_key+0x52>
		break;
	case 2:
		blip(blip_enter);
     964:	60 91 02 01 	lds	r22, 0x0102	; 0x800102 <blip_enter>
     968:	70 91 03 01 	lds	r23, 0x0103	; 0x800103 <blip_enter+0x1>
     96c:	80 91 04 01 	lds	r24, 0x0104	; 0x800104 <blip_enter+0x2>
     970:	6b cd       	rjmp	.-1322   	; 0x448 <blip>
     972:	08 95       	ret

00000974 <init>:
#include "editor.h"


void init(void){
	// Ряды клавиатуры - выходы, активный 0
	PIN_OUT(keyRow1);
     974:	8f 9a       	sbi	0x11, 7	; 17
	PIN_OUT(keyRow2);
     976:	8e 9a       	sbi	0x11, 6	; 17
	PIN_OUT(keyRow3);
     978:	8d 9a       	sbi	0x11, 5	; 17
	SET(keyRow1);
     97a:	97 9a       	sbi	0x12, 7	; 18
	SET(keyRow2);
     97c:	96 9a       	sbi	0x12, 6	; 18
	SET(keyRow3);
     97e:	95 9a       	sbi	0x12, 5	; 18
	// Колонки - входы с подтяжкой, 1 - клавиша нажата
	PIN_IN(keyCol1);
     980:	a0 98       	cbi	0x14, 0	; 20
	PIN_IN(keyCol2);
     982:	a1 98       	cbi	0x14, 1	; 20
	PIN_IN(keyCol3);
     984:	a2 98       	cbi	0x14, 2	; 20
	PIN_IN(keyCol4);
     986:	a3 98       	cbi	0x14, 3	; 20
	SET(keyCol1);
     988:	a8 9a       	sbi	0x15, 0	; 21
	SET(keyCol2);
     98a:	a9 9a       	sbi	0x15, 1	; 21
	SET(keyCol3);
     98c:	aa 9a       	sbi	0x15, 2	; 21
	SET(keyCol4);
     98e:	ab 9a       	sbi	0x15, 3	; 21

	//Светодиоды
	PIN_OUT(LED1);
     990:	31 9a       	sbi	0x06, 1	; 6
	PIN_OUT(LED2);
     992:	30 9a       	sbi	0x06, 0	; 6
	PIN_OUT(LED3);
     994:	8a 9a       	sbi	0x11, 2	; 17
	PIN_OUT(LED4);
     996:	8b 9a       	sbi	0x11, 3	; 17

	PIN_OUT(LCD_LED);
     998:	8c 9a       	sbi	0x11, 4	; 17
	SET(LCD_LED);
     99a:	94 9a       	sbi	0x12, 4	; 18

	PIN_OUT(BEEPER);
     99c:	32 9a       	sbi	0x06, 2	; 6

	init_display();
     99e:	2b de       	rcall	.-938    	; 0x5f6 <init_display>
	show_logo();
     9a0:	3c ce       	rjmp	.-904    	; 0x61a <show_logo>

000009a2 <key_scan>:
     9a2:	af 92       	push	r10

/*
 * Сканирует клавиатуру и помещает
 * коды нажатых клавиш в буфер
 */
char key_scan(void){
     9a4:	bf 92       	push	r11
     9a6:	cf 92       	push	r12
     9a8:	df 92       	push	r13
     9aa:	ef 92       	push	r14
     9ac:	ff 92       	push	r15
     9ae:	0f 93       	push	r16
     9b0:	1f 93       	push	r17
     9b2:	cf 93       	push	r28
     9b4:	df 93       	push	r29
	unsigned char key_bitsR1,key_bitsR2,key_bitsR3;
	unsigned short key_bits;
	//memset(key_buf,0,key_buf_len);
	/// row1
	SET(keyRow1);
     9b6:	97 9a       	sbi	0x12, 7	; 18
	SET(keyRow2);
     9b8:	96 9a       	sbi	0x12, 6	; 18
	CLR(keyRow3);
     9ba:	95 98       	cbi	0x12, 5	; 18
	#else
		//round up by default
		__ticks_dc = (uint32_t)(ceil(fabs(__tmp)));
	#endif

	__builtin_avr_delay_cycles(__ticks_dc);
     9bc:	8f e1       	ldi	r24, 0x1F	; 31
     9be:	9e e4       	ldi	r25, 0x4E	; 78
     9c0:	01 97       	sbiw	r24, 0x01	; 1
     9c2:	f1 f7       	brne	.-4      	; 0x9c0 <key_scan+0x1e>
     9c4:	00 c0       	rjmp	.+0      	; 0x9c6 <key_scan+0x24>
     9c6:	00 00       	nop
	_delay_ms(10);
	key_bits |= !GET(keyCol4);
     9c8:	63 b3       	in	r22, 0x13	; 19
     9ca:	63 fb       	bst	r22, 3
     9cc:	aa 24       	eor	r10, r10
     9ce:	a0 f8       	bld	r10, 0
     9d0:	b1 2c       	mov	r11, r1
     9d2:	b5 01       	movw	r22, r10
     9d4:	91 e0       	ldi	r25, 0x01	; 1
     9d6:	69 27       	eor	r22, r25
	key_bits<<=1;
     9d8:	66 0f       	add	r22, r22
     9da:	77 1f       	adc	r23, r23
	key_bits |= !GET(keyCol3);
     9dc:	13 b3       	in	r17, 0x13	; 19
     9de:	12 fb       	bst	r17, 2
     9e0:	cc 24       	eor	r12, r12
     9e2:	c0 f8       	bld	r12, 0
     9e4:	d1 2c       	mov	r13, r1
     9e6:	21 e0       	ldi	r18, 0x01	; 1
     9e8:	c2 26       	eor	r12, r18
     9ea:	86 01       	movw	r16, r12
     9ec:	06 2b       	or	r16, r22
     9ee:	17 2b       	or	r17, r23
	key_bits<<=1;
     9f0:	b8 01       	movw	r22, r16
     9f2:	66 0f       	add	r22, r22
     9f4:	77 1f       	adc	r23, r23
	key_bits |= !GET(keyCol2);
     9f6:	13 b3       	in	r17, 0x13	; 19
     9f8:	16 95       	lsr	r17
     9fa:	11 70       	andi	r17, 0x01	; 1
     9fc:	c1 2f       	mov	r28, r17
     9fe:	40 e0       	ldi	r20, 0x00	; 0
     a00:	d4 2f       	mov	r29, r20
     a02:	8e 01       	movw	r16, r28
     a04:	81 e0       	ldi	r24, 0x01	; 1
     a06:	08 27       	eor	r16, r24
     a08:	06 2b       	or	r16, r22
     a0a:	17 2b       	or	r17, r23
	key_bits<<=1;
     a0c:	00 0f       	add	r16, r16
     a0e:	11 1f       	adc	r17, r17
	key_bits |= !GET(keyCol1);
     a10:	63 b3       	in	r22, 0x13	; 19
     a12:	61 70       	andi	r22, 0x01	; 1
     a14:	c1 e0       	ldi	r28, 0x01	; 1
     a16:	6c 27       	eor	r22, r28
     a18:	06 2b       	or	r16, r22
	key_bits<<=1;
     a1a:	00 0f       	add	r16, r16
     a1c:	11 1f       	adc	r17, r17
	/// row2
	SET(keyRow1);
     a1e:	97 9a       	sbi	0x12, 7	; 18
	CLR(keyRow2);
     a20:	96 98       	cbi	0x12, 6	; 18
	SET(keyRow3);
     a22:	95 9a       	sbi	0x12, 5	; 18
     a24:	8f e1       	ldi	r24, 0x1F	; 31
     a26:	9e e4       	ldi	r25, 0x4E	; 78
     a28:	01 97       	sbiw	r24, 0x01	; 1
     a2a:	f1 f7       	brne	.-4      	; 0xa28 <key_scan+0x86>
     a2c:	00 c0       	rjmp	.+0      	; 0xa2e <key_scan+0x8c>
     a2e:	00 00       	nop
	_delay_ms(10);
	key_bits |= !GET(keyCol4);
     a30:	63 b3       	in	r22, 0x13	; 19
     a32:	63 fb       	bst	r22, 3
     a34:	88 27       	eor	r24, r24
     a36:	80 f9       	bld	r24, 0
     a38:	90 e0       	ldi	r25, 0x00	; 0
     a3a:	21 e0       	ldi	r18, 0x01	; 1
     a3c:	82 27       	eor	r24, r18
     a3e:	80 2b       	or	r24, r16
     a40:	91 2b       	or	r25, r17
	key_bits<<=1;
     a42:	88 0f       	add	r24, r24
     a44:	99 1f       	adc	r25, r25
	key_bits |= !GET(keyCol3);
     a46:	63 b3       	in	r22, 0x13	; 19
     a48:	62 fb       	bst	r22, 2
     a4a:	ee 27       	eor	r30, r30
     a4c:	e0 f9       	bld	r30, 0
     a4e:	f0 e0       	ldi	r31, 0x00	; 0
     a50:	41 e0       	ldi	r20, 0x01	; 1
     a52:	e4 27       	eor	r30, r20
     a54:	bf 01       	movw	r22, r30
     a56:	68 2b       	or	r22, r24
     a58:	79 2b       	or	r23, r25
	key_bits<<=1;
     a5a:	fb 01       	movw	r30, r22
     a5c:	ee 0f       	add	r30, r30
     a5e:	ff 1f       	adc	r31, r31
	key_bits |= !GET(keyCol2);
     a60:	83 b3       	in	r24, 0x13	; 19
     a62:	81 fb       	bst	r24, 1
     a64:	ee 24       	eor	r14, r14
     a66:	e0 f8       	bld	r14, 0
     a68:	f1 2c       	mov	r15, r1
     a6a:	b7 01       	movw	r22, r14
     a6c:	81 e0       	ldi	r24, 0x01	; 1
     a6e:	68 27       	eor	r22, r24
     a70:	6e 2b       	or	r22, r30
     a72:	7f 2b       	or	r23, r31
	key_bits<<=1;
     a74:	66 0f       	add	r22, r22
     a76:	77 1f       	adc	r23, r23
	key_bits |= !GET(keyCol1);
     a78:	83 b3       	in	r24, 0x13	; 19
     a7a:	81 70       	andi	r24, 0x01	; 1
     a7c:	8c 27       	eor	r24, r28
     a7e:	68 2b       	or	r22, r24
	key_bits<<=1;
     a80:	66 0f       	add	r22, r22
     a82:	77 1f       	adc	r23, r23
	/// row3
	CLR(keyRow1);
     a84:	97 98       	cbi	0x12, 7	; 18
	SET(keyRow2);
     a86:	96 9a       	sbi	0x12, 6	; 18
	SET(keyRow3);
     a88:	95 9a       	sbi	0x12, 5	; 18
     a8a:	8f e1       	ldi	r24, 0x1F	; 31
     a8c:	9e e4       	ldi	r25, 0x4E	; 78
     a8e:	01 97       	sbiw	r24, 0x01	; 1
     a90:	f1 f7       	brne	.-4      	; 0xa8e <key_scan+0xec>
     a92:	00 c0       	rjmp	.+0      	; 0xa94 <key_scan+0xf2>
     a94:	00 00       	nop
	_delay_ms(10);
	key_bits |= !GET(keyCol4);
     a96:	83 b3       	in	r24, 0x13	; 19
     a98:	83 fb       	bst	r24, 3
     a9a:	44 27       	eor	r20, r20
     a9c:	40 f9       	bld	r20, 0
     a9e:	50 e0       	ldi	r21, 0x00	; 0
     aa0:	91 e0       	ldi	r25, 0x01	; 1
     aa2:	49 27       	eor	r20, r25
     aa4:	46 2b       	or	r20, r22
     aa6:	57 2b       	or	r21, r23
	key_bits<<=1;
     aa8:	44 0f       	add	r20, r20
     aaa:	55 1f       	adc	r21, r21
	key_bits |= !GET(keyCol3);
     aac:	83 b3       	in	r24, 0x13	; 19
     aae:	82 fb       	bst	r24, 2
     ab0:	22 27       	eor	r18, r18
     ab2:	20 f9       	bld	r18, 0
     ab4:	30 e0       	ldi	r19, 0x00	; 0
     ab6:	81 e0       	ldi	r24, 0x01	; 1
     ab8:	28 27       	eor	r18, r24
     aba:	c9 01       	movw	r24, r18
     abc:	84 2b       	or	r24, r20
     abe:	95 2b       	or	r25, r21
	key_bits<<=1;
     ac0:	9c 01       	movw	r18, r24
     ac2:	22 0f       	add	r18, r18
     ac4:	33 1f       	adc	r19, r19
	key_bits |= !GET(keyCol2);
     ac6:	83 b3       	in	r24, 0x13	; 19
     ac8:	81 fb       	bst	r24, 1
     aca:	aa 27       	eor	r26, r26
     acc:	a0 f9       	bld	r26, 0
     ace:	b0 e0       	ldi	r27, 0x00	; 0
     ad0:	cd 01       	movw	r24, r26
     ad2:	41 e0       	ldi	r20, 0x01	; 1
     ad4:	84 27       	eor	r24, r20
     ad6:	82 2b       	or	r24, r18
     ad8:	93 2b       	or	r25, r19
	key_bits<<=1;
     ada:	88 0f       	add	r24, r24
     adc:	99 1f       	adc	r25, r25
	key_bits |= !GET(keyCol1);
     ade:	23 b3       	in	r18, 0x13	; 19
	//key_bits<<=1;
	
	// Разбор битфилда в коды нажатий
	switch(key_bits){
     ae0:	21 70       	andi	r18, 0x01	; 1
     ae2:	c2 27       	eor	r28, r18
     ae4:	8c 2b       	or	r24, r28
     ae6:	80 32       	cpi	r24, 0x20	; 32
     ae8:	91 05       	cpc	r25, r1
     aea:	71 f1       	breq	.+92     	; 0xb48 <key_scan+0x1a6>
     aec:	90 f4       	brcc	.+36     	; 0xb12 <key_scan+0x170>
     aee:	84 30       	cpi	r24, 0x04	; 4
     af0:	91 05       	cpc	r25, r1
     af2:	31 f1       	breq	.+76     	; 0xb40 <key_scan+0x19e>
     af4:	38 f4       	brcc	.+14     	; 0xb04 <key_scan+0x162>
     af6:	81 30       	cpi	r24, 0x01	; 1
     af8:	91 05       	cpc	r25, r1
     afa:	81 f1       	breq	.+96     	; 0xb5c <key_scan+0x1ba>
     afc:	02 97       	sbiw	r24, 0x02	; 2
     afe:	61 f5       	brne	.+88     	; 0xb58 <key_scan+0x1b6>
		case 0x01:
			return 1;
		case 0x02:
			return 2;
     b00:	82 e0       	ldi	r24, 0x02	; 2
     b02:	2d c0       	rjmp	.+90     	; 0xb5e <key_scan+0x1bc>
	key_bits<<=1;
	key_bits |= !GET(keyCol1);
	//key_bits<<=1;
	
	// Разбор битфилда в коды нажатий
	switch(key_bits){
     b04:	88 30       	cpi	r24, 0x08	; 8
     b06:	91 05       	cpc	r25, r1
     b08:	e9 f0       	breq	.+58     	; 0xb44 <key_scan+0x1a2>
     b0a:	40 97       	sbiw	r24, 0x10	; 16
     b0c:	29 f5       	brne	.+74     	; 0xb58 <key_scan+0x1b6>
		case 0x04:
			return 3;
		case 0x08:
			return 'C';
		case 0x10:
			return 4;
     b0e:	84 e0       	ldi	r24, 0x04	; 4
     b10:	26 c0       	rjmp	.+76     	; 0xb5e <key_scan+0x1bc>
	key_bits<<=1;
	key_bits |= !GET(keyCol1);
	//key_bits<<=1;
	
	// Разбор битфилда в коды нажатий
	switch(key_bits){
     b12:	81 15       	cp	r24, r1
     b14:	21 e0       	ldi	r18, 0x01	; 1
     b16:	92 07       	cpc	r25, r18
     b18:	c9 f0       	breq	.+50     	; 0xb4c <key_scan+0x1aa>
     b1a:	28 f4       	brcc	.+10     	; 0xb26 <key_scan+0x184>
     b1c:	80 34       	cpi	r24, 0x40	; 64
     b1e:	91 05       	cpc	r25, r1
     b20:	d9 f4       	brne	.+54     	; 0xb58 <key_scan+0x1b6>
		case 0x10:
			return 4;
		case 0x20:
			return 5;
		case 0x40:
			return 6;
     b22:	86 e0       	ldi	r24, 0x06	; 6
     b24:	1c c0       	rjmp	.+56     	; 0xb5e <key_scan+0x1bc>
	key_bits<<=1;
	key_bits |= !GET(keyCol1);
	//key_bits<<=1;
	
	// Разбор битфилда в коды нажатий
	switch(key_bits){
     b26:	81 15       	cp	r24, r1
     b28:	24 e0       	ldi	r18, 0x04	; 4
     b2a:	92 07       	cpc	r25, r18
     b2c:	89 f0       	breq	.+34     	; 0xb50 <key_scan+0x1ae>
     b2e:	81 15       	cp	r24, r1
     b30:	48 e0       	ldi	r20, 0x08	; 8
     b32:	94 07       	cpc	r25, r20
     b34:	79 f0       	breq	.+30     	; 0xb54 <key_scan+0x1b2>
     b36:	81 15       	cp	r24, r1
     b38:	92 40       	sbci	r25, 0x02	; 2
     b3a:	71 f4       	brne	.+28     	; 0xb58 <key_scan+0x1b6>
		case 0x80:
			return 0;
		case 0x100:
			return 7;
		case 0x200:
			return 8;
     b3c:	88 e0       	ldi	r24, 0x08	; 8
     b3e:	0f c0       	rjmp	.+30     	; 0xb5e <key_scan+0x1bc>
		case 0x01:
			return 1;
		case 0x02:
			return 2;
		case 0x04:
			return 3;
     b40:	83 e0       	ldi	r24, 0x03	; 3
     b42:	0d c0       	rjmp	.+26     	; 0xb5e <key_scan+0x1bc>
		case 0x08:
			return 'C';
     b44:	83 e4       	ldi	r24, 0x43	; 67
     b46:	0b c0       	rjmp	.+22     	; 0xb5e <key_scan+0x1bc>
		case 0x10:
			return 4;
		case 0x20:
			return 5;
     b48:	85 e0       	ldi	r24, 0x05	; 5
     b4a:	09 c0       	rjmp	.+18     	; 0xb5e <key_scan+0x1bc>
		case 0x40:
			return 6;
		case 0x80:
			return 0;
		case 0x100:
			return 7;
     b4c:	87 e0       	ldi	r24, 0x07	; 7
     b4e:	07 c0       	rjmp	.+14     	; 0xb5e <key_scan+0x1bc>
		case 0x200:
			return 8;
		case 0x400:
			return 9;
     b50:	89 e0       	ldi	r24, 0x09	; 9
     b52:	05 c0       	rjmp	.+10     	; 0xb5e <key_scan+0x1bc>
		case 0x800:
			return 0x0d; //Enter
     b54:	8d e0       	ldi	r24, 0x0D	; 13
     b56:	03 c0       	rjmp	.+6      	; 0xb5e <key_scan+0x1bc>
		default:
			return 0;
     b58:	80 e0       	ldi	r24, 0x00	; 0
     b5a:	01 c0       	rjmp	.+2      	; 0xb5e <key_scan+0x1bc>
	//key_bits<<=1;
	
	// Разбор битфилда в коды нажатий
	switch(key_bits){
		case 0x01:
			return 1;
     b5c:	81 e0       	ldi	r24, 0x01	; 1
			return 0x0d; //Enter
		default:
			return 0;

	}
}
     b5e:	df 91       	pop	r29
     b60:	cf 91       	pop	r28
     b62:	1f 91       	pop	r17
     b64:	0f 91       	pop	r16
     b66:	ff 90       	pop	r15
     b68:	ef 90       	pop	r14
     b6a:	df 90       	pop	r13
     b6c:	cf 90       	pop	r12
     b6e:	bf 90       	pop	r11
     b70:	af 90       	pop	r10
     b72:	08 95       	ret

00000b74 <main>:

int main (void){
	char key=0;
	init();
     b74:	ff de       	rcall	.-514    	; 0x974 <init>
	
	while(1){
		key = key_scan();
     b76:	15 df       	rcall	.-470    	; 0x9a2 <key_scan>
     b78:	88 23       	and	r24, r24
		if (key){
     b7a:	e9 f3       	breq	.-6      	; 0xb76 <main+0x2>
			/// Отработать команду
			//print_key(key);
			// Вызывается в цикле после получения нового нажатия
			process_key(key);
     b7c:	d0 de       	rcall	.-608    	; 0x91e <process_key>
     b7e:	fb cf       	rjmp	.-10     	; 0xb76 <main+0x2>

00000b80 <u8g2_DrawHXBMP>:
     b80:	6f 92       	push	r6




void u8g2_DrawHXBMP(u8g2_t *u8g2, u8g2_uint_t x, u8g2_uint_t y, u8g2_uint_t len, const uint8_t *b)
{
     b82:	7f 92       	push	r7
     b84:	8f 92       	push	r8
     b86:	9f 92       	push	r9
     b88:	af 92       	push	r10
     b8a:	bf 92       	push	r11
     b8c:	cf 92       	push	r12
     b8e:	df 92       	push	r13
     b90:	ef 92       	push	r14
     b92:	ff 92       	push	r15
     b94:	0f 93       	push	r16
     b96:	1f 93       	push	r17
     b98:	cf 93       	push	r28
     b9a:	df 93       	push	r29
     b9c:	7c 01       	movw	r14, r24
     b9e:	c6 2f       	mov	r28, r22
     ba0:	74 2e       	mov	r7, r20
     ba2:	58 01       	movw	r10, r16
  uint8_t mask;
  uint8_t color = u8g2->draw_color;
     ba4:	6c 01       	movw	r12, r24
     ba6:	84 e6       	ldi	r24, 0x64	; 100
     ba8:	c8 0e       	add	r12, r24
     baa:	d1 1c       	adc	r13, r1
     bac:	f6 01       	movw	r30, r12
     bae:	60 80       	ld	r6, Z
  uint8_t ncolor = (color == 0 ? 1 : 0);
#ifdef U8G2_WITH_INTERSECTION
  if ( u8g2_IsIntersection(u8g2, x, y, x+len, y+1) == 0 ) 
     bb0:	16 2f       	mov	r17, r22
     bb2:	12 0f       	add	r17, r18
     bb4:	01 e0       	ldi	r16, 0x01	; 1
     bb6:	04 0f       	add	r16, r20
     bb8:	21 2f       	mov	r18, r17
     bba:	c7 01       	movw	r24, r14
     bbc:	f2 d4       	rcall	.+2532   	; 0x15a2 <u8g2_IsIntersection>
     bbe:	88 23       	and	r24, r24
     bc0:	39 f1       	breq	.+78     	; 0xc10 <u8g2_DrawHXBMP+0x90>
     bc2:	d1 e0       	ldi	r29, 0x01	; 1
  while(len > 0)
  {
    if( u8x8_pgm_read(b) & mask ) {
      u8g2->draw_color = color;
      u8g2_DrawHVLine(u8g2, x, y, 1, 0);
    } else if( u8g2->bitmap_transparency == 0 ) {
     bc4:	47 01       	movw	r8, r14
     bc6:	f3 e6       	ldi	r31, 0x63	; 99
     bc8:	8f 0e       	add	r8, r31
     bca:	91 1c       	adc	r9, r1
  if ( u8g2_IsIntersection(u8g2, x, y, x+len, y+1) == 0 ) 
    return;
#endif /* U8G2_WITH_INTERSECTION */
  
  mask = 1;
  while(len > 0)
     bcc:	c1 17       	cp	r28, r17
     bce:	f1 f0       	breq	.+60     	; 0xc0c <u8g2_DrawHXBMP+0x8c>
  {
    if( u8x8_pgm_read(b) & mask ) {
     bd0:	f5 01       	movw	r30, r10
     bd2:	84 91       	lpm	r24, Z
     bd4:	8d 23       	and	r24, r29
     bd6:	19 f0       	breq	.+6      	; 0xbde <u8g2_DrawHXBMP+0x5e>
      u8g2->draw_color = color;
     bd8:	f6 01       	movw	r30, r12
     bda:	60 82       	st	Z, r6
     bdc:	09 c0       	rjmp	.+18     	; 0xbf0 <u8g2_DrawHXBMP+0x70>
      u8g2_DrawHVLine(u8g2, x, y, 1, 0);
    } else if( u8g2->bitmap_transparency == 0 ) {
     bde:	f4 01       	movw	r30, r8
     be0:	80 81       	ld	r24, Z
     be2:	81 11       	cpse	r24, r1
     be4:	0b c0       	rjmp	.+22     	; 0xbfc <u8g2_DrawHXBMP+0x7c>
      u8g2->draw_color = ncolor;
     be6:	81 e0       	ldi	r24, 0x01	; 1
     be8:	61 10       	cpse	r6, r1
     bea:	80 e0       	ldi	r24, 0x00	; 0
     bec:	f6 01       	movw	r30, r12
     bee:	80 83       	st	Z, r24
      u8g2_DrawHVLine(u8g2, x, y, 1, 0);
     bf0:	00 e0       	ldi	r16, 0x00	; 0
     bf2:	21 e0       	ldi	r18, 0x01	; 1
     bf4:	47 2d       	mov	r20, r7
     bf6:	6c 2f       	mov	r22, r28
     bf8:	c7 01       	movw	r24, r14
     bfa:	51 d4       	rcall	.+2210   	; 0x149e <u8g2_DrawHVLine>
    }
   
    x++;
     bfc:	cf 5f       	subi	r28, 0xFF	; 255
    mask <<= 1;
     bfe:	dd 0f       	add	r29, r29
    if ( mask == 0 )
     c00:	29 f7       	brne	.-54     	; 0xbcc <u8g2_DrawHXBMP+0x4c>
    {
      mask = 1;
      b++;
     c02:	ff ef       	ldi	r31, 0xFF	; 255
     c04:	af 1a       	sub	r10, r31
     c06:	bf 0a       	sbc	r11, r31
   
    x++;
    mask <<= 1;
    if ( mask == 0 )
    {
      mask = 1;
     c08:	d1 e0       	ldi	r29, 0x01	; 1
     c0a:	e0 cf       	rjmp	.-64     	; 0xbcc <u8g2_DrawHXBMP+0x4c>
      b++;
    }
    len--;
  }
  u8g2->draw_color = color;
     c0c:	f6 01       	movw	r30, r12
     c0e:	60 82       	st	Z, r6
}
     c10:	df 91       	pop	r29
     c12:	cf 91       	pop	r28
     c14:	1f 91       	pop	r17
     c16:	0f 91       	pop	r16
     c18:	ff 90       	pop	r15
     c1a:	ef 90       	pop	r14
     c1c:	df 90       	pop	r13
     c1e:	cf 90       	pop	r12
     c20:	bf 90       	pop	r11
     c22:	af 90       	pop	r10
     c24:	9f 90       	pop	r9
     c26:	8f 90       	pop	r8
     c28:	7f 90       	pop	r7
     c2a:	6f 90       	pop	r6
     c2c:	08 95       	ret

00000c2e <u8g2_DrawXBMP>:


void u8g2_DrawXBMP(u8g2_t *u8g2, u8g2_uint_t x, u8g2_uint_t y, u8g2_uint_t w, u8g2_uint_t h, const uint8_t *bitmap)
{
     c2e:	8f 92       	push	r8
     c30:	9f 92       	push	r9
     c32:	af 92       	push	r10
     c34:	bf 92       	push	r11
     c36:	cf 92       	push	r12
     c38:	df 92       	push	r13
     c3a:	ef 92       	push	r14
     c3c:	ff 92       	push	r15
     c3e:	0f 93       	push	r16
     c40:	1f 93       	push	r17
     c42:	cf 93       	push	r28
     c44:	df 93       	push	r29
     c46:	5c 01       	movw	r10, r24
     c48:	96 2e       	mov	r9, r22
     c4a:	c4 2f       	mov	r28, r20
     c4c:	82 2e       	mov	r8, r18
  u8g2_uint_t blen;
  blen = w;
  blen += 7;
  blen >>= 3;
#ifdef U8G2_WITH_INTERSECTION
  if ( u8g2_IsIntersection(u8g2, x, y, x+w, y+h) == 0 ) 
     c4e:	d4 2f       	mov	r29, r20
     c50:	d0 0f       	add	r29, r16
     c52:	26 0f       	add	r18, r22
     c54:	0d 2f       	mov	r16, r29
     c56:	a5 d4       	rcall	.+2378   	; 0x15a2 <u8g2_IsIntersection>
     c58:	88 23       	and	r24, r24
     c5a:	99 f0       	breq	.+38     	; 0xc82 <u8g2_DrawXBMP+0x54>

void u8g2_DrawXBMP(u8g2_t *u8g2, u8g2_uint_t x, u8g2_uint_t y, u8g2_uint_t w, u8g2_uint_t h, const uint8_t *bitmap)
{
  u8g2_uint_t blen;
  blen = w;
  blen += 7;
     c5c:	87 e0       	ldi	r24, 0x07	; 7
     c5e:	88 0d       	add	r24, r8
#endif /* U8G2_WITH_INTERSECTION */
  
  while( h > 0 )
  {
    u8g2_DrawHXBMP(u8g2, x, y, w, bitmap);
    bitmap += blen;
     c60:	c8 2e       	mov	r12, r24
     c62:	c6 94       	lsr	r12
     c64:	c6 94       	lsr	r12
     c66:	c6 94       	lsr	r12
     c68:	d1 2c       	mov	r13, r1
#ifdef U8G2_WITH_INTERSECTION
  if ( u8g2_IsIntersection(u8g2, x, y, x+w, y+h) == 0 ) 
    return;
#endif /* U8G2_WITH_INTERSECTION */
  
  while( h > 0 )
     c6a:	cd 17       	cp	r28, r29
     c6c:	51 f0       	breq	.+20     	; 0xc82 <u8g2_DrawXBMP+0x54>
  {
    u8g2_DrawHXBMP(u8g2, x, y, w, bitmap);
     c6e:	87 01       	movw	r16, r14
     c70:	28 2d       	mov	r18, r8
     c72:	4c 2f       	mov	r20, r28
     c74:	69 2d       	mov	r22, r9
     c76:	c5 01       	movw	r24, r10
     c78:	83 df       	rcall	.-250    	; 0xb80 <u8g2_DrawHXBMP>
    bitmap += blen;
     c7a:	ec 0c       	add	r14, r12
     c7c:	fd 1c       	adc	r15, r13
    y++;
     c7e:	cf 5f       	subi	r28, 0xFF	; 255
     c80:	f4 cf       	rjmp	.-24     	; 0xc6a <u8g2_DrawXBMP+0x3c>
    h--;
  }
}
     c82:	df 91       	pop	r29
     c84:	cf 91       	pop	r28
     c86:	1f 91       	pop	r17
     c88:	0f 91       	pop	r16
     c8a:	ff 90       	pop	r15
     c8c:	ef 90       	pop	r14
     c8e:	df 90       	pop	r13
     c90:	cf 90       	pop	r12
     c92:	bf 90       	pop	r11
     c94:	af 90       	pop	r10
     c96:	9f 90       	pop	r9
     c98:	8f 90       	pop	r8
     c9a:	08 95       	ret

00000c9c <u8g2_send_buffer>:
{
  size_t cnt;
  cnt = u8g2_GetU8x8(u8g2)->display_info->tile_width;
  cnt *= u8g2->tile_buf_height;
  cnt *= 8;
  memset(u8g2->tile_buf_ptr, 0, cnt);
     c9c:	af 92       	push	r10
     c9e:	bf 92       	push	r11
     ca0:	cf 92       	push	r12
     ca2:	df 92       	push	r13
     ca4:	ef 92       	push	r14
     ca6:	ff 92       	push	r15
     ca8:	0f 93       	push	r16
     caa:	1f 93       	push	r17
     cac:	cf 93       	push	r28
     cae:	df 93       	push	r29
     cb0:	ec 01       	movw	r28, r24
     cb2:	ad a0       	ldd	r10, Y+37	; 0x25
     cb4:	ee a0       	ldd	r14, Y+38	; 0x26
     cb6:	e8 81       	ld	r30, Y
     cb8:	f9 81       	ldd	r31, Y+1	; 0x01
     cba:	b1 88       	ldd	r11, Z+17	; 0x11
     cbc:	fe 2c       	mov	r15, r14
     cbe:	c1 2c       	mov	r12, r1
     cc0:	d1 2c       	mov	r13, r1
     cc2:	e8 81       	ld	r30, Y
     cc4:	f9 81       	ldd	r31, Y+1	; 0x01
     cc6:	20 89       	ldd	r18, Z+16	; 0x10
     cc8:	0b a1       	ldd	r16, Y+35	; 0x23
     cca:	1c a1       	ldd	r17, Y+36	; 0x24
     ccc:	88 e0       	ldi	r24, 0x08	; 8
     cce:	28 9f       	mul	r18, r24
     cd0:	a0 01       	movw	r20, r0
     cd2:	11 24       	eor	r1, r1
     cd4:	4c 9d       	mul	r20, r12
     cd6:	c0 01       	movw	r24, r0
     cd8:	4d 9d       	mul	r20, r13
     cda:	90 0d       	add	r25, r0
     cdc:	5c 9d       	mul	r21, r12
     cde:	90 0d       	add	r25, r0
     ce0:	11 24       	eor	r1, r1
     ce2:	08 0f       	add	r16, r24
     ce4:	19 1f       	adc	r17, r25
     ce6:	4f 2d       	mov	r20, r15
     ce8:	60 e0       	ldi	r22, 0x00	; 0
     cea:	ce 01       	movw	r24, r28
     cec:	ef d6       	rcall	.+3550   	; 0x1acc <u8x8_DrawTile>
     cee:	f3 94       	inc	r15
     cf0:	8f 2d       	mov	r24, r15
     cf2:	8e 19       	sub	r24, r14
     cf4:	8a 15       	cp	r24, r10
     cf6:	28 f4       	brcc	.+10     	; 0xd02 <u8g2_send_buffer+0x66>
     cf8:	8f ef       	ldi	r24, 0xFF	; 255
     cfa:	c8 1a       	sub	r12, r24
     cfc:	d8 0a       	sbc	r13, r24
     cfe:	fb 14       	cp	r15, r11
     d00:	00 f3       	brcs	.-64     	; 0xcc2 <u8g2_send_buffer+0x26>
     d02:	df 91       	pop	r29
     d04:	cf 91       	pop	r28
     d06:	1f 91       	pop	r17
     d08:	0f 91       	pop	r16
     d0a:	ff 90       	pop	r15
     d0c:	ef 90       	pop	r14
     d0e:	df 90       	pop	r13
     d10:	cf 90       	pop	r12
     d12:	bf 90       	pop	r11
     d14:	af 90       	pop	r10
     d16:	08 95       	ret

00000d18 <u8g2_SendBuffer>:
  } while( src_row < src_max && dest_row < dest_max );
}

/* same as u8g2_send_buffer but also send the DISPLAY_REFRESH message (used by SSD1606) */
void u8g2_SendBuffer(u8g2_t *u8g2)
{
     d18:	cf 93       	push	r28
     d1a:	df 93       	push	r29
     d1c:	ec 01       	movw	r28, r24
  u8g2_send_buffer(u8g2);
     d1e:	be df       	rcall	.-132    	; 0xc9c <u8g2_send_buffer>
  u8x8_RefreshDisplay( u8g2_GetU8x8(u8g2) );  
     d20:	ce 01       	movw	r24, r28
}
     d22:	df 91       	pop	r29

/* same as u8g2_send_buffer but also send the DISPLAY_REFRESH message (used by SSD1606) */
void u8g2_SendBuffer(u8g2_t *u8g2)
{
  u8g2_send_buffer(u8g2);
  u8x8_RefreshDisplay( u8g2_GetU8x8(u8g2) );  
     d24:	cf 91       	pop	r28
     d26:	13 c7       	rjmp	.+3622   	; 0x1b4e <u8x8_RefreshDisplay>

00000d28 <u8g2_m_16_4_f>:
  return buf;
}
uint8_t *u8g2_m_16_4_f(uint8_t *page_cnt)
{
  static uint8_t buf[512];
  *page_cnt = 4;
     d28:	24 e0       	ldi	r18, 0x04	; 4
     d2a:	fc 01       	movw	r30, r24
     d2c:	20 83       	st	Z, r18
  return buf;
}
     d2e:	81 e4       	ldi	r24, 0x41	; 65
     d30:	92 e0       	ldi	r25, 0x02	; 2
     d32:	08 95       	ret

00000d34 <u8g2_Setup_mt12232_122x32_f>:
	buf = u8g2_m_16_4_2(&tile_buf_height);
	u8g2_SetupBuffer(u8g2, buf, tile_buf_height, u8g2_ll_hvline_vertical_top_lsb, rotation);
}
/* mt12232 f*/
void u8g2_Setup_mt12232_122x32_f(u8g2_t *u8g2, const u8g2_cb_t *rotation, u8x8_msg_cb byte_cb, u8x8_msg_cb gpio_and_delay_cb)
{
     d34:	cf 92       	push	r12
     d36:	df 92       	push	r13
     d38:	ef 92       	push	r14
     d3a:	ff 92       	push	r15
     d3c:	0f 93       	push	r16
     d3e:	1f 93       	push	r17
     d40:	cf 93       	push	r28
     d42:	df 93       	push	r29
     d44:	1f 92       	push	r1
     d46:	cd b7       	in	r28, 0x3d	; 61
     d48:	de b7       	in	r29, 0x3e	; 62
     d4a:	7c 01       	movw	r14, r24
     d4c:	6b 01       	movw	r12, r22
	uint8_t tile_buf_height;
	uint8_t *buf;
	u8g2_SetupDisplay(u8g2, u8x8_d_mt12232_122x32, u8x8_cad_001, byte_cb, gpio_and_delay_cb);
     d4e:	89 01       	movw	r16, r18
     d50:	9a 01       	movw	r18, r20
     d52:	46 ef       	ldi	r20, 0xF6	; 246
     d54:	5c e0       	ldi	r21, 0x0C	; 12
     d56:	61 eb       	ldi	r22, 0xB1	; 177
     d58:	7d e0       	ldi	r23, 0x0D	; 13
     d5a:	df d7       	rcall	.+4030   	; 0x1d1a <u8x8_Setup>
	buf = u8g2_m_16_4_f(&tile_buf_height);
     d5c:	ce 01       	movw	r24, r28
     d5e:	01 96       	adiw	r24, 0x01	; 1
     d60:	e3 df       	rcall	.-58     	; 0xd28 <u8g2_m_16_4_f>
	u8g2_SetupBuffer(u8g2, buf, tile_buf_height, u8g2_ll_hvline_vertical_top_lsb, rotation);
     d62:	86 01       	movw	r16, r12
     d64:	20 ef       	ldi	r18, 0xF0	; 240
     d66:	3a e0       	ldi	r19, 0x0A	; 10
     d68:	49 81       	ldd	r20, Y+1	; 0x01
     d6a:	bc 01       	movw	r22, r24
     d6c:	c7 01       	movw	r24, r14
     d6e:	1f d5       	rcall	.+2622   	; 0x17ae <u8g2_SetupBuffer>
}
     d70:	0f 90       	pop	r0
     d72:	df 91       	pop	r29
     d74:	cf 91       	pop	r28
     d76:	1f 91       	pop	r17
     d78:	0f 91       	pop	r16
     d7a:	ff 90       	pop	r15
     d7c:	ef 90       	pop	r14
     d7e:	df 90       	pop	r13
     d80:	cf 90       	pop	r12
     d82:	08 95       	ret

00000d84 <u8g2_font_get_word>:
  return tmp;
}

void u8g2_SetFontPosCenter(u8g2_t *u8g2)
{
  u8g2->font_calc_vref = u8g2_font_calc_vref_center;
     d84:	fc 01       	movw	r30, r24
     d86:	e6 0f       	add	r30, r22
     d88:	f1 1d       	adc	r31, r1
     d8a:	84 91       	lpm	r24, Z
     d8c:	90 e0       	ldi	r25, 0x00	; 0
     d8e:	98 2f       	mov	r25, r24
     d90:	88 27       	eor	r24, r24
     d92:	31 96       	adiw	r30, 0x01	; 1
     d94:	e4 91       	lpm	r30, Z
     d96:	8e 0f       	add	r24, r30
     d98:	91 1d       	adc	r25, r1
     d9a:	08 95       	ret

00000d9c <u8g2_add_vector_y>:
     d9c:	21 30       	cpi	r18, 0x01	; 1
     d9e:	39 f0       	breq	.+14     	; 0xdae <u8g2_add_vector_y+0x12>
     da0:	20 f0       	brcs	.+8      	; 0xdaa <u8g2_add_vector_y+0xe>
     da2:	22 30       	cpi	r18, 0x02	; 2
     da4:	31 f4       	brne	.+12     	; 0xdb2 <u8g2_add_vector_y+0x16>
     da6:	84 1b       	sub	r24, r20
     da8:	08 95       	ret
     daa:	84 0f       	add	r24, r20
     dac:	08 95       	ret
     dae:	86 0f       	add	r24, r22
     db0:	08 95       	ret
     db2:	86 1b       	sub	r24, r22
     db4:	08 95       	ret

00000db6 <u8g2_add_vector_x>:
     db6:	21 30       	cpi	r18, 0x01	; 1
     db8:	39 f0       	breq	.+14     	; 0xdc8 <u8g2_add_vector_x+0x12>
     dba:	20 f0       	brcs	.+8      	; 0xdc4 <u8g2_add_vector_x+0xe>
     dbc:	22 30       	cpi	r18, 0x02	; 2
     dbe:	31 f4       	brne	.+12     	; 0xdcc <u8g2_add_vector_x+0x16>
     dc0:	86 1b       	sub	r24, r22
     dc2:	08 95       	ret
     dc4:	86 0f       	add	r24, r22
     dc6:	08 95       	ret
     dc8:	84 1b       	sub	r24, r20
     dca:	08 95       	ret
     dcc:	84 0f       	add	r24, r20
     dce:	08 95       	ret

00000dd0 <u8g2_font_calc_vref_font>:
     dd0:	80 e0       	ldi	r24, 0x00	; 0
     dd2:	08 95       	ret

00000dd4 <u8g2_read_font_info>:
     dd4:	0f 93       	push	r16
     dd6:	1f 93       	push	r17
     dd8:	cf 93       	push	r28
     dda:	df 93       	push	r29
     ddc:	ec 01       	movw	r28, r24
     dde:	8b 01       	movw	r16, r22
     de0:	fb 01       	movw	r30, r22
     de2:	84 91       	lpm	r24, Z
     de4:	88 83       	st	Y, r24
     de6:	31 96       	adiw	r30, 0x01	; 1
     de8:	e4 91       	lpm	r30, Z
     dea:	e9 83       	std	Y+1, r30	; 0x01
     dec:	fb 01       	movw	r30, r22
     dee:	32 96       	adiw	r30, 0x02	; 2
     df0:	e4 91       	lpm	r30, Z
     df2:	ea 83       	std	Y+2, r30	; 0x02
     df4:	fb 01       	movw	r30, r22
     df6:	33 96       	adiw	r30, 0x03	; 3
     df8:	e4 91       	lpm	r30, Z
     dfa:	eb 83       	std	Y+3, r30	; 0x03
     dfc:	fb 01       	movw	r30, r22
     dfe:	34 96       	adiw	r30, 0x04	; 4
     e00:	e4 91       	lpm	r30, Z
     e02:	ec 83       	std	Y+4, r30	; 0x04
     e04:	fb 01       	movw	r30, r22
     e06:	35 96       	adiw	r30, 0x05	; 5
     e08:	e4 91       	lpm	r30, Z
     e0a:	ed 83       	std	Y+5, r30	; 0x05
     e0c:	fb 01       	movw	r30, r22
     e0e:	36 96       	adiw	r30, 0x06	; 6
     e10:	e4 91       	lpm	r30, Z
     e12:	ee 83       	std	Y+6, r30	; 0x06
     e14:	fb 01       	movw	r30, r22
     e16:	37 96       	adiw	r30, 0x07	; 7
     e18:	e4 91       	lpm	r30, Z
     e1a:	ef 83       	std	Y+7, r30	; 0x07
     e1c:	fb 01       	movw	r30, r22
     e1e:	38 96       	adiw	r30, 0x08	; 8
     e20:	e4 91       	lpm	r30, Z
     e22:	e8 87       	std	Y+8, r30	; 0x08
     e24:	fb 01       	movw	r30, r22
     e26:	39 96       	adiw	r30, 0x09	; 9
     e28:	e4 91       	lpm	r30, Z
     e2a:	e9 87       	std	Y+9, r30	; 0x09
     e2c:	fb 01       	movw	r30, r22
     e2e:	3a 96       	adiw	r30, 0x0a	; 10
     e30:	e4 91       	lpm	r30, Z
     e32:	ea 87       	std	Y+10, r30	; 0x0a
     e34:	fb 01       	movw	r30, r22
     e36:	3b 96       	adiw	r30, 0x0b	; 11
     e38:	e4 91       	lpm	r30, Z
     e3a:	eb 87       	std	Y+11, r30	; 0x0b
     e3c:	fb 01       	movw	r30, r22
     e3e:	3c 96       	adiw	r30, 0x0c	; 12
     e40:	e4 91       	lpm	r30, Z
     e42:	ec 87       	std	Y+12, r30	; 0x0c
     e44:	fb 01       	movw	r30, r22
     e46:	3d 96       	adiw	r30, 0x0d	; 13
     e48:	e4 91       	lpm	r30, Z
     e4a:	ed 87       	std	Y+13, r30	; 0x0d
     e4c:	fb 01       	movw	r30, r22
     e4e:	3e 96       	adiw	r30, 0x0e	; 14
     e50:	e4 91       	lpm	r30, Z
     e52:	ee 87       	std	Y+14, r30	; 0x0e
     e54:	fb 01       	movw	r30, r22
     e56:	3f 96       	adiw	r30, 0x0f	; 15
     e58:	e4 91       	lpm	r30, Z
     e5a:	ef 87       	std	Y+15, r30	; 0x0f
     e5c:	fb 01       	movw	r30, r22
     e5e:	70 96       	adiw	r30, 0x10	; 16
     e60:	e4 91       	lpm	r30, Z
     e62:	e8 8b       	std	Y+16, r30	; 0x10
     e64:	61 e1       	ldi	r22, 0x11	; 17
     e66:	c8 01       	movw	r24, r16
     e68:	8d df       	rcall	.-230    	; 0xd84 <u8g2_font_get_word>
     e6a:	9a 8b       	std	Y+18, r25	; 0x12
     e6c:	89 8b       	std	Y+17, r24	; 0x11
     e6e:	63 e1       	ldi	r22, 0x13	; 19
     e70:	c8 01       	movw	r24, r16
     e72:	88 df       	rcall	.-240    	; 0xd84 <u8g2_font_get_word>
     e74:	9c 8b       	std	Y+20, r25	; 0x14
     e76:	8b 8b       	std	Y+19, r24	; 0x13
     e78:	65 e1       	ldi	r22, 0x15	; 21
     e7a:	c8 01       	movw	r24, r16
     e7c:	83 df       	rcall	.-250    	; 0xd84 <u8g2_font_get_word>
     e7e:	9e 8b       	std	Y+22, r25	; 0x16
     e80:	8d 8b       	std	Y+21, r24	; 0x15
     e82:	df 91       	pop	r29
     e84:	cf 91       	pop	r28
     e86:	1f 91       	pop	r17
     e88:	0f 91       	pop	r16
     e8a:	08 95       	ret

00000e8c <u8g2_font_decode_get_unsigned_bits>:
     e8c:	dc 01       	movw	r26, r24
     e8e:	18 96       	adiw	r26, 0x08	; 8
     e90:	4c 91       	ld	r20, X
     e92:	18 97       	sbiw	r26, 0x08	; 8
     e94:	ed 91       	ld	r30, X+
     e96:	fc 91       	ld	r31, X
     e98:	11 97       	sbiw	r26, 0x01	; 1
     e9a:	24 91       	lpm	r18, Z
     e9c:	30 e0       	ldi	r19, 0x00	; 0
     e9e:	04 2e       	mov	r0, r20
     ea0:	02 c0       	rjmp	.+4      	; 0xea6 <u8g2_font_decode_get_unsigned_bits+0x1a>
     ea2:	35 95       	asr	r19
     ea4:	27 95       	ror	r18
     ea6:	0a 94       	dec	r0
     ea8:	e2 f7       	brpl	.-8      	; 0xea2 <u8g2_font_decode_get_unsigned_bits+0x16>
     eaa:	84 2f       	mov	r24, r20
     eac:	86 0f       	add	r24, r22
     eae:	88 30       	cpi	r24, 0x08	; 8
     eb0:	10 f4       	brcc	.+4      	; 0xeb6 <u8g2_font_decode_get_unsigned_bits+0x2a>
     eb2:	e2 2f       	mov	r30, r18
     eb4:	0d c0       	rjmp	.+26     	; 0xed0 <u8g2_font_decode_get_unsigned_bits+0x44>
     eb6:	31 96       	adiw	r30, 0x01	; 1
     eb8:	11 96       	adiw	r26, 0x01	; 1
     eba:	fc 93       	st	X, r31
     ebc:	ee 93       	st	-X, r30
     ebe:	e4 91       	lpm	r30, Z
     ec0:	98 e0       	ldi	r25, 0x08	; 8
     ec2:	94 1b       	sub	r25, r20
     ec4:	01 c0       	rjmp	.+2      	; 0xec8 <u8g2_font_decode_get_unsigned_bits+0x3c>
     ec6:	ee 0f       	add	r30, r30
     ec8:	9a 95       	dec	r25
     eca:	ea f7       	brpl	.-6      	; 0xec6 <u8g2_font_decode_get_unsigned_bits+0x3a>
     ecc:	e2 2b       	or	r30, r18
     ece:	88 50       	subi	r24, 0x08	; 8
     ed0:	18 96       	adiw	r26, 0x08	; 8
     ed2:	8c 93       	st	X, r24
     ed4:	81 e0       	ldi	r24, 0x01	; 1
     ed6:	90 e0       	ldi	r25, 0x00	; 0
     ed8:	01 c0       	rjmp	.+2      	; 0xedc <u8g2_font_decode_get_unsigned_bits+0x50>
     eda:	88 0f       	add	r24, r24
     edc:	6a 95       	dec	r22
     ede:	ea f7       	brpl	.-6      	; 0xeda <u8g2_font_decode_get_unsigned_bits+0x4e>
     ee0:	81 50       	subi	r24, 0x01	; 1
     ee2:	8e 23       	and	r24, r30
     ee4:	08 95       	ret

00000ee6 <u8g2_font_setup_decode>:
     ee6:	0f 93       	push	r16
     ee8:	1f 93       	push	r17
     eea:	cf 93       	push	r28
     eec:	df 93       	push	r29
     eee:	ec 01       	movw	r28, r24
     ef0:	8c 01       	movw	r16, r24
     ef2:	06 5c       	subi	r16, 0xC6	; 198
     ef4:	1f 4f       	sbci	r17, 0xFF	; 255
     ef6:	7b af       	std	Y+59, r23	; 0x3b
     ef8:	6a af       	std	Y+58, r22	; 0x3a
     efa:	fc 01       	movw	r30, r24
     efc:	ee 5b       	subi	r30, 0xBE	; 190
     efe:	ff 4f       	sbci	r31, 0xFF	; 255
     f00:	10 82       	st	Z, r1
     f02:	39 96       	adiw	r30, 0x09	; 9
     f04:	60 81       	ld	r22, Z
     f06:	c8 01       	movw	r24, r16
     f08:	c1 df       	rcall	.-126    	; 0xe8c <u8g2_font_decode_get_unsigned_bits>
     f0a:	fe 01       	movw	r30, r28
     f0c:	e0 5c       	subi	r30, 0xC0	; 192
     f0e:	ff 4f       	sbci	r31, 0xFF	; 255
     f10:	80 83       	st	Z, r24
     f12:	3c 96       	adiw	r30, 0x0c	; 12
     f14:	60 81       	ld	r22, Z
     f16:	c8 01       	movw	r24, r16
     f18:	b9 df       	rcall	.-142    	; 0xe8c <u8g2_font_decode_get_unsigned_bits>
     f1a:	fe 01       	movw	r30, r28
     f1c:	ef 5b       	subi	r30, 0xBF	; 191
     f1e:	ff 4f       	sbci	r31, 0xFF	; 255
     f20:	80 83       	st	Z, r24
     f22:	b3 96       	adiw	r30, 0x23	; 35
     f24:	90 81       	ld	r25, Z
     f26:	b0 97       	sbiw	r30, 0x20	; 32
     f28:	90 83       	st	Z, r25
     f2a:	cb 5b       	subi	r28, 0xBB	; 187
     f2c:	df 4f       	sbci	r29, 0xFF	; 255
     f2e:	81 e0       	ldi	r24, 0x01	; 1
     f30:	91 11       	cpse	r25, r1
     f32:	80 e0       	ldi	r24, 0x00	; 0
     f34:	88 83       	st	Y, r24
     f36:	df 91       	pop	r29
     f38:	cf 91       	pop	r28
     f3a:	1f 91       	pop	r17
     f3c:	0f 91       	pop	r16
     f3e:	08 95       	ret

00000f40 <u8g2_font_decode_get_signed_bits>:
     f40:	cf 93       	push	r28
     f42:	c6 2f       	mov	r28, r22
     f44:	a3 df       	rcall	.-186    	; 0xe8c <u8g2_font_decode_get_unsigned_bits>
     f46:	c1 50       	subi	r28, 0x01	; 1
     f48:	21 e0       	ldi	r18, 0x01	; 1
     f4a:	30 e0       	ldi	r19, 0x00	; 0
     f4c:	01 c0       	rjmp	.+2      	; 0xf50 <u8g2_font_decode_get_signed_bits+0x10>
     f4e:	22 0f       	add	r18, r18
     f50:	ca 95       	dec	r28
     f52:	ea f7       	brpl	.-6      	; 0xf4e <u8g2_font_decode_get_signed_bits+0xe>
     f54:	82 1b       	sub	r24, r18
     f56:	cf 91       	pop	r28
     f58:	08 95       	ret

00000f5a <u8g2_font_decode_len>:
     f5a:	2f 92       	push	r2
     f5c:	3f 92       	push	r3
     f5e:	4f 92       	push	r4
     f60:	5f 92       	push	r5
     f62:	6f 92       	push	r6
     f64:	7f 92       	push	r7
     f66:	8f 92       	push	r8
     f68:	9f 92       	push	r9
     f6a:	af 92       	push	r10
     f6c:	bf 92       	push	r11
     f6e:	cf 92       	push	r12
     f70:	df 92       	push	r13
     f72:	ef 92       	push	r14
     f74:	ff 92       	push	r15
     f76:	0f 93       	push	r16
     f78:	1f 93       	push	r17
     f7a:	cf 93       	push	r28
     f7c:	df 93       	push	r29
     f7e:	cd b7       	in	r28, 0x3d	; 61
     f80:	de b7       	in	r29, 0x3e	; 62
     f82:	27 97       	sbiw	r28, 0x07	; 7
     f84:	0f b6       	in	r0, 0x3f	; 63
     f86:	f8 94       	cli
     f88:	de bf       	out	0x3e, r29	; 62
     f8a:	0f be       	out	0x3f, r0	; 63
     f8c:	cd bf       	out	0x3d, r28	; 61
     f8e:	9f 83       	std	Y+7, r25	; 0x07
     f90:	8e 83       	std	Y+6, r24	; 0x06
     f92:	76 2e       	mov	r7, r22
     f94:	49 83       	std	Y+1, r20	; 0x01
     f96:	fc 01       	movw	r30, r24
     f98:	16 ad       	ldd	r17, Z+62	; 0x3e
     f9a:	57 ac       	ldd	r5, Z+63	; 0x3f
     f9c:	e0 5c       	subi	r30, 0xC0	; 192
     f9e:	ff 4f       	sbci	r31, 0xFF	; 255
     fa0:	fb 83       	std	Y+3, r31	; 0x03
     fa2:	ea 83       	std	Y+2, r30	; 0x02
     fa4:	8a 5b       	subi	r24, 0xBA	; 186
     fa6:	9f 4f       	sbci	r25, 0xFF	; 255
     fa8:	9d 83       	std	Y+5, r25	; 0x05
     faa:	8c 83       	std	Y+4, r24	; 0x04
     fac:	ce 80       	ldd	r12, Y+6	; 0x06
     fae:	df 80       	ldd	r13, Y+7	; 0x07
     fb0:	93 e4       	ldi	r25, 0x43	; 67
     fb2:	c9 0e       	add	r12, r25
     fb4:	d1 1c       	adc	r13, r1
     fb6:	ee 80       	ldd	r14, Y+6	; 0x06
     fb8:	ff 80       	ldd	r15, Y+7	; 0x07
     fba:	e4 e6       	ldi	r30, 0x64	; 100
     fbc:	ee 0e       	add	r14, r30
     fbe:	f1 1c       	adc	r15, r1
     fc0:	ae 80       	ldd	r10, Y+6	; 0x06
     fc2:	bf 80       	ldd	r11, Y+7	; 0x07
     fc4:	f5 e4       	ldi	r31, 0x45	; 69
     fc6:	af 0e       	add	r10, r31
     fc8:	b1 1c       	adc	r11, r1
     fca:	8e 80       	ldd	r8, Y+6	; 0x06
     fcc:	9f 80       	ldd	r9, Y+7	; 0x07
     fce:	84 e4       	ldi	r24, 0x44	; 68
     fd0:	88 0e       	add	r8, r24
     fd2:	91 1c       	adc	r9, r1
     fd4:	ea 81       	ldd	r30, Y+2	; 0x02
     fd6:	fb 81       	ldd	r31, Y+3	; 0x03
     fd8:	60 80       	ld	r6, Z
     fda:	61 1a       	sub	r6, r17
     fdc:	47 2c       	mov	r4, r7
     fde:	67 14       	cp	r6, r7
     fe0:	08 f4       	brcc	.+2      	; 0xfe4 <u8g2_font_decode_len+0x8a>
     fe2:	46 2c       	mov	r4, r6
     fe4:	ee 81       	ldd	r30, Y+6	; 0x06
     fe6:	ff 81       	ldd	r31, Y+7	; 0x07
     fe8:	25 ac       	ldd	r2, Z+61	; 0x3d
     fea:	ec 81       	ldd	r30, Y+4	; 0x04
     fec:	fd 81       	ldd	r31, Y+5	; 0x05
     fee:	00 81       	ld	r16, Z
     ff0:	20 2f       	mov	r18, r16
     ff2:	45 2d       	mov	r20, r5
     ff4:	61 2f       	mov	r22, r17
     ff6:	ee 81       	ldd	r30, Y+6	; 0x06
     ff8:	ff 81       	ldd	r31, Y+7	; 0x07
     ffa:	84 ad       	ldd	r24, Z+60	; 0x3c
     ffc:	dc de       	rcall	.-584    	; 0xdb6 <u8g2_add_vector_x>
     ffe:	38 2e       	mov	r3, r24
    1000:	20 2f       	mov	r18, r16
    1002:	45 2d       	mov	r20, r5
    1004:	61 2f       	mov	r22, r17
    1006:	82 2d       	mov	r24, r2
    1008:	c9 de       	rcall	.-622    	; 0xd9c <u8g2_add_vector_y>
    100a:	48 2f       	mov	r20, r24
    100c:	f9 81       	ldd	r31, Y+1	; 0x01
    100e:	ff 23       	and	r31, r31
    1010:	11 f0       	breq	.+4      	; 0x1016 <u8g2_font_decode_len+0xbc>
    1012:	f4 01       	movw	r30, r8
    1014:	05 c0       	rjmp	.+10     	; 0x1020 <u8g2_font_decode_len+0xc6>
    1016:	f6 01       	movw	r30, r12
    1018:	80 81       	ld	r24, Z
    101a:	81 11       	cpse	r24, r1
    101c:	09 c0       	rjmp	.+18     	; 0x1030 <u8g2_font_decode_len+0xd6>
    101e:	f5 01       	movw	r30, r10
    1020:	80 81       	ld	r24, Z
    1022:	f7 01       	movw	r30, r14
    1024:	80 83       	st	Z, r24
    1026:	24 2d       	mov	r18, r4
    1028:	63 2d       	mov	r22, r3
    102a:	8e 81       	ldd	r24, Y+6	; 0x06
    102c:	9f 81       	ldd	r25, Y+7	; 0x07
    102e:	37 d2       	rcall	.+1134   	; 0x149e <u8g2_DrawHVLine>
    1030:	76 14       	cp	r7, r6
    1032:	20 f0       	brcs	.+8      	; 0x103c <u8g2_font_decode_len+0xe2>
    1034:	76 18       	sub	r7, r6
    1036:	53 94       	inc	r5
    1038:	10 e0       	ldi	r17, 0x00	; 0
    103a:	cc cf       	rjmp	.-104    	; 0xfd4 <u8g2_font_decode_len+0x7a>
    103c:	17 0d       	add	r17, r7
    103e:	ee 81       	ldd	r30, Y+6	; 0x06
    1040:	ff 81       	ldd	r31, Y+7	; 0x07
    1042:	16 af       	std	Z+62, r17	; 0x3e
    1044:	57 ae       	std	Z+63, r5	; 0x3f
    1046:	27 96       	adiw	r28, 0x07	; 7
    1048:	0f b6       	in	r0, 0x3f	; 63
    104a:	f8 94       	cli
    104c:	de bf       	out	0x3e, r29	; 62
    104e:	0f be       	out	0x3f, r0	; 63
    1050:	cd bf       	out	0x3d, r28	; 61
    1052:	df 91       	pop	r29
    1054:	cf 91       	pop	r28
    1056:	1f 91       	pop	r17
    1058:	0f 91       	pop	r16
    105a:	ff 90       	pop	r15
    105c:	ef 90       	pop	r14
    105e:	df 90       	pop	r13
    1060:	cf 90       	pop	r12
    1062:	bf 90       	pop	r11
    1064:	af 90       	pop	r10
    1066:	9f 90       	pop	r9
    1068:	8f 90       	pop	r8
    106a:	7f 90       	pop	r7
    106c:	6f 90       	pop	r6
    106e:	5f 90       	pop	r5
    1070:	4f 90       	pop	r4
    1072:	3f 90       	pop	r3
    1074:	2f 90       	pop	r2
    1076:	08 95       	ret

00001078 <u8g2_font_decode_glyph>:
    1078:	8f 92       	push	r8
    107a:	9f 92       	push	r9
    107c:	af 92       	push	r10
    107e:	bf 92       	push	r11
    1080:	cf 92       	push	r12
    1082:	df 92       	push	r13
    1084:	ef 92       	push	r14
    1086:	ff 92       	push	r15
    1088:	0f 93       	push	r16
    108a:	1f 93       	push	r17
    108c:	cf 93       	push	r28
    108e:	df 93       	push	r29
    1090:	ec 01       	movw	r28, r24
    1092:	6c 01       	movw	r12, r24
    1094:	8a e3       	ldi	r24, 0x3A	; 58
    1096:	c8 0e       	add	r12, r24
    1098:	d1 1c       	adc	r13, r1
    109a:	ce 01       	movw	r24, r28
    109c:	24 df       	rcall	.-440    	; 0xee6 <u8g2_font_setup_decode>
    109e:	fe 01       	movw	r30, r28
    10a0:	ef 5b       	subi	r30, 0xBF	; 191
    10a2:	ff 4f       	sbci	r31, 0xFF	; 255
    10a4:	e0 80       	ld	r14, Z
    10a6:	3c 96       	adiw	r30, 0x0c	; 12
    10a8:	60 81       	ld	r22, Z
    10aa:	c6 01       	movw	r24, r12
    10ac:	49 df       	rcall	.-366    	; 0xf40 <u8g2_font_decode_get_signed_bits>
    10ae:	98 2e       	mov	r9, r24
    10b0:	fe 01       	movw	r30, r28
    10b2:	e2 5b       	subi	r30, 0xB2	; 178
    10b4:	ff 4f       	sbci	r31, 0xFF	; 255
    10b6:	60 81       	ld	r22, Z
    10b8:	c6 01       	movw	r24, r12
    10ba:	42 df       	rcall	.-380    	; 0xf40 <u8g2_font_decode_get_signed_bits>
    10bc:	b8 2e       	mov	r11, r24
    10be:	fe 01       	movw	r30, r28
    10c0:	e1 5b       	subi	r30, 0xB1	; 177
    10c2:	ff 4f       	sbci	r31, 0xFF	; 255
    10c4:	60 81       	ld	r22, Z
    10c6:	c6 01       	movw	r24, r12
    10c8:	3b df       	rcall	.-394    	; 0xf40 <u8g2_font_decode_get_signed_bits>
    10ca:	a8 2e       	mov	r10, r24
    10cc:	fe 01       	movw	r30, r28
    10ce:	e0 5c       	subi	r30, 0xC0	; 192
    10d0:	ff 4f       	sbci	r31, 0xFF	; 255
    10d2:	00 81       	ld	r16, Z
    10d4:	10 16       	cp	r1, r16
    10d6:	0c f0       	brlt	.+2      	; 0x10da <u8g2_font_decode_glyph+0x62>
    10d8:	6d c0       	rjmp	.+218    	; 0x11b4 <u8g2_font_decode_glyph+0x13c>
    10da:	36 96       	adiw	r30, 0x06	; 6
    10dc:	f0 80       	ld	r15, Z
    10de:	be 0c       	add	r11, r14
    10e0:	b1 94       	neg	r11
    10e2:	2f 2d       	mov	r18, r15
    10e4:	4b 2d       	mov	r20, r11
    10e6:	69 2d       	mov	r22, r9
    10e8:	8c ad       	ldd	r24, Y+60	; 0x3c
    10ea:	65 de       	rcall	.-822    	; 0xdb6 <u8g2_add_vector_x>
    10ec:	18 2f       	mov	r17, r24
    10ee:	8c af       	std	Y+60, r24	; 0x3c
    10f0:	2f 2d       	mov	r18, r15
    10f2:	4b 2d       	mov	r20, r11
    10f4:	69 2d       	mov	r22, r9
    10f6:	8d ad       	ldd	r24, Y+61	; 0x3d
    10f8:	51 de       	rcall	.-862    	; 0xd9c <u8g2_add_vector_y>
    10fa:	8d af       	std	Y+61, r24	; 0x3d
    10fc:	91 e0       	ldi	r25, 0x01	; 1
    10fe:	f9 16       	cp	r15, r25
    1100:	b1 f0       	breq	.+44     	; 0x112e <u8g2_font_decode_glyph+0xb6>
    1102:	f9 16       	cp	r15, r25
    1104:	78 f0       	brcs	.+30     	; 0x1124 <u8g2_font_decode_glyph+0xac>
    1106:	e2 e0       	ldi	r30, 0x02	; 2
    1108:	fe 16       	cp	r15, r30
    110a:	b9 f0       	breq	.+46     	; 0x113a <u8g2_font_decode_glyph+0xc2>
    110c:	f3 e0       	ldi	r31, 0x03	; 3
    110e:	ff 12       	cpse	r15, r31
    1110:	1f c0       	rjmp	.+62     	; 0x1150 <u8g2_font_decode_glyph+0xd8>
    1112:	2e 2d       	mov	r18, r14
    1114:	21 0f       	add	r18, r17
    1116:	98 2f       	mov	r25, r24
    1118:	90 1b       	sub	r25, r16
    111a:	01 e0       	ldi	r16, 0x01	; 1
    111c:	08 0f       	add	r16, r24
    111e:	81 e0       	ldi	r24, 0x01	; 1
    1120:	89 0f       	add	r24, r25
    1122:	18 c0       	rjmp	.+48     	; 0x1154 <u8g2_font_decode_glyph+0xdc>
    1124:	20 2f       	mov	r18, r16
    1126:	21 0f       	add	r18, r17
    1128:	0e 2d       	mov	r16, r14
    112a:	08 0f       	add	r16, r24
    112c:	13 c0       	rjmp	.+38     	; 0x1154 <u8g2_font_decode_glyph+0xdc>
    112e:	fe 18       	sub	r15, r14
    1130:	21 e0       	ldi	r18, 0x01	; 1
    1132:	21 0f       	add	r18, r17
    1134:	08 0f       	add	r16, r24
    1136:	1f 0d       	add	r17, r15
    1138:	0d c0       	rjmp	.+26     	; 0x1154 <u8g2_font_decode_glyph+0xdc>
    113a:	91 e0       	ldi	r25, 0x01	; 1
    113c:	39 2f       	mov	r19, r25
    113e:	30 1b       	sub	r19, r16
    1140:	21 e0       	ldi	r18, 0x01	; 1
    1142:	21 0f       	add	r18, r17
    1144:	9e 19       	sub	r25, r14
    1146:	01 e0       	ldi	r16, 0x01	; 1
    1148:	08 0f       	add	r16, r24
    114a:	89 0f       	add	r24, r25
    114c:	13 0f       	add	r17, r19
    114e:	02 c0       	rjmp	.+4      	; 0x1154 <u8g2_font_decode_glyph+0xdc>
    1150:	08 2f       	mov	r16, r24
    1152:	21 2f       	mov	r18, r17
    1154:	48 2f       	mov	r20, r24
    1156:	61 2f       	mov	r22, r17
    1158:	ce 01       	movw	r24, r28
    115a:	23 d2       	rcall	.+1094   	; 0x15a2 <u8g2_IsIntersection>
    115c:	88 23       	and	r24, r24
    115e:	51 f1       	breq	.+84     	; 0x11b4 <u8g2_font_decode_glyph+0x13c>
    1160:	1e ae       	std	Y+62, r1	; 0x3e
    1162:	1f ae       	std	Y+63, r1	; 0x3f
    1164:	8e 01       	movw	r16, r28
    1166:	07 5b       	subi	r16, 0xB7	; 183
    1168:	1f 4f       	sbci	r17, 0xFF	; 255
    116a:	4e 01       	movw	r8, r28
    116c:	8a e4       	ldi	r24, 0x4A	; 74
    116e:	88 0e       	add	r8, r24
    1170:	91 1c       	adc	r9, r1
    1172:	f8 01       	movw	r30, r16
    1174:	60 81       	ld	r22, Z
    1176:	c6 01       	movw	r24, r12
    1178:	89 de       	rcall	.-750    	; 0xe8c <u8g2_font_decode_get_unsigned_bits>
    117a:	b8 2e       	mov	r11, r24
    117c:	f4 01       	movw	r30, r8
    117e:	60 81       	ld	r22, Z
    1180:	c6 01       	movw	r24, r12
    1182:	84 de       	rcall	.-760    	; 0xe8c <u8g2_font_decode_get_unsigned_bits>
    1184:	f8 2e       	mov	r15, r24
    1186:	40 e0       	ldi	r20, 0x00	; 0
    1188:	6b 2d       	mov	r22, r11
    118a:	ce 01       	movw	r24, r28
    118c:	e6 de       	rcall	.-564    	; 0xf5a <u8g2_font_decode_len>
    118e:	41 e0       	ldi	r20, 0x01	; 1
    1190:	6f 2d       	mov	r22, r15
    1192:	ce 01       	movw	r24, r28
    1194:	e2 de       	rcall	.-572    	; 0xf5a <u8g2_font_decode_len>
    1196:	61 e0       	ldi	r22, 0x01	; 1
    1198:	c6 01       	movw	r24, r12
    119a:	78 de       	rcall	.-784    	; 0xe8c <u8g2_font_decode_get_unsigned_bits>
    119c:	81 11       	cpse	r24, r1
    119e:	f3 cf       	rjmp	.-26     	; 0x1186 <u8g2_font_decode_glyph+0x10e>
    11a0:	8f ad       	ldd	r24, Y+63	; 0x3f
    11a2:	8e 15       	cp	r24, r14
    11a4:	34 f3       	brlt	.-52     	; 0x1172 <u8g2_font_decode_glyph+0xfa>
    11a6:	fe 01       	movw	r30, r28
    11a8:	ec 59       	subi	r30, 0x9C	; 156
    11aa:	ff 4f       	sbci	r31, 0xFF	; 255
    11ac:	cc 5b       	subi	r28, 0xBC	; 188
    11ae:	df 4f       	sbci	r29, 0xFF	; 255
    11b0:	88 81       	ld	r24, Y
    11b2:	80 83       	st	Z, r24
    11b4:	8a 2d       	mov	r24, r10
    11b6:	df 91       	pop	r29
    11b8:	cf 91       	pop	r28
    11ba:	1f 91       	pop	r17
    11bc:	0f 91       	pop	r16
    11be:	ff 90       	pop	r15
    11c0:	ef 90       	pop	r14
    11c2:	df 90       	pop	r13
    11c4:	cf 90       	pop	r12
    11c6:	bf 90       	pop	r11
    11c8:	af 90       	pop	r10
    11ca:	9f 90       	pop	r9
    11cc:	8f 90       	pop	r8
    11ce:	08 95       	ret

000011d0 <u8g2_font_get_glyph_data>:
    11d0:	ef 92       	push	r14
    11d2:	ff 92       	push	r15
    11d4:	0f 93       	push	r16
    11d6:	1f 93       	push	r17
    11d8:	cf 93       	push	r28
    11da:	df 93       	push	r29
    11dc:	fc 01       	movw	r30, r24
    11de:	26 a9       	ldd	r18, Z+54	; 0x36
    11e0:	37 a9       	ldd	r19, Z+55	; 0x37
    11e2:	29 5e       	subi	r18, 0xE9	; 233
    11e4:	3f 4f       	sbci	r19, 0xFF	; 255
    11e6:	6f 3f       	cpi	r22, 0xFF	; 255
    11e8:	71 05       	cpc	r23, r1
    11ea:	09 f0       	breq	.+2      	; 0x11ee <u8g2_font_get_glyph_data+0x1e>
    11ec:	20 f5       	brcc	.+72     	; 0x1236 <u8g2_font_get_glyph_data+0x66>
    11ee:	61 36       	cpi	r22, 0x61	; 97
    11f0:	71 05       	cpc	r23, r1
    11f2:	18 f0       	brcs	.+6      	; 0x11fa <u8g2_font_get_glyph_data+0x2a>
    11f4:	e6 5a       	subi	r30, 0xA6	; 166
    11f6:	ff 4f       	sbci	r31, 0xFF	; 255
    11f8:	06 c0       	rjmp	.+12     	; 0x1206 <u8g2_font_get_glyph_data+0x36>
    11fa:	61 34       	cpi	r22, 0x41	; 65
    11fc:	71 05       	cpc	r23, r1
    11fe:	38 f0       	brcs	.+14     	; 0x120e <u8g2_font_get_glyph_data+0x3e>
    1200:	fc 01       	movw	r30, r24
    1202:	e8 5a       	subi	r30, 0xA8	; 168
    1204:	ff 4f       	sbci	r31, 0xFF	; 255
    1206:	80 81       	ld	r24, Z
    1208:	91 81       	ldd	r25, Z+1	; 0x01
    120a:	28 0f       	add	r18, r24
    120c:	39 1f       	adc	r19, r25
    120e:	c9 01       	movw	r24, r18
    1210:	01 96       	adiw	r24, 0x01	; 1
    1212:	fc 01       	movw	r30, r24
    1214:	44 91       	lpm	r20, Z
    1216:	44 23       	and	r20, r20
    1218:	09 f4       	brne	.+2      	; 0x121c <u8g2_font_get_glyph_data+0x4c>
    121a:	3a c0       	rjmp	.+116    	; 0x1290 <u8g2_font_get_glyph_data+0xc0>
    121c:	f9 01       	movw	r30, r18
    121e:	44 91       	lpm	r20, Z
    1220:	50 e0       	ldi	r21, 0x00	; 0
    1222:	64 17       	cp	r22, r20
    1224:	75 07       	cpc	r23, r21
    1226:	11 f4       	brne	.+4      	; 0x122c <u8g2_font_get_glyph_data+0x5c>
    1228:	01 96       	adiw	r24, 0x01	; 1
    122a:	34 c0       	rjmp	.+104    	; 0x1294 <u8g2_font_get_glyph_data+0xc4>
    122c:	fc 01       	movw	r30, r24
    122e:	84 91       	lpm	r24, Z
    1230:	28 0f       	add	r18, r24
    1232:	31 1d       	adc	r19, r1
    1234:	ec cf       	rjmp	.-40     	; 0x120e <u8g2_font_get_glyph_data+0x3e>
    1236:	8b 01       	movw	r16, r22
    1238:	fc 01       	movw	r30, r24
    123a:	e4 5a       	subi	r30, 0xA4	; 164
    123c:	ff 4f       	sbci	r31, 0xFF	; 255
    123e:	c0 81       	ld	r28, Z
    1240:	d1 81       	ldd	r29, Z+1	; 0x01
    1242:	c2 0f       	add	r28, r18
    1244:	d3 1f       	adc	r29, r19
    1246:	7e 01       	movw	r14, r28
    1248:	60 e0       	ldi	r22, 0x00	; 0
    124a:	c7 01       	movw	r24, r14
    124c:	9b dd       	rcall	.-1226   	; 0xd84 <u8g2_font_get_word>
    124e:	c8 0f       	add	r28, r24
    1250:	d9 1f       	adc	r29, r25
    1252:	62 e0       	ldi	r22, 0x02	; 2
    1254:	c7 01       	movw	r24, r14
    1256:	96 dd       	rcall	.-1236   	; 0xd84 <u8g2_font_get_word>
    1258:	f4 e0       	ldi	r31, 0x04	; 4
    125a:	ef 0e       	add	r14, r31
    125c:	f1 1c       	adc	r15, r1
    125e:	80 17       	cp	r24, r16
    1260:	91 07       	cpc	r25, r17
    1262:	90 f3       	brcs	.-28     	; 0x1248 <u8g2_font_get_glyph_data+0x78>
    1264:	fe 01       	movw	r30, r28
    1266:	84 91       	lpm	r24, Z
    1268:	90 e0       	ldi	r25, 0x00	; 0
    126a:	98 2f       	mov	r25, r24
    126c:	88 27       	eor	r24, r24
    126e:	31 96       	adiw	r30, 0x01	; 1
    1270:	e4 91       	lpm	r30, Z
    1272:	8e 2b       	or	r24, r30
    1274:	00 97       	sbiw	r24, 0x00	; 0
    1276:	61 f0       	breq	.+24     	; 0x1290 <u8g2_font_get_glyph_data+0xc0>
    1278:	08 17       	cp	r16, r24
    127a:	19 07       	cpc	r17, r25
    127c:	19 f4       	brne	.+6      	; 0x1284 <u8g2_font_get_glyph_data+0xb4>
    127e:	ce 01       	movw	r24, r28
    1280:	03 96       	adiw	r24, 0x03	; 3
    1282:	08 c0       	rjmp	.+16     	; 0x1294 <u8g2_font_get_glyph_data+0xc4>
    1284:	fe 01       	movw	r30, r28
    1286:	32 96       	adiw	r30, 0x02	; 2
    1288:	e4 91       	lpm	r30, Z
    128a:	ce 0f       	add	r28, r30
    128c:	d1 1d       	adc	r29, r1
    128e:	ea cf       	rjmp	.-44     	; 0x1264 <u8g2_font_get_glyph_data+0x94>
    1290:	80 e0       	ldi	r24, 0x00	; 0
    1292:	90 e0       	ldi	r25, 0x00	; 0
    1294:	df 91       	pop	r29
    1296:	cf 91       	pop	r28
    1298:	1f 91       	pop	r17
    129a:	0f 91       	pop	r16
    129c:	ff 90       	pop	r15
    129e:	ef 90       	pop	r14
    12a0:	08 95       	ret

000012a2 <u8g2_DrawGlyph>:
    12a2:	ef 92       	push	r14
    12a4:	ff 92       	push	r15
    12a6:	0f 93       	push	r16
    12a8:	1f 93       	push	r17
    12aa:	cf 93       	push	r28
    12ac:	df 93       	push	r29
    12ae:	ec 01       	movw	r28, r24
    12b0:	06 2f       	mov	r16, r22
    12b2:	14 2f       	mov	r17, r20
    12b4:	79 01       	movw	r14, r18
    12b6:	fc 01       	movw	r30, r24
    12b8:	ea 5b       	subi	r30, 0xBA	; 186
    12ba:	ff 4f       	sbci	r31, 0xFF	; 255
    12bc:	80 81       	ld	r24, Z
    12be:	81 30       	cpi	r24, 0x01	; 1
    12c0:	89 f0       	breq	.+34     	; 0x12e4 <u8g2_DrawGlyph+0x42>
    12c2:	50 f0       	brcs	.+20     	; 0x12d8 <u8g2_DrawGlyph+0x36>
    12c4:	82 30       	cpi	r24, 0x02	; 2
    12c6:	a1 f0       	breq	.+40     	; 0x12f0 <u8g2_DrawGlyph+0x4e>
    12c8:	83 30       	cpi	r24, 0x03	; 3
    12ca:	b9 f4       	brne	.+46     	; 0x12fa <u8g2_DrawGlyph+0x58>
    12cc:	e8 ad       	ldd	r30, Y+56	; 0x38
    12ce:	f9 ad       	ldd	r31, Y+57	; 0x39
    12d0:	ce 01       	movw	r24, r28
    12d2:	09 95       	icall
    12d4:	08 0f       	add	r16, r24
    12d6:	11 c0       	rjmp	.+34     	; 0x12fa <u8g2_DrawGlyph+0x58>
    12d8:	e8 ad       	ldd	r30, Y+56	; 0x38
    12da:	f9 ad       	ldd	r31, Y+57	; 0x39
    12dc:	ce 01       	movw	r24, r28
    12de:	09 95       	icall
    12e0:	18 0f       	add	r17, r24
    12e2:	0b c0       	rjmp	.+22     	; 0x12fa <u8g2_DrawGlyph+0x58>
    12e4:	e8 ad       	ldd	r30, Y+56	; 0x38
    12e6:	f9 ad       	ldd	r31, Y+57	; 0x39
    12e8:	ce 01       	movw	r24, r28
    12ea:	09 95       	icall
    12ec:	08 1b       	sub	r16, r24
    12ee:	05 c0       	rjmp	.+10     	; 0x12fa <u8g2_DrawGlyph+0x58>
    12f0:	e8 ad       	ldd	r30, Y+56	; 0x38
    12f2:	f9 ad       	ldd	r31, Y+57	; 0x39
    12f4:	ce 01       	movw	r24, r28
    12f6:	09 95       	icall
    12f8:	18 1b       	sub	r17, r24
    12fa:	0c af       	std	Y+60, r16	; 0x3c
    12fc:	1d af       	std	Y+61, r17	; 0x3d
    12fe:	b7 01       	movw	r22, r14
    1300:	ce 01       	movw	r24, r28
    1302:	66 df       	rcall	.-308    	; 0x11d0 <u8g2_font_get_glyph_data>
    1304:	00 97       	sbiw	r24, 0x00	; 0
    1306:	49 f0       	breq	.+18     	; 0x131a <u8g2_DrawGlyph+0x78>
    1308:	bc 01       	movw	r22, r24
    130a:	ce 01       	movw	r24, r28
    130c:	df 91       	pop	r29
    130e:	cf 91       	pop	r28
    1310:	1f 91       	pop	r17
    1312:	0f 91       	pop	r16
    1314:	ff 90       	pop	r15
    1316:	ef 90       	pop	r14
    1318:	af ce       	rjmp	.-674    	; 0x1078 <u8g2_font_decode_glyph>
    131a:	80 e0       	ldi	r24, 0x00	; 0
    131c:	df 91       	pop	r29
    131e:	cf 91       	pop	r28
    1320:	1f 91       	pop	r17
    1322:	0f 91       	pop	r16
    1324:	ff 90       	pop	r15
    1326:	ef 90       	pop	r14
    1328:	08 95       	ret

0000132a <u8g2_draw_string>:
    132a:	af 92       	push	r10
    132c:	bf 92       	push	r11
    132e:	df 92       	push	r13
    1330:	ef 92       	push	r14
    1332:	ff 92       	push	r15
    1334:	0f 93       	push	r16
    1336:	1f 93       	push	r17
    1338:	cf 93       	push	r28
    133a:	df 93       	push	r29
    133c:	ec 01       	movw	r28, r24
    133e:	16 2f       	mov	r17, r22
    1340:	04 2f       	mov	r16, r20
    1342:	b2 2e       	mov	r11, r18
    1344:	d3 2e       	mov	r13, r19
    1346:	68 d2       	rcall	.+1232   	; 0x1818 <u8x8_utf8_init>
    1348:	eb 2c       	mov	r14, r11
    134a:	fd 2c       	mov	r15, r13
    134c:	d1 2c       	mov	r13, r1
    134e:	5e 01       	movw	r10, r28
    1350:	26 e4       	ldi	r18, 0x46	; 70
    1352:	a2 0e       	add	r10, r18
    1354:	b1 1c       	adc	r11, r1
    1356:	f7 01       	movw	r30, r14
    1358:	61 91       	ld	r22, Z+
    135a:	7f 01       	movw	r14, r30
    135c:	ea 81       	ldd	r30, Y+2	; 0x02
    135e:	fb 81       	ldd	r31, Y+3	; 0x03
    1360:	ce 01       	movw	r24, r28
    1362:	09 95       	icall
    1364:	8f 3f       	cpi	r24, 0xFF	; 255
    1366:	ff ef       	ldi	r31, 0xFF	; 255
    1368:	9f 07       	cpc	r25, r31
    136a:	d9 f0       	breq	.+54     	; 0x13a2 <u8g2_draw_string+0x78>
    136c:	8e 3f       	cpi	r24, 0xFE	; 254
    136e:	2f ef       	ldi	r18, 0xFF	; 255
    1370:	92 07       	cpc	r25, r18
    1372:	89 f3       	breq	.-30     	; 0x1356 <u8g2_draw_string+0x2c>
    1374:	9c 01       	movw	r18, r24
    1376:	40 2f       	mov	r20, r16
    1378:	61 2f       	mov	r22, r17
    137a:	ce 01       	movw	r24, r28
    137c:	92 df       	rcall	.-220    	; 0x12a2 <u8g2_DrawGlyph>
    137e:	f5 01       	movw	r30, r10
    1380:	90 81       	ld	r25, Z
    1382:	91 30       	cpi	r25, 0x01	; 1
    1384:	49 f0       	breq	.+18     	; 0x1398 <u8g2_draw_string+0x6e>
    1386:	30 f0       	brcs	.+12     	; 0x1394 <u8g2_draw_string+0x6a>
    1388:	92 30       	cpi	r25, 0x02	; 2
    138a:	41 f0       	breq	.+16     	; 0x139c <u8g2_draw_string+0x72>
    138c:	93 30       	cpi	r25, 0x03	; 3
    138e:	39 f4       	brne	.+14     	; 0x139e <u8g2_draw_string+0x74>
    1390:	08 1b       	sub	r16, r24
    1392:	05 c0       	rjmp	.+10     	; 0x139e <u8g2_draw_string+0x74>
    1394:	18 0f       	add	r17, r24
    1396:	03 c0       	rjmp	.+6      	; 0x139e <u8g2_draw_string+0x74>
    1398:	08 0f       	add	r16, r24
    139a:	01 c0       	rjmp	.+2      	; 0x139e <u8g2_draw_string+0x74>
    139c:	18 1b       	sub	r17, r24
    139e:	d8 0e       	add	r13, r24
    13a0:	da cf       	rjmp	.-76     	; 0x1356 <u8g2_draw_string+0x2c>
    13a2:	8d 2d       	mov	r24, r13
    13a4:	df 91       	pop	r29
    13a6:	cf 91       	pop	r28
    13a8:	1f 91       	pop	r17
    13aa:	0f 91       	pop	r16
    13ac:	ff 90       	pop	r15
    13ae:	ef 90       	pop	r14
    13b0:	df 90       	pop	r13
    13b2:	bf 90       	pop	r11
    13b4:	af 90       	pop	r10
    13b6:	08 95       	ret

000013b8 <u8g2_DrawStr>:
    13b8:	e2 e0       	ldi	r30, 0x02	; 2
    13ba:	fc e0       	ldi	r31, 0x0C	; 12
    13bc:	dc 01       	movw	r26, r24
    13be:	13 96       	adiw	r26, 0x03	; 3
    13c0:	fc 93       	st	X, r31
    13c2:	ee 93       	st	-X, r30
    13c4:	12 97       	sbiw	r26, 0x02	; 2
    13c6:	b1 cf       	rjmp	.-158    	; 0x132a <u8g2_draw_string>

000013c8 <u8g2_UpdateRefHeight>:
    13c8:	cf 93       	push	r28
    13ca:	df 93       	push	r29
    13cc:	fc 01       	movw	r30, r24
    13ce:	26 a9       	ldd	r18, Z+54	; 0x36
    13d0:	37 a9       	ldd	r19, Z+55	; 0x37
    13d2:	23 2b       	or	r18, r19
    13d4:	c9 f1       	breq	.+114    	; 0x1448 <u8g2_UpdateRefHeight+0x80>
    13d6:	ec 5a       	subi	r30, 0xAC	; 172
    13d8:	ff 4f       	sbci	r31, 0xFF	; 255
    13da:	20 81       	ld	r18, Z
    13dc:	dc 01       	movw	r26, r24
    13de:	a0 5a       	subi	r26, 0xA0	; 160
    13e0:	bf 4f       	sbci	r27, 0xFF	; 255
    13e2:	2c 93       	st	X, r18
    13e4:	31 96       	adiw	r30, 0x01	; 1
    13e6:	50 81       	ld	r21, Z
    13e8:	3c 96       	adiw	r30, 0x0c	; 12
    13ea:	50 83       	st	Z, r21
    13ec:	ec 01       	movw	r28, r24
    13ee:	c1 5a       	subi	r28, 0xA1	; 161
    13f0:	df 4f       	sbci	r29, 0xFF	; 255
    13f2:	38 81       	ld	r19, Y
    13f4:	33 23       	and	r19, r19
    13f6:	41 f1       	breq	.+80     	; 0x1448 <u8g2_UpdateRefHeight+0x80>
    13f8:	31 30       	cpi	r19, 0x01	; 1
    13fa:	69 f4       	brne	.+26     	; 0x1416 <u8g2_UpdateRefHeight+0x4e>
    13fc:	29 97       	sbiw	r28, 0x09	; 9
    13fe:	38 81       	ld	r19, Y
    1400:	23 17       	cp	r18, r19
    1402:	0c f4       	brge	.+2      	; 0x1406 <u8g2_UpdateRefHeight+0x3e>
    1404:	3c 93       	st	X, r19
    1406:	dc 01       	movw	r26, r24
    1408:	a9 5a       	subi	r26, 0xA9	; 169
    140a:	bf 4f       	sbci	r27, 0xFF	; 255
    140c:	8c 91       	ld	r24, X
    140e:	85 17       	cp	r24, r21
    1410:	dc f4       	brge	.+54     	; 0x1448 <u8g2_UpdateRefHeight+0x80>
    1412:	80 83       	st	Z, r24
    1414:	19 c0       	rjmp	.+50     	; 0x1448 <u8g2_UpdateRefHeight+0x80>
    1416:	ec 01       	movw	r28, r24
    1418:	cf 5a       	subi	r28, 0xAF	; 175
    141a:	df 4f       	sbci	r29, 0xFF	; 255
    141c:	48 81       	ld	r20, Y
    141e:	22 96       	adiw	r28, 0x02	; 2
    1420:	38 81       	ld	r19, Y
    1422:	82 2f       	mov	r24, r18
    1424:	22 0f       	add	r18, r18
    1426:	99 0b       	sbc	r25, r25
    1428:	63 2f       	mov	r22, r19
    142a:	03 2e       	mov	r0, r19
    142c:	00 0c       	add	r0, r0
    142e:	77 0b       	sbc	r23, r23
    1430:	64 0f       	add	r22, r20
    1432:	71 1d       	adc	r23, r1
    1434:	47 fd       	sbrc	r20, 7
    1436:	7a 95       	dec	r23
    1438:	86 17       	cp	r24, r22
    143a:	97 07       	cpc	r25, r23
    143c:	14 f4       	brge	.+4      	; 0x1442 <u8g2_UpdateRefHeight+0x7a>
    143e:	43 0f       	add	r20, r19
    1440:	4c 93       	st	X, r20
    1442:	35 17       	cp	r19, r21
    1444:	0c f4       	brge	.+2      	; 0x1448 <u8g2_UpdateRefHeight+0x80>
    1446:	30 83       	st	Z, r19
    1448:	df 91       	pop	r29
    144a:	cf 91       	pop	r28
    144c:	08 95       	ret

0000144e <u8g2_SetFontPosBaseline>:
    144e:	28 ee       	ldi	r18, 0xE8	; 232
    1450:	36 e0       	ldi	r19, 0x06	; 6
    1452:	fc 01       	movw	r30, r24
    1454:	31 af       	std	Z+57, r19	; 0x39
    1456:	20 af       	std	Z+56, r18	; 0x38
    1458:	08 95       	ret

0000145a <u8g2_SetFont>:
}

/*===============================================*/

void u8g2_SetFont(u8g2_t *u8g2, const uint8_t  *font)
{
    145a:	cf 93       	push	r28
    145c:	df 93       	push	r29
  if ( u8g2->font != font )
    145e:	fc 01       	movw	r30, r24
    1460:	26 a9       	ldd	r18, Z+54	; 0x36
    1462:	37 a9       	ldd	r19, Z+55	; 0x37
    1464:	26 17       	cp	r18, r22
    1466:	37 07       	cpc	r19, r23
    1468:	51 f0       	breq	.+20     	; 0x147e <u8g2_SetFont+0x24>
    146a:	ec 01       	movw	r28, r24
  {
//#ifdef  __unix__
//	u8g2->last_font_data = NULL;
//	u8g2->last_unicode = 0x0ffff;
//#endif 
    u8g2->font = font;
    146c:	77 ab       	std	Z+55, r23	; 0x37
    146e:	66 ab       	std	Z+54, r22	; 0x36
    u8g2_read_font_info(&(u8g2->font_info), font);
    1470:	89 5b       	subi	r24, 0xB9	; 185
    1472:	9f 4f       	sbci	r25, 0xFF	; 255
    1474:	af dc       	rcall	.-1698   	; 0xdd4 <u8g2_read_font_info>
    u8g2_UpdateRefHeight(u8g2);
    1476:	ce 01       	movw	r24, r28
    /* u8g2_SetFontPosBaseline(u8g2); */ /* removed with issue 195 */
  }
}
    1478:	df 91       	pop	r29
//	u8g2->last_font_data = NULL;
//	u8g2->last_unicode = 0x0ffff;
//#endif 
    u8g2->font = font;
    u8g2_read_font_info(&(u8g2->font_info), font);
    u8g2_UpdateRefHeight(u8g2);
    147a:	cf 91       	pop	r28
    147c:	a5 cf       	rjmp	.-182    	; 0x13c8 <u8g2_UpdateRefHeight>
    /* u8g2_SetFontPosBaseline(u8g2); */ /* removed with issue 195 */
  }
}
    147e:	df 91       	pop	r29
    1480:	cf 91       	pop	r28
    1482:	08 95       	ret

00001484 <u8g2_draw_hv_line_2dir>:
  This function first adjusts the y position to the local buffer. Then it
  will clip the line and call u8g2_draw_low_level_hv_line()

*/
void u8g2_draw_hv_line_2dir(u8g2_t *u8g2, u8g2_uint_t x, u8g2_uint_t y, u8g2_uint_t len, uint8_t dir)
{
    1484:	0f 93       	push	r16
  /* clipping happens before the display rotation */

  /* transform to pixel buffer coordinates */
  y -= u8g2->pixel_curr_row;
  
  u8g2->ll_hvline(u8g2, x, y, len, dir);
    1486:	dc 01       	movw	r26, r24
    1488:	99 96       	adiw	r26, 0x29	; 41
    148a:	3c 91       	ld	r19, X
    148c:	99 97       	sbiw	r26, 0x29	; 41
    148e:	43 1b       	sub	r20, r19
    1490:	5f 96       	adiw	r26, 0x1f	; 31
    1492:	ed 91       	ld	r30, X+
    1494:	fc 91       	ld	r31, X
    1496:	90 97       	sbiw	r26, 0x20	; 32
    1498:	09 95       	icall
}
    149a:	0f 91       	pop	r16
    149c:	08 95       	ret

0000149e <u8g2_DrawHVLine>:
  This function should be called by the user.
  
  "dir" may have 4 directions: 0 (left to right), 1, 2, 3 (down up)
*/
void u8g2_DrawHVLine(u8g2_t *u8g2, u8g2_uint_t x, u8g2_uint_t y, u8g2_uint_t len, uint8_t dir)
{
    149e:	0f 93       	push	r16
    14a0:	dc 01       	movw	r26, r24
    14a2:	80 2f       	mov	r24, r16
  /* Make a call to the callback function (e.g. u8g2_draw_l90_r0). */
  /* The callback may rotate the hv line */
  /* after rotation this will call u8g2_draw_hv_line_4dir() */
  
#ifdef U8G2_WITH_CLIP_WINDOW_SUPPORT
  if ( u8g2->is_page_clip_window_intersection != 0 )
    14a4:	fd 01       	movw	r30, r26
    14a6:	e2 5a       	subi	r30, 0xA2	; 162
    14a8:	ff 4f       	sbci	r31, 0xFF	; 255
    14aa:	90 81       	ld	r25, Z
    14ac:	99 23       	and	r25, r25
    14ae:	09 f4       	brne	.+2      	; 0x14b2 <u8g2_DrawHVLine+0x14>
    14b0:	68 c0       	rjmp	.+208    	; 0x1582 <u8g2_DrawHVLine+0xe4>
#endif /* U8G2_WITH_CLIP_WINDOW_SUPPORT */
    if ( len != 0 )
    14b2:	22 23       	and	r18, r18
    14b4:	09 f4       	brne	.+2      	; 0x14b8 <u8g2_DrawHVLine+0x1a>
    14b6:	65 c0       	rjmp	.+202    	; 0x1582 <u8g2_DrawHVLine+0xe4>
    {
    
      /* convert to two directions */    
      if ( len > 1 )
    14b8:	22 30       	cpi	r18, 0x02	; 2
    14ba:	48 f0       	brcs	.+18     	; 0x14ce <u8g2_DrawHVLine+0x30>
      {
	if ( dir == 2 )
    14bc:	02 30       	cpi	r16, 0x02	; 2
    14be:	19 f4       	brne	.+6      	; 0x14c6 <u8g2_DrawHVLine+0x28>
    14c0:	6f 5f       	subi	r22, 0xFF	; 255
	{
	  x -= len;
	  x++;
    14c2:	62 1b       	sub	r22, r18
    14c4:	04 c0       	rjmp	.+8      	; 0x14ce <u8g2_DrawHVLine+0x30>
	}
	else if ( dir == 3 )
    14c6:	03 30       	cpi	r16, 0x03	; 3
    14c8:	11 f4       	brne	.+4      	; 0x14ce <u8g2_DrawHVLine+0x30>
    14ca:	4f 5f       	subi	r20, 0xFF	; 255
	{
	  y -= len;
	  y++;
    14cc:	42 1b       	sub	r20, r18
	}
      }
      dir &= 1;  
      
      /* clip against the user window */
      if ( dir == 0 )
    14ce:	08 2f       	mov	r16, r24
    14d0:	01 70       	andi	r16, 0x01	; 1
    14d2:	80 fd       	sbrc	r24, 0
    14d4:	28 c0       	rjmp	.+80     	; 0x1526 <u8g2_DrawHVLine+0x88>
      {
	if ( y < u8g2->user_y0 )
    14d6:	d0 96       	adiw	r26, 0x30	; 48
    14d8:	8c 91       	ld	r24, X
    14da:	d0 97       	sbiw	r26, 0x30	; 48
    14dc:	48 17       	cp	r20, r24
    14de:	08 f4       	brcc	.+2      	; 0x14e2 <u8g2_DrawHVLine+0x44>
    14e0:	50 c0       	rjmp	.+160    	; 0x1582 <u8g2_DrawHVLine+0xe4>
	  return;
	if ( y >= u8g2->user_y1 )
    14e2:	d1 96       	adiw	r26, 0x31	; 49
    14e4:	8c 91       	ld	r24, X
    14e6:	d1 97       	sbiw	r26, 0x31	; 49
    14e8:	48 17       	cp	r20, r24
    14ea:	08 f0       	brcs	.+2      	; 0x14ee <u8g2_DrawHVLine+0x50>
    14ec:	4a c0       	rjmp	.+148    	; 0x1582 <u8g2_DrawHVLine+0xe4>
	  return;
	if ( u8g2_clip_intersection2(&x, &len, u8g2->user_x0, u8g2->user_x1) == 0 )
    14ee:	9f 96       	adiw	r26, 0x2f	; 47
    14f0:	9c 91       	ld	r25, X
    14f2:	9f 97       	sbiw	r26, 0x2f	; 47
    14f4:	9e 96       	adiw	r26, 0x2e	; 46
    14f6:	8c 91       	ld	r24, X
    14f8:	9e 97       	sbiw	r26, 0x2e	; 46
static uint8_t u8g2_clip_intersection2(u8g2_uint_t *ap, u8g2_uint_t *len, u8g2_uint_t c, u8g2_uint_t d)
{
  u8g2_uint_t a = *ap;
  u8g2_uint_t b;
  b  = a;
  b += *len;
    14fa:	26 0f       	add	r18, r22
  /* be removed completly (be aware about memory curruption for wrong */
  /* arguments) or return 0 for a>b (will lead to skipped lines for wrong */
  /* arguments) */  
  
  /* removing the following if clause completly may lead to memory corruption of a>b */
  if ( a > b )
    14fc:	26 17       	cp	r18, r22
    14fe:	30 f4       	brcc	.+12     	; 0x150c <u8g2_DrawHVLine+0x6e>
  {    
    /* replacing this if with a simple "return 0;" will not handle the case with negative a */    
    if ( a < d )
    1500:	69 17       	cp	r22, r25
    1502:	18 f4       	brcc	.+6      	; 0x150a <u8g2_DrawHVLine+0x6c>
    {
      b = d;
      b--;
    1504:	2f ef       	ldi	r18, 0xFF	; 255
    1506:	29 0f       	add	r18, r25
    1508:	03 c0       	rjmp	.+6      	; 0x1510 <u8g2_DrawHVLine+0x72>
      {
	if ( y < u8g2->user_y0 )
	  return;
	if ( y >= u8g2->user_y1 )
	  return;
	if ( u8g2_clip_intersection2(&x, &len, u8g2->user_x0, u8g2->user_x1) == 0 )
    150a:	68 2f       	mov	r22, r24
    }
  }
  
  /* from now on, the asumption a <= b is ok */
  
  if ( a >= d )
    150c:	69 17       	cp	r22, r25
    150e:	c8 f5       	brcc	.+114    	; 0x1582 <u8g2_DrawHVLine+0xe4>
    return 0;
  if ( b <= c )
    1510:	82 17       	cp	r24, r18
    1512:	b8 f5       	brcc	.+110    	; 0x1582 <u8g2_DrawHVLine+0xe4>
    1514:	68 17       	cp	r22, r24
    1516:	08 f4       	brcc	.+2      	; 0x151a <u8g2_DrawHVLine+0x7c>
    1518:	68 2f       	mov	r22, r24
    a = c;
  if ( b > d )
    b = d;
  
  *ap = a;
  b -= a;
    151a:	29 17       	cp	r18, r25
    151c:	08 f4       	brcc	.+2      	; 0x1520 <u8g2_DrawHVLine+0x82>
    151e:	92 2f       	mov	r25, r18
    1520:	29 2f       	mov	r18, r25
    1522:	26 1b       	sub	r18, r22
    1524:	25 c0       	rjmp	.+74     	; 0x1570 <u8g2_DrawHVLine+0xd2>
	if ( u8g2_clip_intersection2(&x, &len, u8g2->user_x0, u8g2->user_x1) == 0 )
	  return;
      }
      else
      {
	if ( x < u8g2->user_x0 )
    1526:	9e 96       	adiw	r26, 0x2e	; 46
    1528:	8c 91       	ld	r24, X
    152a:	9e 97       	sbiw	r26, 0x2e	; 46
    152c:	68 17       	cp	r22, r24
    152e:	48 f1       	brcs	.+82     	; 0x1582 <u8g2_DrawHVLine+0xe4>
	  return;
	if ( x >= u8g2->user_x1 )
    1530:	9f 96       	adiw	r26, 0x2f	; 47
    1532:	8c 91       	ld	r24, X
    1534:	9f 97       	sbiw	r26, 0x2f	; 47
    1536:	68 17       	cp	r22, r24
    1538:	20 f5       	brcc	.+72     	; 0x1582 <u8g2_DrawHVLine+0xe4>
	  return;
	if ( u8g2_clip_intersection2(&y, &len, u8g2->user_y0, u8g2->user_y1) == 0 )
    153a:	d1 96       	adiw	r26, 0x31	; 49
    153c:	9c 91       	ld	r25, X
    153e:	d1 97       	sbiw	r26, 0x31	; 49
    1540:	d0 96       	adiw	r26, 0x30	; 48
    1542:	8c 91       	ld	r24, X
    1544:	d0 97       	sbiw	r26, 0x30	; 48
static uint8_t u8g2_clip_intersection2(u8g2_uint_t *ap, u8g2_uint_t *len, u8g2_uint_t c, u8g2_uint_t d)
{
  u8g2_uint_t a = *ap;
  u8g2_uint_t b;
  b  = a;
  b += *len;
    1546:	24 0f       	add	r18, r20
  /* be removed completly (be aware about memory curruption for wrong */
  /* arguments) or return 0 for a>b (will lead to skipped lines for wrong */
  /* arguments) */  
  
  /* removing the following if clause completly may lead to memory corruption of a>b */
  if ( a > b )
    1548:	24 17       	cp	r18, r20
    154a:	30 f4       	brcc	.+12     	; 0x1558 <u8g2_DrawHVLine+0xba>
  {    
    /* replacing this if with a simple "return 0;" will not handle the case with negative a */    
    if ( a < d )
    154c:	49 17       	cp	r20, r25
    154e:	18 f4       	brcc	.+6      	; 0x1556 <u8g2_DrawHVLine+0xb8>
    {
      b = d;
      b--;
    1550:	2f ef       	ldi	r18, 0xFF	; 255
    1552:	29 0f       	add	r18, r25
    1554:	03 c0       	rjmp	.+6      	; 0x155c <u8g2_DrawHVLine+0xbe>
      {
	if ( x < u8g2->user_x0 )
	  return;
	if ( x >= u8g2->user_x1 )
	  return;
	if ( u8g2_clip_intersection2(&y, &len, u8g2->user_y0, u8g2->user_y1) == 0 )
    1556:	48 2f       	mov	r20, r24
    }
  }
  
  /* from now on, the asumption a <= b is ok */
  
  if ( a >= d )
    1558:	49 17       	cp	r20, r25
    155a:	98 f4       	brcc	.+38     	; 0x1582 <u8g2_DrawHVLine+0xe4>
    return 0;
  if ( b <= c )
    155c:	82 17       	cp	r24, r18
    155e:	88 f4       	brcc	.+34     	; 0x1582 <u8g2_DrawHVLine+0xe4>
    1560:	48 17       	cp	r20, r24
    1562:	08 f4       	brcc	.+2      	; 0x1566 <u8g2_DrawHVLine+0xc8>
    1564:	48 2f       	mov	r20, r24
    a = c;
  if ( b > d )
    b = d;
  
  *ap = a;
  b -= a;
    1566:	29 17       	cp	r18, r25
    1568:	08 f4       	brcc	.+2      	; 0x156c <u8g2_DrawHVLine+0xce>
    156a:	92 2f       	mov	r25, r18
    156c:	29 2f       	mov	r18, r25
    156e:	24 1b       	sub	r18, r20
	if ( u8g2_clip_intersection2(&y, &len, u8g2->user_y0, u8g2->user_y1) == 0 )
	  return;
      }
      
      
      u8g2->cb->draw_l90(u8g2, x, y, len, dir);
    1570:	91 96       	adiw	r26, 0x21	; 33
    1572:	ed 91       	ld	r30, X+
    1574:	fc 91       	ld	r31, X
    1576:	92 97       	sbiw	r26, 0x22	; 34
    1578:	04 80       	ldd	r0, Z+4	; 0x04
    157a:	f5 81       	ldd	r31, Z+5	; 0x05
    157c:	e0 2d       	mov	r30, r0
    157e:	cd 01       	movw	r24, r26
    1580:	09 95       	icall
    }
}
    1582:	0f 91       	pop	r16
    1584:	08 95       	ret

00001586 <u8g2_is_intersection_decision_tree>:
  a1 and v1 are excluded
  v0 == v1 is not support end return 1
*/
uint8_t u8g2_is_intersection_decision_tree(u8g2_uint_t a0, u8g2_uint_t a1, u8g2_uint_t v0, u8g2_uint_t v1)
{
  if ( v0 < a1 )		// v0 <= a1
    1586:	46 17       	cp	r20, r22
    1588:	30 f4       	brcc	.+12     	; 0x1596 <u8g2_is_intersection_decision_tree+0x10>
  {
    if ( v1 > a0 )	// v1 >= a0
    158a:	82 17       	cp	r24, r18
    158c:	40 f0       	brcs	.+16     	; 0x159e <u8g2_is_intersection_decision_tree+0x18>
    {
      return 1;
    158e:	81 e0       	ldi	r24, 0x01	; 1
    1590:	24 17       	cp	r18, r20
    1592:	30 f0       	brcs	.+12     	; 0x15a0 <u8g2_is_intersection_decision_tree+0x1a>
    1594:	02 c0       	rjmp	.+4      	; 0x159a <u8g2_is_intersection_decision_tree+0x14>
      }
    }
  }
  else
  {
    if ( v1 > a0 )	// v1 >= a0
    1596:	82 17       	cp	r24, r18
    1598:	d0 f3       	brcs	.-12     	; 0x158e <u8g2_is_intersection_decision_tree+0x8>
	return 0;
      }
    }
    else
    {
      return 0;
    159a:	80 e0       	ldi	r24, 0x00	; 0
    159c:	08 95       	ret
{
  if ( v0 < a1 )		// v0 <= a1
  {
    if ( v1 > a0 )	// v1 >= a0
    {
      return 1;
    159e:	81 e0       	ldi	r24, 0x01	; 1
    else
    {
      return 0;
    }
  }
}
    15a0:	08 95       	ret

000015a2 <u8g2_IsIntersection>:



/* upper limits are not included (asymetric boundaries) */
uint8_t u8g2_IsIntersection(u8g2_t *u8g2, u8g2_uint_t x0, u8g2_uint_t y0, u8g2_uint_t x1, u8g2_uint_t y1)
{
    15a2:	ff 92       	push	r15
    15a4:	0f 93       	push	r16
    15a6:	1f 93       	push	r17
    15a8:	cf 93       	push	r28
    15aa:	df 93       	push	r29
    15ac:	ec 01       	movw	r28, r24
    15ae:	16 2f       	mov	r17, r22
    15b0:	f2 2e       	mov	r15, r18
    15b2:	20 2f       	mov	r18, r16
  if ( u8g2_is_intersection_decision_tree(u8g2->user_y0, u8g2->user_y1, y0, y1) == 0 )
    15b4:	69 a9       	ldd	r22, Y+49	; 0x31
    15b6:	88 a9       	ldd	r24, Y+48	; 0x30
    15b8:	e6 df       	rcall	.-52     	; 0x1586 <u8g2_is_intersection_decision_tree>
    15ba:	88 23       	and	r24, r24
    15bc:	51 f0       	breq	.+20     	; 0x15d2 <u8g2_IsIntersection+0x30>
    return 0; 
  
  return u8g2_is_intersection_decision_tree(u8g2->user_x0, u8g2->user_x1, x0, x1);
    15be:	2f 2d       	mov	r18, r15
    15c0:	41 2f       	mov	r20, r17
    15c2:	6f a5       	ldd	r22, Y+47	; 0x2f
    15c4:	8e a5       	ldd	r24, Y+46	; 0x2e
}
    15c6:	df 91       	pop	r29
    15c8:	cf 91       	pop	r28
    15ca:	1f 91       	pop	r17
    15cc:	0f 91       	pop	r16
uint8_t u8g2_IsIntersection(u8g2_t *u8g2, u8g2_uint_t x0, u8g2_uint_t y0, u8g2_uint_t x1, u8g2_uint_t y1)
{
  if ( u8g2_is_intersection_decision_tree(u8g2->user_y0, u8g2->user_y1, y0, y1) == 0 )
    return 0; 
  
  return u8g2_is_intersection_decision_tree(u8g2->user_x0, u8g2->user_x1, x0, x1);
    15ce:	ff 90       	pop	r15
    15d0:	da cf       	rjmp	.-76     	; 0x1586 <u8g2_is_intersection_decision_tree>
}
    15d2:	80 e0       	ldi	r24, 0x00	; 0
    15d4:	df 91       	pop	r29
    15d6:	cf 91       	pop	r28
    15d8:	1f 91       	pop	r17
    15da:	0f 91       	pop	r16
    15dc:	ff 90       	pop	r15
    15de:	08 95       	ret

000015e0 <u8g2_ll_hvline_vertical_top_lsb>:
		1: vertical line (top to bottom)
  asumption: 
    all clipping done
*/
void u8g2_ll_hvline_vertical_top_lsb(u8g2_t *u8g2, u8g2_uint_t x, u8g2_uint_t y, u8g2_uint_t len, uint8_t dir)
{
    15e0:	ef 92       	push	r14
    15e2:	ff 92       	push	r15
    15e4:	0f 93       	push	r16
    15e6:	1f 93       	push	r17
    15e8:	cf 93       	push	r28
    15ea:	df 93       	push	r29
    15ec:	ec 01       	movw	r28, r24
  //assert(y >= u8g2->buf_y0);
  //assert(y < u8g2_GetU8x8(u8g2)->display_info->tile_height*8);
  
  /* bytes are vertical, lsb on top (y=0), msb at bottom (y=7) */
  bit_pos = y;		/* overflow truncate is ok here... */
  bit_pos &= 7; 	/* ... because only the lowest 3 bits are needed */
    15ee:	74 2f       	mov	r23, r20
    15f0:	77 70       	andi	r23, 0x07	; 7
  mask = 1;
  mask <<= bit_pos;
    15f2:	e1 e0       	ldi	r30, 0x01	; 1
    15f4:	f0 e0       	ldi	r31, 0x00	; 0
    15f6:	07 2e       	mov	r0, r23
    15f8:	01 c0       	rjmp	.+2      	; 0x15fc <u8g2_ll_hvline_vertical_top_lsb+0x1c>
    15fa:	ee 0f       	add	r30, r30
    15fc:	0a 94       	dec	r0
    15fe:	ea f7       	brpl	.-6      	; 0x15fa <u8g2_ll_hvline_vertical_top_lsb+0x1a>
    1600:	3e 2f       	mov	r19, r30

  or_mask = 0;
  xor_mask = 0;
  if ( u8g2->draw_color <= 1 )
    1602:	7c 01       	movw	r14, r24
    1604:	84 e6       	ldi	r24, 0x64	; 100
    1606:	e8 0e       	add	r14, r24
    1608:	f1 1c       	adc	r15, r1
    160a:	d7 01       	movw	r26, r14
    160c:	8c 91       	ld	r24, X
    160e:	82 30       	cpi	r24, 0x02	; 2
    1610:	28 f4       	brcc	.+10     	; 0x161c <u8g2_ll_hvline_vertical_top_lsb+0x3c>
    or_mask  = mask;
    1612:	1e 2f       	mov	r17, r30
  if ( u8g2->draw_color != 1 )
    1614:	81 30       	cpi	r24, 0x01	; 1
    1616:	19 f4       	brne	.+6      	; 0x161e <u8g2_ll_hvline_vertical_top_lsb+0x3e>
  bit_pos &= 7; 	/* ... because only the lowest 3 bits are needed */
  mask = 1;
  mask <<= bit_pos;

  or_mask = 0;
  xor_mask = 0;
    1618:	30 e0       	ldi	r19, 0x00	; 0
    161a:	01 c0       	rjmp	.+2      	; 0x161e <u8g2_ll_hvline_vertical_top_lsb+0x3e>
  bit_pos = y;		/* overflow truncate is ok here... */
  bit_pos &= 7; 	/* ... because only the lowest 3 bits are needed */
  mask = 1;
  mask <<= bit_pos;

  or_mask = 0;
    161c:	10 e0       	ldi	r17, 0x00	; 0
    or_mask  = mask;
  if ( u8g2->draw_color != 1 )
    xor_mask = mask;


  offset = y;		/* y might be 8 or 16 bit, but we need 16 bit, so use a 16 bit variable */
    161e:	50 e0       	ldi	r21, 0x00	; 0
  offset &= ~7;
    1620:	48 7f       	andi	r20, 0xF8	; 248
  offset *= u8g2_GetU8x8(u8g2)->display_info->tile_width;
  ptr = u8g2->tile_buf_ptr;
    1622:	8b a1       	ldd	r24, Y+35	; 0x23
    1624:	9c a1       	ldd	r25, Y+36	; 0x24
    xor_mask = mask;


  offset = y;		/* y might be 8 or 16 bit, but we need 16 bit, so use a 16 bit variable */
  offset &= ~7;
  offset *= u8g2_GetU8x8(u8g2)->display_info->tile_width;
    1626:	a8 81       	ld	r26, Y
    1628:	b9 81       	ldd	r27, Y+1	; 0x01
  ptr = u8g2->tile_buf_ptr;
  ptr += offset;
  ptr += x;
    162a:	50 96       	adiw	r26, 0x10	; 16
    162c:	fc 91       	ld	r31, X
    162e:	f4 9f       	mul	r31, r20
    1630:	d0 01       	movw	r26, r0
    1632:	f5 9f       	mul	r31, r21
    1634:	b0 0d       	add	r27, r0
    1636:	11 24       	eor	r1, r1
    1638:	a6 0f       	add	r26, r22
    163a:	b1 1d       	adc	r27, r1
    163c:	a8 0f       	add	r26, r24
    163e:	b9 1f       	adc	r27, r25
  
  if ( dir == 0 )
    1640:	01 11       	cpse	r16, r1
    1642:	0b c0       	rjmp	.+22     	; 0x165a <u8g2_ll_hvline_vertical_top_lsb+0x7a>
      {
#ifdef __unix
	assert(ptr < max_ptr);
#endif
	*ptr |= or_mask;
	*ptr ^= xor_mask;
    1644:	8c 91       	ld	r24, X
    1646:	81 2b       	or	r24, r17
    1648:	83 27       	eor	r24, r19
    164a:	8d 93       	st	X+, r24
	ptr++;
	len--;
    164c:	21 50       	subi	r18, 0x01	; 1
      } while( len != 0 );
    164e:	d1 f7       	brne	.-12     	; 0x1644 <u8g2_ll_hvline_vertical_top_lsb+0x64>
    1650:	1c c0       	rjmp	.+56     	; 0x168a <u8g2_ll_hvline_vertical_top_lsb+0xaa>
	if ( u8g2->draw_color != 1 )
	  xor_mask = 1;
      }
      else
      {
	or_mask <<= 1;
    1652:	11 0f       	add	r17, r17
	xor_mask <<= 1;
    1654:	33 0f       	add	r19, r19
      }
    } while( len != 0 );
    1656:	22 23       	and	r18, r18
    1658:	c1 f0       	breq	.+48     	; 0x168a <u8g2_ll_hvline_vertical_top_lsb+0xaa>
    {
#ifdef __unix
      assert(ptr < max_ptr);
#endif
      *ptr |= or_mask;
      *ptr ^= xor_mask;
    165a:	9c 91       	ld	r25, X
    165c:	91 2b       	or	r25, r17
    165e:	93 27       	eor	r25, r19
    1660:	9c 93       	st	X, r25
      
      bit_pos++;
    1662:	7f 5f       	subi	r23, 0xFF	; 255
      bit_pos &= 7;
    1664:	77 70       	andi	r23, 0x07	; 7

      len--;
    1666:	21 50       	subi	r18, 0x01	; 1

      if ( bit_pos == 0 )
    1668:	71 11       	cpse	r23, r1
    166a:	f3 cf       	rjmp	.-26     	; 0x1652 <u8g2_ll_hvline_vertical_top_lsb+0x72>
      {
	ptr+=u8g2->pixel_buf_width;	/* 6 Jan 17: Changed u8g2->width to u8g2->pixel_buf_width, issue #148 */
    166c:	8f a1       	ldd	r24, Y+39	; 0x27
    166e:	a8 0f       	add	r26, r24
    1670:	b1 1d       	adc	r27, r1
		
	if ( u8g2->draw_color <= 1 )
    1672:	f7 01       	movw	r30, r14
    1674:	80 81       	ld	r24, Z
    1676:	82 30       	cpi	r24, 0x02	; 2
    1678:	20 f4       	brcc	.+8      	; 0x1682 <u8g2_ll_hvline_vertical_top_lsb+0xa2>
	  or_mask  = 1;
	if ( u8g2->draw_color != 1 )
    167a:	81 30       	cpi	r24, 0x01	; 1
    167c:	21 f0       	breq	.+8      	; 0x1686 <u8g2_ll_hvline_vertical_top_lsb+0xa6>
	  xor_mask = 1;
    167e:	31 e0       	ldi	r19, 0x01	; 1
    1680:	02 c0       	rjmp	.+4      	; 0x1686 <u8g2_ll_hvline_vertical_top_lsb+0xa6>
    1682:	31 e0       	ldi	r19, 0x01	; 1
    1684:	e8 cf       	rjmp	.-48     	; 0x1656 <u8g2_ll_hvline_vertical_top_lsb+0x76>
      if ( bit_pos == 0 )
      {
	ptr+=u8g2->pixel_buf_width;	/* 6 Jan 17: Changed u8g2->width to u8g2->pixel_buf_width, issue #148 */
		
	if ( u8g2->draw_color <= 1 )
	  or_mask  = 1;
    1686:	11 e0       	ldi	r17, 0x01	; 1
    1688:	e6 cf       	rjmp	.-52     	; 0x1656 <u8g2_ll_hvline_vertical_top_lsb+0x76>
	or_mask <<= 1;
	xor_mask <<= 1;
      }
    } while( len != 0 );
  }
}
    168a:	df 91       	pop	r29
    168c:	cf 91       	pop	r28
    168e:	1f 91       	pop	r17
    1690:	0f 91       	pop	r16
    1692:	ff 90       	pop	r15
    1694:	ef 90       	pop	r14
    1696:	08 95       	ret

00001698 <u8g2_update_dimension_common>:
{
  u8g2->clip_x0 = clip_x0;
  u8g2->clip_y0 = clip_y0;
  u8g2->clip_x1 = clip_x1;
  u8g2->clip_y1 = clip_y1;
  u8g2->cb->update_page_win(u8g2);
    1698:	fc 01       	movw	r30, r24
    169a:	a0 81       	ld	r26, Z
    169c:	b1 81       	ldd	r27, Z+1	; 0x01
    169e:	95 a1       	ldd	r25, Z+37	; 0x25
    16a0:	89 2f       	mov	r24, r25
    16a2:	88 0f       	add	r24, r24
    16a4:	88 0f       	add	r24, r24
    16a6:	88 0f       	add	r24, r24
    16a8:	80 a7       	std	Z+40, r24	; 0x28
    16aa:	50 96       	adiw	r26, 0x10	; 16
    16ac:	8c 91       	ld	r24, X
    16ae:	50 97       	sbiw	r26, 0x10	; 16
    16b0:	80 32       	cpi	r24, 0x20	; 32
    16b2:	08 f0       	brcs	.+2      	; 0x16b6 <u8g2_update_dimension_common+0x1e>
    16b4:	8f e1       	ldi	r24, 0x1F	; 31
    16b6:	88 0f       	add	r24, r24
    16b8:	88 0f       	add	r24, r24
    16ba:	88 0f       	add	r24, r24
    16bc:	87 a3       	std	Z+39, r24	; 0x27
    16be:	26 a1       	ldd	r18, Z+38	; 0x26
    16c0:	82 2f       	mov	r24, r18
    16c2:	88 0f       	add	r24, r24
    16c4:	88 0f       	add	r24, r24
    16c6:	88 0f       	add	r24, r24
    16c8:	81 a7       	std	Z+41, r24	; 0x29
    16ca:	51 96       	adiw	r26, 0x11	; 17
    16cc:	3c 91       	ld	r19, X
    16ce:	51 97       	sbiw	r26, 0x11	; 17
    16d0:	42 2f       	mov	r20, r18
    16d2:	50 e0       	ldi	r21, 0x00	; 0
    16d4:	49 0f       	add	r20, r25
    16d6:	51 1d       	adc	r21, r1
    16d8:	63 2f       	mov	r22, r19
    16da:	70 e0       	ldi	r23, 0x00	; 0
    16dc:	64 17       	cp	r22, r20
    16de:	75 07       	cpc	r23, r21
    16e0:	14 f4       	brge	.+4      	; 0x16e6 <u8g2_update_dimension_common+0x4e>
    16e2:	93 2f       	mov	r25, r19
    16e4:	92 1b       	sub	r25, r18
    16e6:	82 a7       	std	Z+42, r24	; 0x2a
    16e8:	28 e0       	ldi	r18, 0x08	; 8
    16ea:	92 9f       	mul	r25, r18
    16ec:	80 0d       	add	r24, r0
    16ee:	11 24       	eor	r1, r1
    16f0:	83 a7       	std	Z+43, r24	; 0x2b
    16f2:	80 ef       	ldi	r24, 0xF0	; 240
    16f4:	84 a7       	std	Z+44, r24	; 0x2c
    16f6:	54 96       	adiw	r26, 0x14	; 20
    16f8:	8d 91       	ld	r24, X+
    16fa:	9c 91       	ld	r25, X
    16fc:	55 97       	sbiw	r26, 0x15	; 21
    16fe:	81 3f       	cpi	r24, 0xF1	; 241
    1700:	91 05       	cpc	r25, r1
    1702:	08 f4       	brcc	.+2      	; 0x1706 <u8g2_update_dimension_common+0x6e>
    1704:	84 a7       	std	Z+44, r24	; 0x2c
    1706:	56 96       	adiw	r26, 0x16	; 22
    1708:	8c 91       	ld	r24, X
    170a:	85 a7       	std	Z+45, r24	; 0x2d
    170c:	08 95       	ret

0000170e <u8g2_draw_l90_r0>:
    170e:	0f 93       	push	r16
    1710:	b9 de       	rcall	.-654    	; 0x1484 <u8g2_draw_hv_line_2dir>
    1712:	0f 91       	pop	r16
    1714:	08 95       	ret

00001716 <u8g2_apply_clip_window>:
    1716:	0f 93       	push	r16
    1718:	cf 93       	push	r28
    171a:	df 93       	push	r29
    171c:	ec 01       	movw	r28, r24
    171e:	0d a9       	ldd	r16, Y+53	; 0x35
    1720:	2b a9       	ldd	r18, Y+51	; 0x33
    1722:	4c a9       	ldd	r20, Y+52	; 0x34
    1724:	6a a9       	ldd	r22, Y+50	; 0x32
    1726:	3d df       	rcall	.-390    	; 0x15a2 <u8g2_IsIntersection>
    1728:	fe 01       	movw	r30, r28
    172a:	e2 5a       	subi	r30, 0xA2	; 162
    172c:	ff 4f       	sbci	r31, 0xFF	; 255
    172e:	81 11       	cpse	r24, r1
    1730:	02 c0       	rjmp	.+4      	; 0x1736 <u8g2_apply_clip_window+0x20>
    1732:	10 82       	st	Z, r1
    1734:	16 c0       	rjmp	.+44     	; 0x1762 <u8g2_apply_clip_window+0x4c>
    1736:	81 e0       	ldi	r24, 0x01	; 1
    1738:	80 83       	st	Z, r24
    173a:	8a a9       	ldd	r24, Y+50	; 0x32
    173c:	9e a5       	ldd	r25, Y+46	; 0x2e
    173e:	98 17       	cp	r25, r24
    1740:	08 f4       	brcc	.+2      	; 0x1744 <u8g2_apply_clip_window+0x2e>
    1742:	8e a7       	std	Y+46, r24	; 0x2e
    1744:	8b a9       	ldd	r24, Y+51	; 0x33
    1746:	9f a5       	ldd	r25, Y+47	; 0x2f
    1748:	89 17       	cp	r24, r25
    174a:	08 f4       	brcc	.+2      	; 0x174e <u8g2_apply_clip_window+0x38>
    174c:	8f a7       	std	Y+47, r24	; 0x2f
    174e:	8c a9       	ldd	r24, Y+52	; 0x34
    1750:	98 a9       	ldd	r25, Y+48	; 0x30
    1752:	98 17       	cp	r25, r24
    1754:	08 f4       	brcc	.+2      	; 0x1758 <u8g2_apply_clip_window+0x42>
    1756:	88 ab       	std	Y+48, r24	; 0x30
    1758:	8d a9       	ldd	r24, Y+53	; 0x35
    175a:	99 a9       	ldd	r25, Y+49	; 0x31
    175c:	89 17       	cp	r24, r25
    175e:	08 f4       	brcc	.+2      	; 0x1762 <u8g2_apply_clip_window+0x4c>
    1760:	89 ab       	std	Y+49, r24	; 0x31
    1762:	df 91       	pop	r29
    1764:	cf 91       	pop	r28
    1766:	0f 91       	pop	r16
    1768:	08 95       	ret

0000176a <u8g2_update_page_win_r0>:
    176a:	fc 01       	movw	r30, r24
    176c:	16 a6       	std	Z+46, r1	; 0x2e
    176e:	84 a5       	ldd	r24, Z+44	; 0x2c
    1770:	87 a7       	std	Z+47, r24	; 0x2f
    1772:	82 a5       	ldd	r24, Z+42	; 0x2a
    1774:	80 ab       	std	Z+48, r24	; 0x30
    1776:	83 a5       	ldd	r24, Z+43	; 0x2b
    1778:	81 ab       	std	Z+49, r24	; 0x31
    177a:	cf 01       	movw	r24, r30
    177c:	cc cf       	rjmp	.-104    	; 0x1716 <u8g2_apply_clip_window>

0000177e <u8g2_update_dimension_r0>:
    177e:	8c cf       	rjmp	.-232    	; 0x1698 <u8g2_update_dimension_common>

00001780 <u8g2_SetMaxClipWindow>:
    1780:	dc 01       	movw	r26, r24
    1782:	d2 96       	adiw	r26, 0x32	; 50
    1784:	1c 92       	st	X, r1
    1786:	d2 97       	sbiw	r26, 0x32	; 50
    1788:	d4 96       	adiw	r26, 0x34	; 52
    178a:	1c 92       	st	X, r1
    178c:	d4 97       	sbiw	r26, 0x34	; 52
    178e:	8f ef       	ldi	r24, 0xFF	; 255
    1790:	d3 96       	adiw	r26, 0x33	; 51
    1792:	8c 93       	st	X, r24
    1794:	d3 97       	sbiw	r26, 0x33	; 51
    1796:	d5 96       	adiw	r26, 0x35	; 53
    1798:	8c 93       	st	X, r24
    179a:	d5 97       	sbiw	r26, 0x35	; 53
    179c:	91 96       	adiw	r26, 0x21	; 33
    179e:	ed 91       	ld	r30, X+
    17a0:	fc 91       	ld	r31, X
    17a2:	92 97       	sbiw	r26, 0x22	; 34
    17a4:	02 80       	ldd	r0, Z+2	; 0x02
    17a6:	f3 81       	ldd	r31, Z+3	; 0x03
    17a8:	e0 2d       	mov	r30, r0
    17aa:	cd 01       	movw	r24, r26
    17ac:	09 94       	ijmp

000017ae <u8g2_SetupBuffer>:
/*
  This procedure is called after setting up the display (u8x8 structure).
  --> This is the central init procedure for u8g2 object
*/
void u8g2_SetupBuffer(u8g2_t *u8g2, uint8_t *buf, uint8_t tile_buf_height, u8g2_draw_ll_hvline_cb ll_hvline_cb, const u8g2_cb_t *u8g2_cb)
{
    17ae:	0f 93       	push	r16
    17b0:	1f 93       	push	r17
    17b2:	cf 93       	push	r28
    17b4:	df 93       	push	r29
    17b6:	ec 01       	movw	r28, r24
  u8g2->font = NULL;
    17b8:	1f aa       	std	Y+55, r1	; 0x37
    17ba:	1e aa       	std	Y+54, r1	; 0x36
  //u8g2->kerning = NULL;
  //u8g2->get_kerning_cb = u8g2_GetNullKerning;
  
  //u8g2->ll_hvline = u8g2_ll_hvline_vertical_top_lsb;
  u8g2->ll_hvline = ll_hvline_cb;
    17bc:	38 a3       	std	Y+32, r19	; 0x20
    17be:	2f 8f       	std	Y+31, r18	; 0x1f
  
  u8g2->tile_buf_ptr = buf;
    17c0:	7c a3       	std	Y+36, r23	; 0x24
    17c2:	6b a3       	std	Y+35, r22	; 0x23
  u8g2->tile_buf_height = tile_buf_height;
    17c4:	4d a3       	std	Y+37, r20	; 0x25
  
  u8g2->tile_curr_row = 0;
    17c6:	1e a2       	std	Y+38, r1	; 0x26
  
  u8g2->font_decode.is_transparent = 0; /* issue 443 */
    17c8:	fc 01       	movw	r30, r24
    17ca:	ed 5b       	subi	r30, 0xBD	; 189
    17cc:	ff 4f       	sbci	r31, 0xFF	; 255
    17ce:	10 82       	st	Z, r1
  u8g2->bitmap_transparency = 0;
    17d0:	b0 96       	adiw	r30, 0x20	; 32
    17d2:	10 82       	st	Z, r1
  
  u8g2->draw_color = 1;
    17d4:	31 96       	adiw	r30, 0x01	; 1
    17d6:	81 e0       	ldi	r24, 0x01	; 1
    17d8:	80 83       	st	Z, r24
  u8g2->is_auto_page_clear = 1;
    17da:	31 96       	adiw	r30, 0x01	; 1
    17dc:	80 83       	st	Z, r24
  
  u8g2->cb = u8g2_cb;
    17de:	1a a3       	std	Y+34, r17	; 0x22
    17e0:	09 a3       	std	Y+33, r16	; 0x21
  u8g2->cb->update_dimension(u8g2);
    17e2:	d8 01       	movw	r26, r16
    17e4:	ed 91       	ld	r30, X+
    17e6:	fc 91       	ld	r31, X
    17e8:	ce 01       	movw	r24, r28
    17ea:	09 95       	icall
#ifdef U8G2_WITH_CLIP_WINDOW_SUPPORT
  u8g2_SetMaxClipWindow(u8g2);		/* assign a clip window and call the update() procedure */
    17ec:	ce 01       	movw	r24, r28
    17ee:	c8 df       	rcall	.-112    	; 0x1780 <u8g2_SetMaxClipWindow>
#else
  u8g2->cb->update_page_win(u8g2);
#endif

  u8g2_SetFontPosBaseline(u8g2);  /* issue 195 */
    17f0:	ce 01       	movw	r24, r28
    17f2:	2d de       	rcall	.-934    	; 0x144e <u8g2_SetFontPosBaseline>
  
#ifdef U8G2_WITH_FONT_ROTATION  
  u8g2->font_decode.dir = 0;
    17f4:	ca 5b       	subi	r28, 0xBA	; 186
    17f6:	df 4f       	sbci	r29, 0xFF	; 255
    17f8:	18 82       	st	Y, r1
#endif
}
    17fa:	df 91       	pop	r29
    17fc:	cf 91       	pop	r28
    17fe:	1f 91       	pop	r17
    1800:	0f 91       	pop	r16
    1802:	08 95       	ret

00001804 <u8x8_ascii_next>:
      x++;
      cnt++;
    }
  }
  return cnt;
}
    1804:	66 23       	and	r22, r22
    1806:	29 f0       	breq	.+10     	; 0x1812 <u8x8_ascii_next+0xe>
    1808:	6a 30       	cpi	r22, 0x0A	; 10
    180a:	19 f0       	breq	.+6      	; 0x1812 <u8x8_ascii_next+0xe>
    180c:	86 2f       	mov	r24, r22
    180e:	90 e0       	ldi	r25, 0x00	; 0
    1810:	08 95       	ret
    1812:	8f ef       	ldi	r24, 0xFF	; 255
    1814:	9f ef       	ldi	r25, 0xFF	; 255
    1816:	08 95       	ret

00001818 <u8x8_utf8_init>:
*/

/* reset the internal state machine */
void u8x8_utf8_init(u8x8_t *u8x8)
{
  u8x8->utf8_state = 0;	/* also reset during u8x8_SetupDefaults() */
    1818:	fc 01       	movw	r30, r24
    181a:	11 8e       	std	Z+25, r1	; 0x19
    181c:	08 95       	ret

0000181e <u8x8_byte_SetDC>:
      break;
    default:
      return 0;
  }
  return 1;
}
    181e:	46 2f       	mov	r20, r22
    1820:	dc 01       	movw	r26, r24
    1822:	18 96       	adiw	r26, 0x08	; 8
    1824:	ed 91       	ld	r30, X+
    1826:	fc 91       	ld	r31, X
    1828:	19 97       	sbiw	r26, 0x09	; 9
    182a:	20 e0       	ldi	r18, 0x00	; 0
    182c:	30 e0       	ldi	r19, 0x00	; 0
    182e:	60 e2       	ldi	r22, 0x20	; 32
    1830:	09 94       	ijmp

00001832 <u8x8_byte_SendBytes>:
    1832:	9a 01       	movw	r18, r20
    1834:	dc 01       	movw	r26, r24
    1836:	18 96       	adiw	r26, 0x08	; 8
    1838:	ed 91       	ld	r30, X+
    183a:	fc 91       	ld	r31, X
    183c:	19 97       	sbiw	r26, 0x09	; 9
    183e:	46 2f       	mov	r20, r22
    1840:	67 e1       	ldi	r22, 0x17	; 23
    1842:	09 94       	ijmp

00001844 <u8x8_byte_SendByte>:
    1844:	cf 93       	push	r28
    1846:	df 93       	push	r29
    1848:	1f 92       	push	r1
    184a:	cd b7       	in	r28, 0x3d	; 61
    184c:	de b7       	in	r29, 0x3e	; 62
    184e:	69 83       	std	Y+1, r22	; 0x01
    1850:	ae 01       	movw	r20, r28
    1852:	4f 5f       	subi	r20, 0xFF	; 255
    1854:	5f 4f       	sbci	r21, 0xFF	; 255
    1856:	61 e0       	ldi	r22, 0x01	; 1
    1858:	ec df       	rcall	.-40     	; 0x1832 <u8x8_byte_SendBytes>
    185a:	0f 90       	pop	r0
    185c:	df 91       	pop	r29
    185e:	cf 91       	pop	r28
    1860:	08 95       	ret

00001862 <u8x8_byte_sed1520>:
/* sed1520 or sbn1661 
  U8X8_MSG_GPIO_E --> E1
  U8X8_MSG_GPIO_CS --> E2
*/
uint8_t u8x8_byte_sed1520(u8x8_t *u8x8, uint8_t msg, uint8_t arg_int, void *arg_ptr)
{
    1862:	cf 92       	push	r12
    1864:	df 92       	push	r13
    1866:	ff 92       	push	r15
    1868:	0f 93       	push	r16
    186a:	1f 93       	push	r17
    186c:	cf 93       	push	r28
    186e:	df 93       	push	r29
    1870:	ec 01       	movw	r28, r24
    1872:	14 2f       	mov	r17, r20
    1874:	69 01       	movw	r12, r18
  uint8_t i, b;
  uint8_t *data;
  static uint8_t enable_pin;
 
  switch(msg)
    1876:	68 31       	cpi	r22, 0x18	; 24
    1878:	09 f4       	brne	.+2      	; 0x187c <u8x8_byte_sed1520+0x1a>
    187a:	4c c0       	rjmp	.+152    	; 0x1914 <u8x8_byte_sed1520+0xb2>
    187c:	28 f4       	brcc	.+10     	; 0x1888 <u8x8_byte_sed1520+0x26>
    187e:	64 31       	cpi	r22, 0x14	; 20
    1880:	b9 f1       	breq	.+110    	; 0x18f0 <u8x8_byte_sed1520+0x8e>
    1882:	67 31       	cpi	r22, 0x17	; 23
    1884:	69 f1       	breq	.+90     	; 0x18e0 <u8x8_byte_sed1520+0x7e>
    1886:	4a c0       	rjmp	.+148    	; 0x191c <u8x8_byte_sed1520+0xba>
    1888:	69 31       	cpi	r22, 0x19	; 25
    188a:	09 f4       	brne	.+2      	; 0x188e <u8x8_byte_sed1520+0x2c>
    188c:	41 c0       	rjmp	.+130    	; 0x1910 <u8x8_byte_sed1520+0xae>
    188e:	60 32       	cpi	r22, 0x20	; 32
    1890:	09 f0       	breq	.+2      	; 0x1894 <u8x8_byte_sed1520+0x32>
    1892:	44 c0       	rjmp	.+136    	; 0x191c <u8x8_byte_sed1520+0xba>
      u8x8_gpio_call(u8x8, U8X8_MSG_GPIO_E, 0);
      u8x8_gpio_call(u8x8, U8X8_MSG_GPIO_CS, 0);
      enable_pin = U8X8_MSG_GPIO_E;
      break;
    case U8X8_MSG_BYTE_SET_DC:
      u8x8_gpio_SetDC(u8x8, arg_int);
    1894:	6a e4       	ldi	r22, 0x4A	; 74
    1896:	1f d2       	rcall	.+1086   	; 0x1cd6 <u8x8_gpio_call>
    1898:	3b c0       	rjmp	.+118    	; 0x1910 <u8x8_byte_sed1520+0xae>
	b = *data;
	data++;
	arg_int--;
	for( i = U8X8_MSG_GPIO_D0; i <= U8X8_MSG_GPIO_D7; i++ )
	{
	  u8x8_gpio_call(u8x8, i, b&1);
    189a:	4f 2d       	mov	r20, r15
    189c:	41 70       	andi	r20, 0x01	; 1
    189e:	60 2f       	mov	r22, r16
    18a0:	ce 01       	movw	r24, r28
    18a2:	19 d2       	rcall	.+1074   	; 0x1cd6 <u8x8_gpio_call>
	  b >>= 1;
    18a4:	f6 94       	lsr	r15
      while( arg_int > 0 )
      {
	b = *data;
	data++;
	arg_int--;
	for( i = U8X8_MSG_GPIO_D0; i <= U8X8_MSG_GPIO_D7; i++ )
    18a6:	0f 5f       	subi	r16, 0xFF	; 255
    18a8:	08 34       	cpi	r16, 0x48	; 72
    18aa:	b9 f7       	brne	.-18     	; 0x189a <u8x8_byte_sed1520+0x38>
	{
	  u8x8_gpio_call(u8x8, i, b&1);
	  b >>= 1;
	}    
	
	u8x8_gpio_Delay(u8x8, U8X8_MSG_DELAY_NANO, u8x8->display_info->data_setup_time_ns);
    18ac:	e8 81       	ld	r30, Y
    18ae:	f9 81       	ldd	r31, Y+1	; 0x01
    18b0:	46 85       	ldd	r20, Z+14	; 0x0e
    18b2:	6c e2       	ldi	r22, 0x2C	; 44
    18b4:	ce 01       	movw	r24, r28
    18b6:	0f d2       	rcall	.+1054   	; 0x1cd6 <u8x8_gpio_call>
	u8x8_gpio_call(u8x8, enable_pin, 1);
    18b8:	41 e0       	ldi	r20, 0x01	; 1
    18ba:	60 91 41 04 	lds	r22, 0x0441	; 0x800441 <enable_pin.2989>
    18be:	ce 01       	movw	r24, r28
    18c0:	0a d2       	rcall	.+1044   	; 0x1cd6 <u8x8_gpio_call>
	u8x8_gpio_Delay(u8x8, U8X8_MSG_DELAY_NANO, 200);		/* KS0108 requires 450 ns, use 200 here */
    18c2:	48 ec       	ldi	r20, 0xC8	; 200
    18c4:	6c e2       	ldi	r22, 0x2C	; 44
    18c6:	ce 01       	movw	r24, r28
    18c8:	06 d2       	rcall	.+1036   	; 0x1cd6 <u8x8_gpio_call>
    18ca:	e8 81       	ld	r30, Y
	u8x8_gpio_Delay(u8x8, U8X8_MSG_DELAY_NANO, u8x8->display_info->write_pulse_width_ns);  /* expect 250 here */
    18cc:	f9 81       	ldd	r31, Y+1	; 0x01
    18ce:	47 85       	ldd	r20, Z+15	; 0x0f
    18d0:	6c e2       	ldi	r22, 0x2C	; 44
    18d2:	ce 01       	movw	r24, r28
    18d4:	00 d2       	rcall	.+1024   	; 0x1cd6 <u8x8_gpio_call>
	u8x8_gpio_call(u8x8, enable_pin, 0);
    18d6:	40 e0       	ldi	r20, 0x00	; 0
    18d8:	60 91 41 04 	lds	r22, 0x0441	; 0x800441 <enable_pin.2989>
    18dc:	ce 01       	movw	r24, r28
    18de:	fb d1       	rcall	.+1014   	; 0x1cd6 <u8x8_gpio_call>
    18e0:	11 23       	and	r17, r17
 
  switch(msg)
  {
    case U8X8_MSG_BYTE_SEND:
      data = (uint8_t *)arg_ptr;
      while( arg_int > 0 )
    18e2:	b1 f0       	breq	.+44     	; 0x1910 <u8x8_byte_sed1520+0xae>
    18e4:	f6 01       	movw	r30, r12
      {
	b = *data;
    18e6:	f1 90       	ld	r15, Z+
    18e8:	6f 01       	movw	r12, r30
    18ea:	11 50       	subi	r17, 0x01	; 1
	data++;
	arg_int--;
	for( i = U8X8_MSG_GPIO_D0; i <= U8X8_MSG_GPIO_D7; i++ )
    18ec:	00 e4       	ldi	r16, 0x40	; 64
    18ee:	d5 cf       	rjmp	.-86     	; 0x189a <u8x8_byte_sed1520+0x38>
      }
      break;
      
    case U8X8_MSG_BYTE_INIT:
      /* disable chipselect */
      u8x8_gpio_SetCS(u8x8, u8x8->display_info->chip_disable_level);    
    18f0:	e8 81       	ld	r30, Y
    18f2:	f9 81       	ldd	r31, Y+1	; 0x01
    18f4:	41 81       	ldd	r20, Z+1	; 0x01
    18f6:	69 e4       	ldi	r22, 0x49	; 73
    18f8:	ee d1       	rcall	.+988    	; 0x1cd6 <u8x8_gpio_call>
      /* ensure that the enable signals are low */
      u8x8_gpio_call(u8x8, U8X8_MSG_GPIO_E, 0);
    18fa:	40 e0       	ldi	r20, 0x00	; 0
    18fc:	68 e4       	ldi	r22, 0x48	; 72
    18fe:	ce 01       	movw	r24, r28
    1900:	ea d1       	rcall	.+980    	; 0x1cd6 <u8x8_gpio_call>
    1902:	40 e0       	ldi	r20, 0x00	; 0
      u8x8_gpio_call(u8x8, U8X8_MSG_GPIO_CS, 0);
    1904:	69 e4       	ldi	r22, 0x49	; 73
    1906:	ce 01       	movw	r24, r28
    1908:	e6 d1       	rcall	.+972    	; 0x1cd6 <u8x8_gpio_call>
    190a:	88 e4       	ldi	r24, 0x48	; 72
    190c:	80 93 41 04 	sts	0x0441, r24	; 0x800441 <enable_pin.2989>
      enable_pin = U8X8_MSG_GPIO_E;
    1910:	81 e0       	ldi	r24, 0x01	; 1
    1912:	05 c0       	rjmp	.+10     	; 0x191e <u8x8_byte_sed1520+0xbc>
    case U8X8_MSG_BYTE_END_TRANSFER:
      break;
    default:
      return 0;
  }
  return 1;
    1914:	44 23       	and	r20, r20
      u8x8_gpio_SetCS(u8x8, u8x8->display_info->chip_disable_level);    
      /* ensure that the enable signals are low */
      u8x8_gpio_call(u8x8, U8X8_MSG_GPIO_E, 0);
      u8x8_gpio_call(u8x8, U8X8_MSG_GPIO_CS, 0);
      enable_pin = U8X8_MSG_GPIO_E;
      break;
    1916:	c9 f3       	breq	.-14     	; 0x190a <u8x8_byte_sed1520+0xa8>
      break;
    case U8X8_MSG_BYTE_START_TRANSFER:
      /* cs lines are not supported for the SED1520/SBN1661 */
      /* instead, this will select the E1 or E2 line */ 
      enable_pin = U8X8_MSG_GPIO_E;
      if ( arg_int != 0 )
    1918:	89 e4       	ldi	r24, 0x49	; 73
    191a:	f8 cf       	rjmp	.-16     	; 0x190c <u8x8_byte_sed1520+0xaa>
	enable_pin = U8X8_MSG_GPIO_CS;
    191c:	80 e0       	ldi	r24, 0x00	; 0
    191e:	df 91       	pop	r29
      break;
    case U8X8_MSG_BYTE_END_TRANSFER:
      break;
    default:
      return 0;
    1920:	cf 91       	pop	r28
  }
  return 1;
}
    1922:	1f 91       	pop	r17
    1924:	0f 91       	pop	r16
    1926:	ff 90       	pop	r15
    1928:	df 90       	pop	r13
    192a:	cf 90       	pop	r12
    192c:	08 95       	ret

0000192e <u8x8_cad_SendCmd>:
    192e:	46 2f       	mov	r20, r22
    1930:	dc 01       	movw	r26, r24
      return u8x8->byte_cb(u8x8, msg, arg_int, arg_ptr);
    default:
      return 0;
  }
  return 1;
}
    1932:	16 96       	adiw	r26, 0x06	; 6
    1934:	ed 91       	ld	r30, X+
    1936:	fc 91       	ld	r31, X
    1938:	17 97       	sbiw	r26, 0x07	; 7
    193a:	20 e0       	ldi	r18, 0x00	; 0
    193c:	30 e0       	ldi	r19, 0x00	; 0
    193e:	65 e1       	ldi	r22, 0x15	; 21
    1940:	09 94       	ijmp

00001942 <u8x8_cad_SendData>:
    1942:	9a 01       	movw	r18, r20
    1944:	dc 01       	movw	r26, r24
    1946:	16 96       	adiw	r26, 0x06	; 6
    1948:	ed 91       	ld	r30, X+
    194a:	fc 91       	ld	r31, X
    194c:	17 97       	sbiw	r26, 0x07	; 7
    194e:	46 2f       	mov	r20, r22
    1950:	67 e1       	ldi	r22, 0x17	; 23
    1952:	09 94       	ijmp

00001954 <u8x8_cad_SendSequence>:
    1954:	ef 92       	push	r14
    1956:	ff 92       	push	r15
    1958:	0f 93       	push	r16
    195a:	1f 93       	push	r17
    195c:	cf 93       	push	r28
    195e:	df 93       	push	r29
    1960:	1f 92       	push	r1
    1962:	cd b7       	in	r28, 0x3d	; 61
    1964:	de b7       	in	r29, 0x3e	; 62
    1966:	7c 01       	movw	r14, r24
    1968:	8b 01       	movw	r16, r22
    196a:	d8 01       	movw	r26, r16
    196c:	6c 91       	ld	r22, X
    196e:	67 31       	cpi	r22, 0x17	; 23
    1970:	d9 f0       	breq	.+54     	; 0x19a8 <u8x8_cad_SendSequence+0x54>
    1972:	78 f4       	brcc	.+30     	; 0x1992 <u8x8_cad_SendSequence+0x3e>
    1974:	65 31       	cpi	r22, 0x15	; 21
    1976:	90 f1       	brcs	.+100    	; 0x19dc <u8x8_cad_SendSequence+0x88>
    1978:	f8 01       	movw	r30, r16
    197a:	41 81       	ldd	r20, Z+1	; 0x01
    197c:	49 83       	std	Y+1, r20	; 0x01
    197e:	d7 01       	movw	r26, r14
    1980:	16 96       	adiw	r26, 0x06	; 6
    1982:	ed 91       	ld	r30, X+
    1984:	fc 91       	ld	r31, X
    1986:	17 97       	sbiw	r26, 0x07	; 7
    1988:	20 e0       	ldi	r18, 0x00	; 0
    198a:	30 e0       	ldi	r19, 0x00	; 0
    198c:	c7 01       	movw	r24, r14
    198e:	09 95       	icall
    1990:	22 c0       	rjmp	.+68     	; 0x19d6 <u8x8_cad_SendSequence+0x82>
    1992:	6a 31       	cpi	r22, 0x1A	; 26
    1994:	98 f0       	brcs	.+38     	; 0x19bc <u8x8_cad_SendSequence+0x68>
    1996:	6e 3f       	cpi	r22, 0xFE	; 254
    1998:	09 f5       	brne	.+66     	; 0x19dc <u8x8_cad_SendSequence+0x88>
    199a:	f8 01       	movw	r30, r16
    199c:	41 81       	ldd	r20, Z+1	; 0x01
    199e:	49 83       	std	Y+1, r20	; 0x01
    19a0:	69 e2       	ldi	r22, 0x29	; 41
    19a2:	c7 01       	movw	r24, r14
    19a4:	98 d1       	rcall	.+816    	; 0x1cd6 <u8x8_gpio_call>
    19a6:	17 c0       	rjmp	.+46     	; 0x19d6 <u8x8_cad_SendSequence+0x82>
    19a8:	f8 01       	movw	r30, r16
    19aa:	81 81       	ldd	r24, Z+1	; 0x01
    19ac:	89 83       	std	Y+1, r24	; 0x01
    19ae:	ae 01       	movw	r20, r28
    19b0:	4f 5f       	subi	r20, 0xFF	; 255
    19b2:	5f 4f       	sbci	r21, 0xFF	; 255
    19b4:	61 e0       	ldi	r22, 0x01	; 1
    19b6:	c7 01       	movw	r24, r14
    19b8:	c4 df       	rcall	.-120    	; 0x1942 <u8x8_cad_SendData>
    19ba:	0d c0       	rjmp	.+26     	; 0x19d6 <u8x8_cad_SendSequence+0x82>
    19bc:	0f 5f       	subi	r16, 0xFF	; 255
    19be:	1f 4f       	sbci	r17, 0xFF	; 255
    19c0:	d7 01       	movw	r26, r14
    19c2:	16 96       	adiw	r26, 0x06	; 6
    19c4:	ed 91       	ld	r30, X+
    19c6:	fc 91       	ld	r31, X
    19c8:	17 97       	sbiw	r26, 0x07	; 7
    19ca:	20 e0       	ldi	r18, 0x00	; 0
    19cc:	30 e0       	ldi	r19, 0x00	; 0
    19ce:	40 e0       	ldi	r20, 0x00	; 0
    19d0:	c7 01       	movw	r24, r14
    19d2:	09 95       	icall
    19d4:	ca cf       	rjmp	.-108    	; 0x196a <u8x8_cad_SendSequence+0x16>
    19d6:	0e 5f       	subi	r16, 0xFE	; 254
    19d8:	1f 4f       	sbci	r17, 0xFF	; 255
    19da:	c7 cf       	rjmp	.-114    	; 0x196a <u8x8_cad_SendSequence+0x16>
    19dc:	0f 90       	pop	r0
    19de:	df 91       	pop	r29
    19e0:	cf 91       	pop	r28
    19e2:	1f 91       	pop	r17
    19e4:	0f 91       	pop	r16
    19e6:	ff 90       	pop	r15
    19e8:	ef 90       	pop	r14
    19ea:	08 95       	ret

000019ec <u8x8_cad_001>:
  convert to bytes by using 
    dc = 0 for commands and args and
    dc = 1 for data
*/
uint8_t u8x8_cad_001(u8x8_t *u8x8, uint8_t msg, uint8_t arg_int, void *arg_ptr)
{
    19ec:	ef 92       	push	r14
    19ee:	ff 92       	push	r15
    19f0:	0f 93       	push	r16
    19f2:	1f 93       	push	r17
    19f4:	cf 93       	push	r28
    19f6:	df 93       	push	r29
    19f8:	ec 01       	movw	r28, r24
    19fa:	16 2f       	mov	r17, r22
    19fc:	04 2f       	mov	r16, r20
    19fe:	79 01       	movw	r14, r18
  switch(msg)
    1a00:	66 31       	cpi	r22, 0x16	; 22
    1a02:	59 f0       	breq	.+22     	; 0x1a1a <u8x8_cad_001+0x2e>
    1a04:	28 f4       	brcc	.+10     	; 0x1a10 <u8x8_cad_001+0x24>
    1a06:	64 31       	cpi	r22, 0x14	; 20
    1a08:	91 f0       	breq	.+36     	; 0x1a2e <u8x8_cad_001+0x42>
    1a0a:	65 31       	cpi	r22, 0x15	; 21
    1a0c:	31 f0       	breq	.+12     	; 0x1a1a <u8x8_cad_001+0x2e>
    1a0e:	1c c0       	rjmp	.+56     	; 0x1a48 <u8x8_cad_001+0x5c>
    1a10:	67 31       	cpi	r22, 0x17	; 23
    1a12:	59 f0       	breq	.+22     	; 0x1a2a <u8x8_cad_001+0x3e>
    1a14:	6a 31       	cpi	r22, 0x1A	; 26
    1a16:	c0 f4       	brcc	.+48     	; 0x1a48 <u8x8_cad_001+0x5c>
    1a18:	0a c0       	rjmp	.+20     	; 0x1a2e <u8x8_cad_001+0x42>
    case U8X8_MSG_CAD_SEND_CMD:
      u8x8_byte_SetDC(u8x8, 0);
      u8x8_byte_SendByte(u8x8, arg_int);
      break;
    case U8X8_MSG_CAD_SEND_ARG:
      u8x8_byte_SetDC(u8x8, 0);
    1a1a:	60 e0       	ldi	r22, 0x00	; 0
    1a1c:	ce 01       	movw	r24, r28
    1a1e:	ff de       	rcall	.-514    	; 0x181e <u8x8_byte_SetDC>
      u8x8_byte_SendByte(u8x8, arg_int);
    1a20:	60 2f       	mov	r22, r16
    1a22:	ce 01       	movw	r24, r28
    1a24:	0f df       	rcall	.-482    	; 0x1844 <u8x8_byte_SendByte>
    case U8X8_MSG_CAD_END_TRANSFER:
      return u8x8->byte_cb(u8x8, msg, arg_int, arg_ptr);
    default:
      return 0;
  }
  return 1;
    1a26:	81 e0       	ldi	r24, 0x01	; 1
    case U8X8_MSG_CAD_SEND_ARG:
      u8x8_byte_SetDC(u8x8, 0);
      u8x8_byte_SendByte(u8x8, arg_int);
      break;
    case U8X8_MSG_CAD_SEND_DATA:
      u8x8_byte_SetDC(u8x8, 1);
    1a28:	10 c0       	rjmp	.+32     	; 0x1a4a <u8x8_cad_001+0x5e>
    1a2a:	61 e0       	ldi	r22, 0x01	; 1
    1a2c:	f8 de       	rcall	.-528    	; 0x181e <u8x8_byte_SetDC>
      //break;
      /* fall through */
    case U8X8_MSG_CAD_INIT:
    case U8X8_MSG_CAD_START_TRANSFER:
    case U8X8_MSG_CAD_END_TRANSFER:
      return u8x8->byte_cb(u8x8, msg, arg_int, arg_ptr);
    1a2e:	e8 85       	ldd	r30, Y+8	; 0x08
    1a30:	f9 85       	ldd	r31, Y+9	; 0x09
    1a32:	97 01       	movw	r18, r14
    1a34:	40 2f       	mov	r20, r16
    1a36:	61 2f       	mov	r22, r17
    1a38:	ce 01       	movw	r24, r28
    default:
      return 0;
  }
  return 1;
}
    1a3a:	df 91       	pop	r29
    1a3c:	cf 91       	pop	r28
    1a3e:	1f 91       	pop	r17
    1a40:	0f 91       	pop	r16
    1a42:	ff 90       	pop	r15
    1a44:	ef 90       	pop	r14
      //break;
      /* fall through */
    case U8X8_MSG_CAD_INIT:
    case U8X8_MSG_CAD_START_TRANSFER:
    case U8X8_MSG_CAD_END_TRANSFER:
      return u8x8->byte_cb(u8x8, msg, arg_int, arg_ptr);
    1a46:	09 94       	ijmp
    default:
      return 0;
    1a48:	80 e0       	ldi	r24, 0x00	; 0
  }
  return 1;
}
    1a4a:	df 91       	pop	r29
    1a4c:	cf 91       	pop	r28
    1a4e:	1f 91       	pop	r17
    1a50:	0f 91       	pop	r16
    1a52:	ff 90       	pop	r15
    1a54:	ef 90       	pop	r14
    1a56:	08 95       	ret

00001a58 <u8x8_d_helper_display_setup_memory>:
  u8x8->display_cb(u8x8, U8X8_MSG_DISPLAY_SET_FLIP_MODE, mode, NULL);  
}

void u8x8_SetContrast(u8x8_t *u8x8, uint8_t value)
{
  u8x8->display_cb(u8x8, U8X8_MSG_DISPLAY_SET_CONTRAST, value, NULL);  
    1a58:	fc 01       	movw	r30, r24
    1a5a:	71 83       	std	Z+1, r23	; 0x01
    1a5c:	60 83       	st	Z, r22
    1a5e:	fb 01       	movw	r30, r22
    1a60:	22 89       	ldd	r18, Z+18	; 0x12
    1a62:	fc 01       	movw	r30, r24
    1a64:	24 8b       	std	Z+20, r18	; 0x14
    1a66:	08 95       	ret

00001a68 <u8x8_d_helper_display_init>:
    1a68:	cf 93       	push	r28
    1a6a:	df 93       	push	r29
    1a6c:	ec 01       	movw	r28, r24
    1a6e:	ea 85       	ldd	r30, Y+10	; 0x0a
    1a70:	fb 85       	ldd	r31, Y+11	; 0x0b
    1a72:	20 e0       	ldi	r18, 0x00	; 0
    1a74:	30 e0       	ldi	r19, 0x00	; 0
    1a76:	40 e0       	ldi	r20, 0x00	; 0
    1a78:	68 e2       	ldi	r22, 0x28	; 40
    1a7a:	09 95       	icall
    1a7c:	ee 81       	ldd	r30, Y+6	; 0x06
    1a7e:	ff 81       	ldd	r31, Y+7	; 0x07
    1a80:	20 e0       	ldi	r18, 0x00	; 0
    1a82:	30 e0       	ldi	r19, 0x00	; 0
    1a84:	40 e0       	ldi	r20, 0x00	; 0
    1a86:	64 e1       	ldi	r22, 0x14	; 20
    1a88:	ce 01       	movw	r24, r28
    1a8a:	09 95       	icall
    1a8c:	41 e0       	ldi	r20, 0x01	; 1
    1a8e:	6b e4       	ldi	r22, 0x4B	; 75
    1a90:	ce 01       	movw	r24, r28
    1a92:	21 d1       	rcall	.+578    	; 0x1cd6 <u8x8_gpio_call>
    1a94:	e8 81       	ld	r30, Y
    1a96:	f9 81       	ldd	r31, Y+1	; 0x01
    1a98:	44 81       	ldd	r20, Z+4	; 0x04
    1a9a:	69 e2       	ldi	r22, 0x29	; 41
    1a9c:	ce 01       	movw	r24, r28
    1a9e:	1b d1       	rcall	.+566    	; 0x1cd6 <u8x8_gpio_call>
    1aa0:	40 e0       	ldi	r20, 0x00	; 0
    1aa2:	6b e4       	ldi	r22, 0x4B	; 75
    1aa4:	ce 01       	movw	r24, r28
    1aa6:	17 d1       	rcall	.+558    	; 0x1cd6 <u8x8_gpio_call>
    1aa8:	e8 81       	ld	r30, Y
    1aaa:	f9 81       	ldd	r31, Y+1	; 0x01
    1aac:	44 81       	ldd	r20, Z+4	; 0x04
    1aae:	69 e2       	ldi	r22, 0x29	; 41
    1ab0:	ce 01       	movw	r24, r28
    1ab2:	11 d1       	rcall	.+546    	; 0x1cd6 <u8x8_gpio_call>
    1ab4:	41 e0       	ldi	r20, 0x01	; 1
    1ab6:	6b e4       	ldi	r22, 0x4B	; 75
    1ab8:	ce 01       	movw	r24, r28
    1aba:	0d d1       	rcall	.+538    	; 0x1cd6 <u8x8_gpio_call>
    1abc:	e8 81       	ld	r30, Y
    1abe:	f9 81       	ldd	r31, Y+1	; 0x01
    1ac0:	45 81       	ldd	r20, Z+5	; 0x05
    1ac2:	69 e2       	ldi	r22, 0x29	; 41
    1ac4:	ce 01       	movw	r24, r28
    1ac6:	df 91       	pop	r29
    1ac8:	cf 91       	pop	r28
    1aca:	05 c1       	rjmp	.+522    	; 0x1cd6 <u8x8_gpio_call>

00001acc <u8x8_DrawTile>:
    1acc:	0f 93       	push	r16
    1ace:	1f 93       	push	r17
    1ad0:	cf 93       	push	r28
    1ad2:	df 93       	push	r29
    1ad4:	00 d0       	rcall	.+0      	; 0x1ad6 <u8x8_DrawTile+0xa>
    1ad6:	00 d0       	rcall	.+0      	; 0x1ad8 <u8x8_DrawTile+0xc>
    1ad8:	1f 92       	push	r1
    1ada:	cd b7       	in	r28, 0x3d	; 61
    1adc:	de b7       	in	r29, 0x3e	; 62
    1ade:	6c 83       	std	Y+4, r22	; 0x04
    1ae0:	4d 83       	std	Y+5, r20	; 0x05
    1ae2:	2b 83       	std	Y+3, r18	; 0x03
    1ae4:	1a 83       	std	Y+2, r17	; 0x02
    1ae6:	09 83       	std	Y+1, r16	; 0x01
    1ae8:	dc 01       	movw	r26, r24
    1aea:	14 96       	adiw	r26, 0x04	; 4
    1aec:	ed 91       	ld	r30, X+
    1aee:	fc 91       	ld	r31, X
    1af0:	15 97       	sbiw	r26, 0x05	; 5
    1af2:	9e 01       	movw	r18, r28
    1af4:	2f 5f       	subi	r18, 0xFF	; 255
    1af6:	3f 4f       	sbci	r19, 0xFF	; 255
    1af8:	41 e0       	ldi	r20, 0x01	; 1
    1afa:	6f e0       	ldi	r22, 0x0F	; 15
    1afc:	09 95       	icall
    1afe:	0f 90       	pop	r0
    1b00:	0f 90       	pop	r0
    1b02:	0f 90       	pop	r0
    1b04:	0f 90       	pop	r0
    1b06:	0f 90       	pop	r0
    1b08:	df 91       	pop	r29
    1b0a:	cf 91       	pop	r28
    1b0c:	1f 91       	pop	r17
    1b0e:	0f 91       	pop	r16
    1b10:	08 95       	ret

00001b12 <u8x8_SetupMemory>:
    1b12:	dc 01       	movw	r26, r24
    1b14:	14 96       	adiw	r26, 0x04	; 4
    1b16:	ed 91       	ld	r30, X+
    1b18:	fc 91       	ld	r31, X
    1b1a:	15 97       	sbiw	r26, 0x05	; 5
    1b1c:	20 e0       	ldi	r18, 0x00	; 0
    1b1e:	30 e0       	ldi	r19, 0x00	; 0
    1b20:	40 e0       	ldi	r20, 0x00	; 0
    1b22:	69 e0       	ldi	r22, 0x09	; 9
    1b24:	09 94       	ijmp

00001b26 <u8x8_InitDisplay>:
    1b26:	dc 01       	movw	r26, r24
    1b28:	14 96       	adiw	r26, 0x04	; 4
    1b2a:	ed 91       	ld	r30, X+
    1b2c:	fc 91       	ld	r31, X
    1b2e:	15 97       	sbiw	r26, 0x05	; 5
    1b30:	20 e0       	ldi	r18, 0x00	; 0
    1b32:	30 e0       	ldi	r19, 0x00	; 0
    1b34:	40 e0       	ldi	r20, 0x00	; 0
    1b36:	6a e0       	ldi	r22, 0x0A	; 10
    1b38:	09 94       	ijmp

00001b3a <u8x8_SetPowerSave>:
    1b3a:	46 2f       	mov	r20, r22
    1b3c:	dc 01       	movw	r26, r24
    1b3e:	14 96       	adiw	r26, 0x04	; 4
    1b40:	ed 91       	ld	r30, X+
    1b42:	fc 91       	ld	r31, X
    1b44:	15 97       	sbiw	r26, 0x05	; 5
    1b46:	20 e0       	ldi	r18, 0x00	; 0
    1b48:	30 e0       	ldi	r19, 0x00	; 0
    1b4a:	6b e0       	ldi	r22, 0x0B	; 11
    1b4c:	09 94       	ijmp

00001b4e <u8x8_RefreshDisplay>:
}

void u8x8_RefreshDisplay(u8x8_t *u8x8)
{
  u8x8->display_cb(u8x8, U8X8_MSG_DISPLAY_REFRESH, 0, NULL);  
    1b4e:	dc 01       	movw	r26, r24
    1b50:	14 96       	adiw	r26, 0x04	; 4
    1b52:	ed 91       	ld	r30, X+
    1b54:	fc 91       	ld	r31, X
    1b56:	15 97       	sbiw	r26, 0x05	; 5
    1b58:	20 e0       	ldi	r18, 0x00	; 0
    1b5a:	30 e0       	ldi	r19, 0x00	; 0
    1b5c:	40 e0       	ldi	r20, 0x00	; 0
    1b5e:	60 e1       	ldi	r22, 0x10	; 16
    1b60:	09 94       	ijmp

00001b62 <u8x8_d_mt12232_122x32>:
  /* pixel_width = */ 122,
  /* pixel_height = */ 32
};

uint8_t u8x8_d_mt12232_122x32(u8x8_t *u8x8, uint8_t msg, uint8_t arg_int, void *arg_ptr)
{
    1b62:	ef 92       	push	r14
    1b64:	ff 92       	push	r15
    1b66:	0f 93       	push	r16
    1b68:	1f 93       	push	r17
    1b6a:	cf 93       	push	r28
    1b6c:	df 93       	push	r29
    1b6e:	ec 01       	movw	r28, r24
    1b70:	79 01       	movw	r14, r18
  uint8_t *ptr;
  //uint8_t x;
  //uint8_t c;
  
  switch(msg)
    1b72:	6a 30       	cpi	r22, 0x0A	; 10
    1b74:	09 f4       	brne	.+2      	; 0x1b78 <u8x8_d_mt12232_122x32+0x16>
    1b76:	43 c0       	rjmp	.+134    	; 0x1bfe <u8x8_d_mt12232_122x32+0x9c>
    1b78:	38 f4       	brcc	.+14     	; 0x1b88 <u8x8_d_mt12232_122x32+0x26>
    1b7a:	69 30       	cpi	r22, 0x09	; 9
    1b7c:	09 f0       	breq	.+2      	; 0x1b80 <u8x8_d_mt12232_122x32+0x1e>
    1b7e:	a3 c0       	rjmp	.+326    	; 0x1cc6 <u8x8_d_mt12232_122x32+0x164>
  {
    case U8X8_MSG_DISPLAY_SETUP_MEMORY:
      u8x8_d_helper_display_setup_memory(u8x8, &u8x8_mt12232_122x32_display_info);
    1b80:	6c e0       	ldi	r22, 0x0C	; 12
    1b82:	72 e0       	ldi	r23, 0x02	; 2
    1b84:	69 df       	rcall	.-302    	; 0x1a58 <u8x8_d_helper_display_setup_memory>
    1b86:	9d c0       	rjmp	.+314    	; 0x1cc2 <u8x8_d_mt12232_122x32+0x160>
{
  uint8_t *ptr;
  //uint8_t x;
  //uint8_t c;
  
  switch(msg)
    1b88:	6b 30       	cpi	r22, 0x0B	; 11
    1b8a:	09 f4       	brne	.+2      	; 0x1b8e <u8x8_d_mt12232_122x32+0x2c>
    1b8c:	58 c0       	rjmp	.+176    	; 0x1c3e <u8x8_d_mt12232_122x32+0xdc>
    1b8e:	6f 30       	cpi	r22, 0x0F	; 15
    1b90:	09 f0       	breq	.+2      	; 0x1b94 <u8x8_d_mt12232_122x32+0x32>
    1b92:	99 c0       	rjmp	.+306    	; 0x1cc6 <u8x8_d_mt12232_122x32+0x164>
	
      }
      break;
    case U8X8_MSG_DISPLAY_DRAW_TILE:

      ptr = ((u8x8_tile_t *)arg_ptr)->tile_ptr;
    1b94:	f9 01       	movw	r30, r18
    1b96:	00 81       	ld	r16, Z
    1b98:	11 81       	ldd	r17, Z+1	; 0x01
      // x and c are ignored (u8g2 only)
      //x = ((u8x8_tile_t *)arg_ptr)->x_pos;
      //c = ((u8x8_tile_t *)arg_ptr)->cnt;
      
      u8x8->cad_cb(u8x8, U8X8_MSG_CAD_START_TRANSFER, 0, NULL);
    1b9a:	ee 81       	ldd	r30, Y+6	; 0x06
    1b9c:	ff 81       	ldd	r31, Y+7	; 0x07
    1b9e:	20 e0       	ldi	r18, 0x00	; 0
    1ba0:	30 e0       	ldi	r19, 0x00	; 0
    1ba2:	40 e0       	ldi	r20, 0x00	; 0
    1ba4:	68 e1       	ldi	r22, 0x18	; 24
    1ba6:	09 95       	icall
      u8x8_cad_SendCmd(u8x8, 0x000 | 19);		// column 0
    1ba8:	63 e1       	ldi	r22, 0x13	; 19
    1baa:	ce 01       	movw	r24, r28
    1bac:	c0 de       	rcall	.-640    	; 0x192e <u8x8_cad_SendCmd>
      u8x8_cad_SendCmd(u8x8, 0x0b8 | (((u8x8_tile_t *)arg_ptr)->y_pos));
    1bae:	f7 01       	movw	r30, r14
    1bb0:	64 81       	ldd	r22, Z+4	; 0x04
    1bb2:	68 6b       	ori	r22, 0xB8	; 184
    1bb4:	ce 01       	movw	r24, r28
    1bb6:	bb de       	rcall	.-650    	; 0x192e <u8x8_cad_SendCmd>
      u8x8_cad_SendData(u8x8, 61, ptr);	/* note: SendData can not handle more than 255 bytes */    
    1bb8:	a8 01       	movw	r20, r16
    1bba:	6d e3       	ldi	r22, 0x3D	; 61
    1bbc:	ce 01       	movw	r24, r28
    1bbe:	c1 de       	rcall	.-638    	; 0x1942 <u8x8_cad_SendData>
      u8x8->cad_cb(u8x8, U8X8_MSG_CAD_END_TRANSFER, 0, NULL);
    1bc0:	ee 81       	ldd	r30, Y+6	; 0x06
    1bc2:	ff 81       	ldd	r31, Y+7	; 0x07
    1bc4:	20 e0       	ldi	r18, 0x00	; 0
    1bc6:	30 e0       	ldi	r19, 0x00	; 0
    1bc8:	40 e0       	ldi	r20, 0x00	; 0
    1bca:	69 e1       	ldi	r22, 0x19	; 25
    1bcc:	ce 01       	movw	r24, r28
    1bce:	09 95       	icall

      ptr += 61;
      
      u8x8->cad_cb(u8x8, U8X8_MSG_CAD_START_TRANSFER, 1, NULL);
    1bd0:	ee 81       	ldd	r30, Y+6	; 0x06
    1bd2:	ff 81       	ldd	r31, Y+7	; 0x07
    1bd4:	20 e0       	ldi	r18, 0x00	; 0
    1bd6:	30 e0       	ldi	r19, 0x00	; 0
    1bd8:	41 e0       	ldi	r20, 0x01	; 1
    1bda:	68 e1       	ldi	r22, 0x18	; 24
    1bdc:	ce 01       	movw	r24, r28
      u8x8_cad_SendCmd(u8x8, 0x000 | 0);		// column 0
    1bde:	09 95       	icall
    1be0:	60 e0       	ldi	r22, 0x00	; 0
    1be2:	ce 01       	movw	r24, r28
      u8x8_cad_SendCmd(u8x8, 0x0b8 | (((u8x8_tile_t *)arg_ptr)->y_pos));
    1be4:	a4 de       	rcall	.-696    	; 0x192e <u8x8_cad_SendCmd>
    1be6:	f7 01       	movw	r30, r14
    1be8:	64 81       	ldd	r22, Z+4	; 0x04
    1bea:	68 6b       	ori	r22, 0xB8	; 184
    1bec:	ce 01       	movw	r24, r28
    
      u8x8_cad_SendData(u8x8, 61, ptr);	/* note: SendData can not handle more than 255 bytes */    
    1bee:	9f de       	rcall	.-706    	; 0x192e <u8x8_cad_SendCmd>
    1bf0:	a8 01       	movw	r20, r16
    1bf2:	43 5c       	subi	r20, 0xC3	; 195
    1bf4:	5f 4f       	sbci	r21, 0xFF	; 255
    1bf6:	6d e3       	ldi	r22, 0x3D	; 61
    1bf8:	ce 01       	movw	r24, r28
    1bfa:	a3 de       	rcall	.-698    	; 0x1942 <u8x8_cad_SendData>
  {
    case U8X8_MSG_DISPLAY_SETUP_MEMORY:
      u8x8_d_helper_display_setup_memory(u8x8, &u8x8_mt12232_122x32_display_info);
      break;
    case U8X8_MSG_DISPLAY_INIT:
      u8x8_d_helper_display_init(u8x8);
    1bfc:	5a c0       	rjmp	.+180    	; 0x1cb2 <u8x8_d_mt12232_122x32+0x150>
    1bfe:	34 df       	rcall	.-408    	; 0x1a68 <u8x8_d_helper_display_init>
    
      u8x8->cad_cb(u8x8, U8X8_MSG_CAD_START_TRANSFER, 0, NULL);
    1c00:	ee 81       	ldd	r30, Y+6	; 0x06
    1c02:	ff 81       	ldd	r31, Y+7	; 0x07
    1c04:	20 e0       	ldi	r18, 0x00	; 0
    1c06:	30 e0       	ldi	r19, 0x00	; 0
    1c08:	40 e0       	ldi	r20, 0x00	; 0
    1c0a:	68 e1       	ldi	r22, 0x18	; 24
    1c0c:	ce 01       	movw	r24, r28
      u8x8_cad_SendSequence(u8x8, u8x8_d_mt12232_L_init_seq);
    1c0e:	09 95       	icall
    1c10:	63 e3       	ldi	r22, 0x33	; 51
    1c12:	72 e0       	ldi	r23, 0x02	; 2
    1c14:	ce 01       	movw	r24, r28
    1c16:	9e de       	rcall	.-708    	; 0x1954 <u8x8_cad_SendSequence>
      u8x8->cad_cb(u8x8, U8X8_MSG_CAD_END_TRANSFER, 0, NULL);
    1c18:	ee 81       	ldd	r30, Y+6	; 0x06
    1c1a:	ff 81       	ldd	r31, Y+7	; 0x07
    1c1c:	20 e0       	ldi	r18, 0x00	; 0
    1c1e:	30 e0       	ldi	r19, 0x00	; 0
    1c20:	40 e0       	ldi	r20, 0x00	; 0
    1c22:	69 e1       	ldi	r22, 0x19	; 25
    1c24:	ce 01       	movw	r24, r28
    1c26:	09 95       	icall
    
      u8x8->cad_cb(u8x8, U8X8_MSG_CAD_START_TRANSFER, 1, NULL);
    1c28:	ee 81       	ldd	r30, Y+6	; 0x06
    1c2a:	ff 81       	ldd	r31, Y+7	; 0x07
    1c2c:	20 e0       	ldi	r18, 0x00	; 0
    1c2e:	30 e0       	ldi	r19, 0x00	; 0
    1c30:	41 e0       	ldi	r20, 0x01	; 1
    1c32:	68 e1       	ldi	r22, 0x18	; 24
    1c34:	ce 01       	movw	r24, r28
    1c36:	09 95       	icall
      u8x8_cad_SendSequence(u8x8, u8x8_d_mt12232_R_init_seq);
    1c38:	6a e2       	ldi	r22, 0x2A	; 42
    1c3a:	72 e0       	ldi	r23, 0x02	; 2
    1c3c:	38 c0       	rjmp	.+112    	; 0x1cae <u8x8_d_mt12232_122x32+0x14c>
    1c3e:	ee 81       	ldd	r30, Y+6	; 0x06
    1c40:	ff 81       	ldd	r31, Y+7	; 0x07
      break;
    case U8X8_MSG_DISPLAY_SET_POWER_SAVE:
      
      if ( arg_int == 0 )
      {
	u8x8->cad_cb(u8x8, U8X8_MSG_CAD_START_TRANSFER, 0, NULL);
    1c42:	20 e0       	ldi	r18, 0x00	; 0
      u8x8_cad_SendSequence(u8x8, u8x8_d_mt12232_R_init_seq);
      u8x8->cad_cb(u8x8, U8X8_MSG_CAD_END_TRANSFER, 1, NULL);
      break;
    case U8X8_MSG_DISPLAY_SET_POWER_SAVE:
      
      if ( arg_int == 0 )
    1c44:	30 e0       	ldi	r19, 0x00	; 0
    1c46:	41 11       	cpse	r20, r1
      {
	u8x8->cad_cb(u8x8, U8X8_MSG_CAD_START_TRANSFER, 0, NULL);
    1c48:	19 c0       	rjmp	.+50     	; 0x1c7c <u8x8_d_mt12232_122x32+0x11a>
    1c4a:	68 e1       	ldi	r22, 0x18	; 24
	u8x8_cad_SendSequence(u8x8, u8x8_d_mt12232_powersave0_seq);
    1c4c:	09 95       	icall
    1c4e:	67 e2       	ldi	r22, 0x27	; 39
    1c50:	72 e0       	ldi	r23, 0x02	; 2
    1c52:	ce 01       	movw	r24, r28
    1c54:	7f de       	rcall	.-770    	; 0x1954 <u8x8_cad_SendSequence>
	u8x8->cad_cb(u8x8, U8X8_MSG_CAD_END_TRANSFER, 0, NULL);
    1c56:	ee 81       	ldd	r30, Y+6	; 0x06
    1c58:	ff 81       	ldd	r31, Y+7	; 0x07
    1c5a:	20 e0       	ldi	r18, 0x00	; 0
    1c5c:	30 e0       	ldi	r19, 0x00	; 0
    1c5e:	40 e0       	ldi	r20, 0x00	; 0
    1c60:	69 e1       	ldi	r22, 0x19	; 25
    1c62:	ce 01       	movw	r24, r28
    1c64:	09 95       	icall

	u8x8->cad_cb(u8x8, U8X8_MSG_CAD_START_TRANSFER, 1, NULL);
    1c66:	ee 81       	ldd	r30, Y+6	; 0x06
    1c68:	ff 81       	ldd	r31, Y+7	; 0x07
    1c6a:	20 e0       	ldi	r18, 0x00	; 0
    1c6c:	30 e0       	ldi	r19, 0x00	; 0
    1c6e:	41 e0       	ldi	r20, 0x01	; 1
    1c70:	68 e1       	ldi	r22, 0x18	; 24
    1c72:	ce 01       	movw	r24, r28
	u8x8_cad_SendSequence(u8x8, u8x8_d_mt12232_powersave0_seq);
    1c74:	09 95       	icall
    1c76:	67 e2       	ldi	r22, 0x27	; 39
    1c78:	72 e0       	ldi	r23, 0x02	; 2
	u8x8->cad_cb(u8x8, U8X8_MSG_CAD_END_TRANSFER, 1, NULL);	
      }
      else
      {
	u8x8->cad_cb(u8x8, U8X8_MSG_CAD_START_TRANSFER, 0, NULL);
    1c7a:	19 c0       	rjmp	.+50     	; 0x1cae <u8x8_d_mt12232_122x32+0x14c>
    1c7c:	40 e0       	ldi	r20, 0x00	; 0
    1c7e:	68 e1       	ldi	r22, 0x18	; 24
	u8x8_cad_SendSequence(u8x8, u8x8_d_mt12232_powersave1_seq);
    1c80:	09 95       	icall
    1c82:	64 e2       	ldi	r22, 0x24	; 36
    1c84:	72 e0       	ldi	r23, 0x02	; 2
    1c86:	ce 01       	movw	r24, r28
    1c88:	65 de       	rcall	.-822    	; 0x1954 <u8x8_cad_SendSequence>
	u8x8->cad_cb(u8x8, U8X8_MSG_CAD_END_TRANSFER, 0, NULL);
    1c8a:	ee 81       	ldd	r30, Y+6	; 0x06
    1c8c:	ff 81       	ldd	r31, Y+7	; 0x07
    1c8e:	20 e0       	ldi	r18, 0x00	; 0
    1c90:	30 e0       	ldi	r19, 0x00	; 0
    1c92:	40 e0       	ldi	r20, 0x00	; 0
    1c94:	69 e1       	ldi	r22, 0x19	; 25
    1c96:	ce 01       	movw	r24, r28
    1c98:	09 95       	icall
	
	u8x8->cad_cb(u8x8, U8X8_MSG_CAD_START_TRANSFER, 1, NULL);
    1c9a:	ee 81       	ldd	r30, Y+6	; 0x06
    1c9c:	ff 81       	ldd	r31, Y+7	; 0x07
    1c9e:	20 e0       	ldi	r18, 0x00	; 0
    1ca0:	30 e0       	ldi	r19, 0x00	; 0
    1ca2:	41 e0       	ldi	r20, 0x01	; 1
    1ca4:	68 e1       	ldi	r22, 0x18	; 24
    1ca6:	ce 01       	movw	r24, r28
	u8x8_cad_SendSequence(u8x8, u8x8_d_mt12232_powersave1_seq);
    1ca8:	09 95       	icall
    1caa:	64 e2       	ldi	r22, 0x24	; 36
    1cac:	72 e0       	ldi	r23, 0x02	; 2
    1cae:	ce 01       	movw	r24, r28
    1cb0:	51 de       	rcall	.-862    	; 0x1954 <u8x8_cad_SendSequence>
	u8x8->cad_cb(u8x8, U8X8_MSG_CAD_END_TRANSFER, 1, NULL);
    1cb2:	ee 81       	ldd	r30, Y+6	; 0x06
    1cb4:	ff 81       	ldd	r31, Y+7	; 0x07
    1cb6:	20 e0       	ldi	r18, 0x00	; 0
    1cb8:	30 e0       	ldi	r19, 0x00	; 0
    1cba:	41 e0       	ldi	r20, 0x01	; 1
    1cbc:	69 e1       	ldi	r22, 0x19	; 25
    1cbe:	ce 01       	movw	r24, r28
    1cc0:	09 95       	icall
    
      break;
    default:
      return 0;
  }
  return 1;
    1cc2:	81 e0       	ldi	r24, 0x01	; 1
    1cc4:	01 c0       	rjmp	.+2      	; 0x1cc8 <u8x8_d_mt12232_122x32+0x166>
      u8x8_cad_SendData(u8x8, 61, ptr);	/* note: SendData can not handle more than 255 bytes */    
      u8x8->cad_cb(u8x8, U8X8_MSG_CAD_END_TRANSFER, 1, NULL);
    
      break;
    default:
      return 0;
    1cc6:	80 e0       	ldi	r24, 0x00	; 0
  }
  return 1;
}
    1cc8:	df 91       	pop	r29
    1cca:	cf 91       	pop	r28
    1ccc:	1f 91       	pop	r17
    1cce:	0f 91       	pop	r16
    1cd0:	ff 90       	pop	r15
    1cd2:	ef 90       	pop	r14
    1cd4:	08 95       	ret

00001cd6 <u8x8_gpio_call>:
#include "u8x8.h"


void u8x8_gpio_call(u8x8_t *u8x8, uint8_t msg, uint8_t arg)
{
  u8x8->gpio_and_delay_cb(u8x8, msg, arg, NULL);
    1cd6:	dc 01       	movw	r26, r24
    1cd8:	1a 96       	adiw	r26, 0x0a	; 10
    1cda:	ed 91       	ld	r30, X+
    1cdc:	fc 91       	ld	r31, X
    1cde:	1b 97       	sbiw	r26, 0x0b	; 11
    1ce0:	20 e0       	ldi	r18, 0x00	; 0
    1ce2:	30 e0       	ldi	r19, 0x00	; 0
    1ce4:	09 94       	ijmp

00001ce6 <u8x8_dummy_cb>:
      u8x8_d_helper_display_init(u8x8);
      break;
  }
  /* the null device callback will succeed for all messages */
  return 1;
}
    1ce6:	80 e0       	ldi	r24, 0x00	; 0
    1ce8:	08 95       	ret

00001cea <u8x8_SetupDefaults>:
    Setup u8x8
  Args:
    u8x8	An empty u8x8 structure
*/
void u8x8_SetupDefaults(u8x8_t *u8x8)
{
    1cea:	fc 01       	movw	r30, r24
    u8x8->display_info = NULL;
    1cec:	11 82       	std	Z+1, r1	; 0x01
    1cee:	10 82       	st	Z, r1
    u8x8->display_cb = u8x8_dummy_cb;
    1cf0:	83 e7       	ldi	r24, 0x73	; 115
    1cf2:	9e e0       	ldi	r25, 0x0E	; 14
    1cf4:	95 83       	std	Z+5, r25	; 0x05
    1cf6:	84 83       	std	Z+4, r24	; 0x04
    u8x8->cad_cb = u8x8_dummy_cb;
    1cf8:	97 83       	std	Z+7, r25	; 0x07
    1cfa:	86 83       	std	Z+6, r24	; 0x06
    u8x8->byte_cb = u8x8_dummy_cb;
    1cfc:	91 87       	std	Z+9, r25	; 0x09
    1cfe:	80 87       	std	Z+8, r24	; 0x08
    u8x8->gpio_and_delay_cb = u8x8_dummy_cb;
    1d00:	93 87       	std	Z+11, r25	; 0x0b
    1d02:	82 87       	std	Z+10, r24	; 0x0a
    u8x8->is_font_inverse_mode = 0;
    1d04:	15 8a       	std	Z+21, r1	; 0x15
    u8x8->device_address = 0;
    1d06:	10 8e       	std	Z+24, r1	; 0x18
    u8x8->utf8_state = 0;		/* also reset by u8x8_utf8_init */
    1d08:	11 8e       	std	Z+25, r1	; 0x19
    u8x8->bus_clock = 0;		/* issue 769 */
    1d0a:	14 86       	std	Z+12, r1	; 0x0c
    1d0c:	15 86       	std	Z+13, r1	; 0x0d
    1d0e:	16 86       	std	Z+14, r1	; 0x0e
    1d10:	17 86       	std	Z+15, r1	; 0x0f
    u8x8->i2c_address = 255;
    1d12:	8f ef       	ldi	r24, 0xFF	; 255
    1d14:	86 8b       	std	Z+22, r24	; 0x16
    u8x8->debounce_default_pin_state = 255;	/* assume all low active buttons */
    1d16:	83 8f       	std	Z+27, r24	; 0x1b
    1d18:	08 95       	ret

00001d1a <u8x8_Setup>:
    byte_cb			Display controller/communication specific callback funtion
    gpio_and_delay_cb	Environment specific callback function

*/
void u8x8_Setup(u8x8_t *u8x8, u8x8_msg_cb display_cb, u8x8_msg_cb cad_cb, u8x8_msg_cb byte_cb, u8x8_msg_cb gpio_and_delay_cb)
{
    1d1a:	af 92       	push	r10
    1d1c:	bf 92       	push	r11
    1d1e:	cf 92       	push	r12
    1d20:	df 92       	push	r13
    1d22:	ef 92       	push	r14
    1d24:	ff 92       	push	r15
    1d26:	0f 93       	push	r16
    1d28:	1f 93       	push	r17
    1d2a:	cf 93       	push	r28
    1d2c:	df 93       	push	r29
    1d2e:	ec 01       	movw	r28, r24
    1d30:	5b 01       	movw	r10, r22
    1d32:	6a 01       	movw	r12, r20
    1d34:	79 01       	movw	r14, r18
  /* setup defaults and reset pins to U8X8_PIN_NONE */
  u8x8_SetupDefaults(u8x8);
    1d36:	d9 df       	rcall	.-78     	; 0x1cea <u8x8_SetupDefaults>

  /* setup specific callbacks */
  u8x8->display_cb = display_cb;
    1d38:	bd 82       	std	Y+5, r11	; 0x05
    1d3a:	ac 82       	std	Y+4, r10	; 0x04
  u8x8->cad_cb = cad_cb;
    1d3c:	df 82       	std	Y+7, r13	; 0x07
    1d3e:	ce 82       	std	Y+6, r12	; 0x06
  u8x8->byte_cb = byte_cb;
    1d40:	f9 86       	std	Y+9, r15	; 0x09
    1d42:	e8 86       	std	Y+8, r14	; 0x08
  u8x8->gpio_and_delay_cb = gpio_and_delay_cb;
    1d44:	1b 87       	std	Y+11, r17	; 0x0b
    1d46:	0a 87       	std	Y+10, r16	; 0x0a

  /* setup display info */
  u8x8_SetupMemory(u8x8);
    1d48:	ce 01       	movw	r24, r28
}
    1d4a:	df 91       	pop	r29
    1d4c:	cf 91       	pop	r28
    1d4e:	1f 91       	pop	r17
    1d50:	0f 91       	pop	r16
    1d52:	ff 90       	pop	r15
    1d54:	ef 90       	pop	r14
    1d56:	df 90       	pop	r13
    1d58:	cf 90       	pop	r12
    1d5a:	bf 90       	pop	r11
  u8x8->cad_cb = cad_cb;
  u8x8->byte_cb = byte_cb;
  u8x8->gpio_and_delay_cb = gpio_and_delay_cb;

  /* setup display info */
  u8x8_SetupMemory(u8x8);
    1d5c:	af 90       	pop	r10
    1d5e:	d9 ce       	rjmp	.-590    	; 0x1b12 <u8x8_SetupMemory>

00001d60 <__udivmodsi4>:
    1d60:	a1 e2       	ldi	r26, 0x21	; 33
    1d62:	1a 2e       	mov	r1, r26
    1d64:	aa 1b       	sub	r26, r26
    1d66:	bb 1b       	sub	r27, r27
    1d68:	fd 01       	movw	r30, r26
    1d6a:	0d c0       	rjmp	.+26     	; 0x1d86 <__udivmodsi4_ep>

00001d6c <__udivmodsi4_loop>:
    1d6c:	aa 1f       	adc	r26, r26
    1d6e:	bb 1f       	adc	r27, r27
    1d70:	ee 1f       	adc	r30, r30
    1d72:	ff 1f       	adc	r31, r31
    1d74:	a2 17       	cp	r26, r18
    1d76:	b3 07       	cpc	r27, r19
    1d78:	e4 07       	cpc	r30, r20
    1d7a:	f5 07       	cpc	r31, r21
    1d7c:	20 f0       	brcs	.+8      	; 0x1d86 <__udivmodsi4_ep>
    1d7e:	a2 1b       	sub	r26, r18
    1d80:	b3 0b       	sbc	r27, r19
    1d82:	e4 0b       	sbc	r30, r20
    1d84:	f5 0b       	sbc	r31, r21

00001d86 <__udivmodsi4_ep>:
    1d86:	66 1f       	adc	r22, r22
    1d88:	77 1f       	adc	r23, r23
    1d8a:	88 1f       	adc	r24, r24
    1d8c:	99 1f       	adc	r25, r25
    1d8e:	1a 94       	dec	r1
    1d90:	69 f7       	brne	.-38     	; 0x1d6c <__udivmodsi4_loop>
    1d92:	60 95       	com	r22
    1d94:	70 95       	com	r23
    1d96:	80 95       	com	r24
    1d98:	90 95       	com	r25
    1d9a:	9b 01       	movw	r18, r22
    1d9c:	ac 01       	movw	r20, r24
    1d9e:	bd 01       	movw	r22, r26
    1da0:	cf 01       	movw	r24, r30
    1da2:	08 95       	ret

00001da4 <__tablejump2__>:
    1da4:	ee 0f       	add	r30, r30
    1da6:	ff 1f       	adc	r31, r31
    1da8:	05 90       	lpm	r0, Z+
    1daa:	f4 91       	lpm	r31, Z
    1dac:	e0 2d       	mov	r30, r0
    1dae:	09 94       	ijmp

00001db0 <__umulhisi3>:
    1db0:	a2 9f       	mul	r26, r18
    1db2:	b0 01       	movw	r22, r0
    1db4:	b3 9f       	mul	r27, r19
    1db6:	c0 01       	movw	r24, r0
    1db8:	a3 9f       	mul	r26, r19
    1dba:	70 0d       	add	r23, r0
    1dbc:	81 1d       	adc	r24, r1
    1dbe:	11 24       	eor	r1, r1
    1dc0:	91 1d       	adc	r25, r1
    1dc2:	b2 9f       	mul	r27, r18
    1dc4:	70 0d       	add	r23, r0
    1dc6:	81 1d       	adc	r24, r1
    1dc8:	11 24       	eor	r1, r1
    1dca:	91 1d       	adc	r25, r1
    1dcc:	08 95       	ret

00001dce <sprintf>:
    1dce:	ae e0       	ldi	r26, 0x0E	; 14
    1dd0:	b0 e0       	ldi	r27, 0x00	; 0
    1dd2:	ec ee       	ldi	r30, 0xEC	; 236
    1dd4:	fe e0       	ldi	r31, 0x0E	; 14
    1dd6:	aa c2       	rjmp	.+1364   	; 0x232c <__prologue_saves__+0x1c>
    1dd8:	0d 89       	ldd	r16, Y+21	; 0x15
    1dda:	1e 89       	ldd	r17, Y+22	; 0x16
    1ddc:	86 e0       	ldi	r24, 0x06	; 6
    1dde:	8c 83       	std	Y+4, r24	; 0x04
    1de0:	1a 83       	std	Y+2, r17	; 0x02
    1de2:	09 83       	std	Y+1, r16	; 0x01
    1de4:	8f ef       	ldi	r24, 0xFF	; 255
    1de6:	9f e7       	ldi	r25, 0x7F	; 127
    1de8:	9e 83       	std	Y+6, r25	; 0x06
    1dea:	8d 83       	std	Y+5, r24	; 0x05
    1dec:	ae 01       	movw	r20, r28
    1dee:	47 5e       	subi	r20, 0xE7	; 231
    1df0:	5f 4f       	sbci	r21, 0xFF	; 255
    1df2:	6f 89       	ldd	r22, Y+23	; 0x17
    1df4:	78 8d       	ldd	r23, Y+24	; 0x18
    1df6:	ce 01       	movw	r24, r28
    1df8:	01 96       	adiw	r24, 0x01	; 1
    1dfa:	08 d0       	rcall	.+16     	; 0x1e0c <vfprintf>
    1dfc:	ef 81       	ldd	r30, Y+7	; 0x07
    1dfe:	f8 85       	ldd	r31, Y+8	; 0x08
    1e00:	e0 0f       	add	r30, r16
    1e02:	f1 1f       	adc	r31, r17
    1e04:	10 82       	st	Z, r1
    1e06:	2e 96       	adiw	r28, 0x0e	; 14
    1e08:	e4 e0       	ldi	r30, 0x04	; 4
    1e0a:	ac c2       	rjmp	.+1368   	; 0x2364 <__epilogue_restores__+0x1c>

00001e0c <vfprintf>:
    1e0c:	ab e0       	ldi	r26, 0x0B	; 11
    1e0e:	b0 e0       	ldi	r27, 0x00	; 0
    1e10:	eb e0       	ldi	r30, 0x0B	; 11
    1e12:	ff e0       	ldi	r31, 0x0F	; 15
    1e14:	7d c2       	rjmp	.+1274   	; 0x2310 <__prologue_saves__>
    1e16:	6c 01       	movw	r12, r24
    1e18:	7b 01       	movw	r14, r22
    1e1a:	8a 01       	movw	r16, r20
    1e1c:	fc 01       	movw	r30, r24
    1e1e:	17 82       	std	Z+7, r1	; 0x07
    1e20:	16 82       	std	Z+6, r1	; 0x06
    1e22:	83 81       	ldd	r24, Z+3	; 0x03
    1e24:	81 ff       	sbrs	r24, 1
    1e26:	bf c1       	rjmp	.+894    	; 0x21a6 <vfprintf+0x39a>
    1e28:	ce 01       	movw	r24, r28
    1e2a:	01 96       	adiw	r24, 0x01	; 1
    1e2c:	3c 01       	movw	r6, r24
    1e2e:	f6 01       	movw	r30, r12
    1e30:	93 81       	ldd	r25, Z+3	; 0x03
    1e32:	f7 01       	movw	r30, r14
    1e34:	93 fd       	sbrc	r25, 3
    1e36:	85 91       	lpm	r24, Z+
    1e38:	93 ff       	sbrs	r25, 3
    1e3a:	81 91       	ld	r24, Z+
    1e3c:	7f 01       	movw	r14, r30
    1e3e:	88 23       	and	r24, r24
    1e40:	09 f4       	brne	.+2      	; 0x1e44 <vfprintf+0x38>
    1e42:	ad c1       	rjmp	.+858    	; 0x219e <vfprintf+0x392>
    1e44:	85 32       	cpi	r24, 0x25	; 37
    1e46:	39 f4       	brne	.+14     	; 0x1e56 <vfprintf+0x4a>
    1e48:	93 fd       	sbrc	r25, 3
    1e4a:	85 91       	lpm	r24, Z+
    1e4c:	93 ff       	sbrs	r25, 3
    1e4e:	81 91       	ld	r24, Z+
    1e50:	7f 01       	movw	r14, r30
    1e52:	85 32       	cpi	r24, 0x25	; 37
    1e54:	21 f4       	brne	.+8      	; 0x1e5e <vfprintf+0x52>
    1e56:	b6 01       	movw	r22, r12
    1e58:	90 e0       	ldi	r25, 0x00	; 0
    1e5a:	c0 d1       	rcall	.+896    	; 0x21dc <fputc>
    1e5c:	e8 cf       	rjmp	.-48     	; 0x1e2e <vfprintf+0x22>
    1e5e:	91 2c       	mov	r9, r1
    1e60:	21 2c       	mov	r2, r1
    1e62:	31 2c       	mov	r3, r1
    1e64:	ff e1       	ldi	r31, 0x1F	; 31
    1e66:	f3 15       	cp	r31, r3
    1e68:	d8 f0       	brcs	.+54     	; 0x1ea0 <vfprintf+0x94>
    1e6a:	8b 32       	cpi	r24, 0x2B	; 43
    1e6c:	79 f0       	breq	.+30     	; 0x1e8c <vfprintf+0x80>
    1e6e:	38 f4       	brcc	.+14     	; 0x1e7e <vfprintf+0x72>
    1e70:	80 32       	cpi	r24, 0x20	; 32
    1e72:	79 f0       	breq	.+30     	; 0x1e92 <vfprintf+0x86>
    1e74:	83 32       	cpi	r24, 0x23	; 35
    1e76:	a1 f4       	brne	.+40     	; 0x1ea0 <vfprintf+0x94>
    1e78:	23 2d       	mov	r18, r3
    1e7a:	20 61       	ori	r18, 0x10	; 16
    1e7c:	1d c0       	rjmp	.+58     	; 0x1eb8 <vfprintf+0xac>
    1e7e:	8d 32       	cpi	r24, 0x2D	; 45
    1e80:	61 f0       	breq	.+24     	; 0x1e9a <vfprintf+0x8e>
    1e82:	80 33       	cpi	r24, 0x30	; 48
    1e84:	69 f4       	brne	.+26     	; 0x1ea0 <vfprintf+0x94>
    1e86:	23 2d       	mov	r18, r3
    1e88:	21 60       	ori	r18, 0x01	; 1
    1e8a:	16 c0       	rjmp	.+44     	; 0x1eb8 <vfprintf+0xac>
    1e8c:	83 2d       	mov	r24, r3
    1e8e:	82 60       	ori	r24, 0x02	; 2
    1e90:	38 2e       	mov	r3, r24
    1e92:	e3 2d       	mov	r30, r3
    1e94:	e4 60       	ori	r30, 0x04	; 4
    1e96:	3e 2e       	mov	r3, r30
    1e98:	2a c0       	rjmp	.+84     	; 0x1eee <vfprintf+0xe2>
    1e9a:	f3 2d       	mov	r31, r3
    1e9c:	f8 60       	ori	r31, 0x08	; 8
    1e9e:	1d c0       	rjmp	.+58     	; 0x1eda <vfprintf+0xce>
    1ea0:	37 fc       	sbrc	r3, 7
    1ea2:	2d c0       	rjmp	.+90     	; 0x1efe <vfprintf+0xf2>
    1ea4:	20 ed       	ldi	r18, 0xD0	; 208
    1ea6:	28 0f       	add	r18, r24
    1ea8:	2a 30       	cpi	r18, 0x0A	; 10
    1eaa:	40 f0       	brcs	.+16     	; 0x1ebc <vfprintf+0xb0>
    1eac:	8e 32       	cpi	r24, 0x2E	; 46
    1eae:	b9 f4       	brne	.+46     	; 0x1ede <vfprintf+0xd2>
    1eb0:	36 fc       	sbrc	r3, 6
    1eb2:	75 c1       	rjmp	.+746    	; 0x219e <vfprintf+0x392>
    1eb4:	23 2d       	mov	r18, r3
    1eb6:	20 64       	ori	r18, 0x40	; 64
    1eb8:	32 2e       	mov	r3, r18
    1eba:	19 c0       	rjmp	.+50     	; 0x1eee <vfprintf+0xe2>
    1ebc:	36 fe       	sbrs	r3, 6
    1ebe:	06 c0       	rjmp	.+12     	; 0x1ecc <vfprintf+0xc0>
    1ec0:	8a e0       	ldi	r24, 0x0A	; 10
    1ec2:	98 9e       	mul	r9, r24
    1ec4:	20 0d       	add	r18, r0
    1ec6:	11 24       	eor	r1, r1
    1ec8:	92 2e       	mov	r9, r18
    1eca:	11 c0       	rjmp	.+34     	; 0x1eee <vfprintf+0xe2>
    1ecc:	ea e0       	ldi	r30, 0x0A	; 10
    1ece:	2e 9e       	mul	r2, r30
    1ed0:	20 0d       	add	r18, r0
    1ed2:	11 24       	eor	r1, r1
    1ed4:	22 2e       	mov	r2, r18
    1ed6:	f3 2d       	mov	r31, r3
    1ed8:	f0 62       	ori	r31, 0x20	; 32
    1eda:	3f 2e       	mov	r3, r31
    1edc:	08 c0       	rjmp	.+16     	; 0x1eee <vfprintf+0xe2>
    1ede:	8c 36       	cpi	r24, 0x6C	; 108
    1ee0:	21 f4       	brne	.+8      	; 0x1eea <vfprintf+0xde>
    1ee2:	83 2d       	mov	r24, r3
    1ee4:	80 68       	ori	r24, 0x80	; 128
    1ee6:	38 2e       	mov	r3, r24
    1ee8:	02 c0       	rjmp	.+4      	; 0x1eee <vfprintf+0xe2>
    1eea:	88 36       	cpi	r24, 0x68	; 104
    1eec:	41 f4       	brne	.+16     	; 0x1efe <vfprintf+0xf2>
    1eee:	f7 01       	movw	r30, r14
    1ef0:	93 fd       	sbrc	r25, 3
    1ef2:	85 91       	lpm	r24, Z+
    1ef4:	93 ff       	sbrs	r25, 3
    1ef6:	81 91       	ld	r24, Z+
    1ef8:	7f 01       	movw	r14, r30
    1efa:	81 11       	cpse	r24, r1
    1efc:	b3 cf       	rjmp	.-154    	; 0x1e64 <vfprintf+0x58>
    1efe:	98 2f       	mov	r25, r24
    1f00:	9f 7d       	andi	r25, 0xDF	; 223
    1f02:	95 54       	subi	r25, 0x45	; 69
    1f04:	93 30       	cpi	r25, 0x03	; 3
    1f06:	28 f4       	brcc	.+10     	; 0x1f12 <vfprintf+0x106>
    1f08:	0c 5f       	subi	r16, 0xFC	; 252
    1f0a:	1f 4f       	sbci	r17, 0xFF	; 255
    1f0c:	9f e3       	ldi	r25, 0x3F	; 63
    1f0e:	99 83       	std	Y+1, r25	; 0x01
    1f10:	0d c0       	rjmp	.+26     	; 0x1f2c <vfprintf+0x120>
    1f12:	83 36       	cpi	r24, 0x63	; 99
    1f14:	31 f0       	breq	.+12     	; 0x1f22 <vfprintf+0x116>
    1f16:	83 37       	cpi	r24, 0x73	; 115
    1f18:	71 f0       	breq	.+28     	; 0x1f36 <vfprintf+0x12a>
    1f1a:	83 35       	cpi	r24, 0x53	; 83
    1f1c:	09 f0       	breq	.+2      	; 0x1f20 <vfprintf+0x114>
    1f1e:	55 c0       	rjmp	.+170    	; 0x1fca <vfprintf+0x1be>
    1f20:	20 c0       	rjmp	.+64     	; 0x1f62 <vfprintf+0x156>
    1f22:	f8 01       	movw	r30, r16
    1f24:	80 81       	ld	r24, Z
    1f26:	89 83       	std	Y+1, r24	; 0x01
    1f28:	0e 5f       	subi	r16, 0xFE	; 254
    1f2a:	1f 4f       	sbci	r17, 0xFF	; 255
    1f2c:	88 24       	eor	r8, r8
    1f2e:	83 94       	inc	r8
    1f30:	91 2c       	mov	r9, r1
    1f32:	53 01       	movw	r10, r6
    1f34:	12 c0       	rjmp	.+36     	; 0x1f5a <vfprintf+0x14e>
    1f36:	28 01       	movw	r4, r16
    1f38:	f2 e0       	ldi	r31, 0x02	; 2
    1f3a:	4f 0e       	add	r4, r31
    1f3c:	51 1c       	adc	r5, r1
    1f3e:	f8 01       	movw	r30, r16
    1f40:	a0 80       	ld	r10, Z
    1f42:	b1 80       	ldd	r11, Z+1	; 0x01
    1f44:	36 fe       	sbrs	r3, 6
    1f46:	03 c0       	rjmp	.+6      	; 0x1f4e <vfprintf+0x142>
    1f48:	69 2d       	mov	r22, r9
    1f4a:	70 e0       	ldi	r23, 0x00	; 0
    1f4c:	02 c0       	rjmp	.+4      	; 0x1f52 <vfprintf+0x146>
    1f4e:	6f ef       	ldi	r22, 0xFF	; 255
    1f50:	7f ef       	ldi	r23, 0xFF	; 255
    1f52:	c5 01       	movw	r24, r10
    1f54:	38 d1       	rcall	.+624    	; 0x21c6 <strnlen>
    1f56:	4c 01       	movw	r8, r24
    1f58:	82 01       	movw	r16, r4
    1f5a:	f3 2d       	mov	r31, r3
    1f5c:	ff 77       	andi	r31, 0x7F	; 127
    1f5e:	3f 2e       	mov	r3, r31
    1f60:	15 c0       	rjmp	.+42     	; 0x1f8c <vfprintf+0x180>
    1f62:	28 01       	movw	r4, r16
    1f64:	22 e0       	ldi	r18, 0x02	; 2
    1f66:	42 0e       	add	r4, r18
    1f68:	51 1c       	adc	r5, r1
    1f6a:	f8 01       	movw	r30, r16
    1f6c:	a0 80       	ld	r10, Z
    1f6e:	b1 80       	ldd	r11, Z+1	; 0x01
    1f70:	36 fe       	sbrs	r3, 6
    1f72:	03 c0       	rjmp	.+6      	; 0x1f7a <vfprintf+0x16e>
    1f74:	69 2d       	mov	r22, r9
    1f76:	70 e0       	ldi	r23, 0x00	; 0
    1f78:	02 c0       	rjmp	.+4      	; 0x1f7e <vfprintf+0x172>
    1f7a:	6f ef       	ldi	r22, 0xFF	; 255
    1f7c:	7f ef       	ldi	r23, 0xFF	; 255
    1f7e:	c5 01       	movw	r24, r10
    1f80:	17 d1       	rcall	.+558    	; 0x21b0 <strnlen_P>
    1f82:	4c 01       	movw	r8, r24
    1f84:	f3 2d       	mov	r31, r3
    1f86:	f0 68       	ori	r31, 0x80	; 128
    1f88:	3f 2e       	mov	r3, r31
    1f8a:	82 01       	movw	r16, r4
    1f8c:	33 fc       	sbrc	r3, 3
    1f8e:	19 c0       	rjmp	.+50     	; 0x1fc2 <vfprintf+0x1b6>
    1f90:	82 2d       	mov	r24, r2
    1f92:	90 e0       	ldi	r25, 0x00	; 0
    1f94:	88 16       	cp	r8, r24
    1f96:	99 06       	cpc	r9, r25
    1f98:	a0 f4       	brcc	.+40     	; 0x1fc2 <vfprintf+0x1b6>
    1f9a:	b6 01       	movw	r22, r12
    1f9c:	80 e2       	ldi	r24, 0x20	; 32
    1f9e:	90 e0       	ldi	r25, 0x00	; 0
    1fa0:	1d d1       	rcall	.+570    	; 0x21dc <fputc>
    1fa2:	2a 94       	dec	r2
    1fa4:	f5 cf       	rjmp	.-22     	; 0x1f90 <vfprintf+0x184>
    1fa6:	f5 01       	movw	r30, r10
    1fa8:	37 fc       	sbrc	r3, 7
    1faa:	85 91       	lpm	r24, Z+
    1fac:	37 fe       	sbrs	r3, 7
    1fae:	81 91       	ld	r24, Z+
    1fb0:	5f 01       	movw	r10, r30
    1fb2:	b6 01       	movw	r22, r12
    1fb4:	90 e0       	ldi	r25, 0x00	; 0
    1fb6:	12 d1       	rcall	.+548    	; 0x21dc <fputc>
    1fb8:	21 10       	cpse	r2, r1
    1fba:	2a 94       	dec	r2
    1fbc:	21 e0       	ldi	r18, 0x01	; 1
    1fbe:	82 1a       	sub	r8, r18
    1fc0:	91 08       	sbc	r9, r1
    1fc2:	81 14       	cp	r8, r1
    1fc4:	91 04       	cpc	r9, r1
    1fc6:	79 f7       	brne	.-34     	; 0x1fa6 <vfprintf+0x19a>
    1fc8:	e1 c0       	rjmp	.+450    	; 0x218c <vfprintf+0x380>
    1fca:	84 36       	cpi	r24, 0x64	; 100
    1fcc:	11 f0       	breq	.+4      	; 0x1fd2 <vfprintf+0x1c6>
    1fce:	89 36       	cpi	r24, 0x69	; 105
    1fd0:	39 f5       	brne	.+78     	; 0x2020 <vfprintf+0x214>
    1fd2:	f8 01       	movw	r30, r16
    1fd4:	37 fe       	sbrs	r3, 7
    1fd6:	07 c0       	rjmp	.+14     	; 0x1fe6 <vfprintf+0x1da>
    1fd8:	60 81       	ld	r22, Z
    1fda:	71 81       	ldd	r23, Z+1	; 0x01
    1fdc:	82 81       	ldd	r24, Z+2	; 0x02
    1fde:	93 81       	ldd	r25, Z+3	; 0x03
    1fe0:	0c 5f       	subi	r16, 0xFC	; 252
    1fe2:	1f 4f       	sbci	r17, 0xFF	; 255
    1fe4:	08 c0       	rjmp	.+16     	; 0x1ff6 <vfprintf+0x1ea>
    1fe6:	60 81       	ld	r22, Z
    1fe8:	71 81       	ldd	r23, Z+1	; 0x01
    1fea:	07 2e       	mov	r0, r23
    1fec:	00 0c       	add	r0, r0
    1fee:	88 0b       	sbc	r24, r24
    1ff0:	99 0b       	sbc	r25, r25
    1ff2:	0e 5f       	subi	r16, 0xFE	; 254
    1ff4:	1f 4f       	sbci	r17, 0xFF	; 255
    1ff6:	f3 2d       	mov	r31, r3
    1ff8:	ff 76       	andi	r31, 0x6F	; 111
    1ffa:	3f 2e       	mov	r3, r31
    1ffc:	97 ff       	sbrs	r25, 7
    1ffe:	09 c0       	rjmp	.+18     	; 0x2012 <vfprintf+0x206>
    2000:	90 95       	com	r25
    2002:	80 95       	com	r24
    2004:	70 95       	com	r23
    2006:	61 95       	neg	r22
    2008:	7f 4f       	sbci	r23, 0xFF	; 255
    200a:	8f 4f       	sbci	r24, 0xFF	; 255
    200c:	9f 4f       	sbci	r25, 0xFF	; 255
    200e:	f0 68       	ori	r31, 0x80	; 128
    2010:	3f 2e       	mov	r3, r31
    2012:	2a e0       	ldi	r18, 0x0A	; 10
    2014:	30 e0       	ldi	r19, 0x00	; 0
    2016:	a3 01       	movw	r20, r6
    2018:	1d d1       	rcall	.+570    	; 0x2254 <__ultoa_invert>
    201a:	88 2e       	mov	r8, r24
    201c:	86 18       	sub	r8, r6
    201e:	44 c0       	rjmp	.+136    	; 0x20a8 <vfprintf+0x29c>
    2020:	85 37       	cpi	r24, 0x75	; 117
    2022:	31 f4       	brne	.+12     	; 0x2030 <vfprintf+0x224>
    2024:	23 2d       	mov	r18, r3
    2026:	2f 7e       	andi	r18, 0xEF	; 239
    2028:	b2 2e       	mov	r11, r18
    202a:	2a e0       	ldi	r18, 0x0A	; 10
    202c:	30 e0       	ldi	r19, 0x00	; 0
    202e:	25 c0       	rjmp	.+74     	; 0x207a <vfprintf+0x26e>
    2030:	93 2d       	mov	r25, r3
    2032:	99 7f       	andi	r25, 0xF9	; 249
    2034:	b9 2e       	mov	r11, r25
    2036:	8f 36       	cpi	r24, 0x6F	; 111
    2038:	c1 f0       	breq	.+48     	; 0x206a <vfprintf+0x25e>
    203a:	18 f4       	brcc	.+6      	; 0x2042 <vfprintf+0x236>
    203c:	88 35       	cpi	r24, 0x58	; 88
    203e:	79 f0       	breq	.+30     	; 0x205e <vfprintf+0x252>
    2040:	ae c0       	rjmp	.+348    	; 0x219e <vfprintf+0x392>
    2042:	80 37       	cpi	r24, 0x70	; 112
    2044:	19 f0       	breq	.+6      	; 0x204c <vfprintf+0x240>
    2046:	88 37       	cpi	r24, 0x78	; 120
    2048:	21 f0       	breq	.+8      	; 0x2052 <vfprintf+0x246>
    204a:	a9 c0       	rjmp	.+338    	; 0x219e <vfprintf+0x392>
    204c:	e9 2f       	mov	r30, r25
    204e:	e0 61       	ori	r30, 0x10	; 16
    2050:	be 2e       	mov	r11, r30
    2052:	b4 fe       	sbrs	r11, 4
    2054:	0d c0       	rjmp	.+26     	; 0x2070 <vfprintf+0x264>
    2056:	fb 2d       	mov	r31, r11
    2058:	f4 60       	ori	r31, 0x04	; 4
    205a:	bf 2e       	mov	r11, r31
    205c:	09 c0       	rjmp	.+18     	; 0x2070 <vfprintf+0x264>
    205e:	34 fe       	sbrs	r3, 4
    2060:	0a c0       	rjmp	.+20     	; 0x2076 <vfprintf+0x26a>
    2062:	29 2f       	mov	r18, r25
    2064:	26 60       	ori	r18, 0x06	; 6
    2066:	b2 2e       	mov	r11, r18
    2068:	06 c0       	rjmp	.+12     	; 0x2076 <vfprintf+0x26a>
    206a:	28 e0       	ldi	r18, 0x08	; 8
    206c:	30 e0       	ldi	r19, 0x00	; 0
    206e:	05 c0       	rjmp	.+10     	; 0x207a <vfprintf+0x26e>
    2070:	20 e1       	ldi	r18, 0x10	; 16
    2072:	30 e0       	ldi	r19, 0x00	; 0
    2074:	02 c0       	rjmp	.+4      	; 0x207a <vfprintf+0x26e>
    2076:	20 e1       	ldi	r18, 0x10	; 16
    2078:	32 e0       	ldi	r19, 0x02	; 2
    207a:	f8 01       	movw	r30, r16
    207c:	b7 fe       	sbrs	r11, 7
    207e:	07 c0       	rjmp	.+14     	; 0x208e <vfprintf+0x282>
    2080:	60 81       	ld	r22, Z
    2082:	71 81       	ldd	r23, Z+1	; 0x01
    2084:	82 81       	ldd	r24, Z+2	; 0x02
    2086:	93 81       	ldd	r25, Z+3	; 0x03
    2088:	0c 5f       	subi	r16, 0xFC	; 252
    208a:	1f 4f       	sbci	r17, 0xFF	; 255
    208c:	06 c0       	rjmp	.+12     	; 0x209a <vfprintf+0x28e>
    208e:	60 81       	ld	r22, Z
    2090:	71 81       	ldd	r23, Z+1	; 0x01
    2092:	80 e0       	ldi	r24, 0x00	; 0
    2094:	90 e0       	ldi	r25, 0x00	; 0
    2096:	0e 5f       	subi	r16, 0xFE	; 254
    2098:	1f 4f       	sbci	r17, 0xFF	; 255
    209a:	a3 01       	movw	r20, r6
    209c:	db d0       	rcall	.+438    	; 0x2254 <__ultoa_invert>
    209e:	88 2e       	mov	r8, r24
    20a0:	86 18       	sub	r8, r6
    20a2:	fb 2d       	mov	r31, r11
    20a4:	ff 77       	andi	r31, 0x7F	; 127
    20a6:	3f 2e       	mov	r3, r31
    20a8:	36 fe       	sbrs	r3, 6
    20aa:	0d c0       	rjmp	.+26     	; 0x20c6 <vfprintf+0x2ba>
    20ac:	23 2d       	mov	r18, r3
    20ae:	2e 7f       	andi	r18, 0xFE	; 254
    20b0:	a2 2e       	mov	r10, r18
    20b2:	89 14       	cp	r8, r9
    20b4:	58 f4       	brcc	.+22     	; 0x20cc <vfprintf+0x2c0>
    20b6:	34 fe       	sbrs	r3, 4
    20b8:	0b c0       	rjmp	.+22     	; 0x20d0 <vfprintf+0x2c4>
    20ba:	32 fc       	sbrc	r3, 2
    20bc:	09 c0       	rjmp	.+18     	; 0x20d0 <vfprintf+0x2c4>
    20be:	83 2d       	mov	r24, r3
    20c0:	8e 7e       	andi	r24, 0xEE	; 238
    20c2:	a8 2e       	mov	r10, r24
    20c4:	05 c0       	rjmp	.+10     	; 0x20d0 <vfprintf+0x2c4>
    20c6:	b8 2c       	mov	r11, r8
    20c8:	a3 2c       	mov	r10, r3
    20ca:	03 c0       	rjmp	.+6      	; 0x20d2 <vfprintf+0x2c6>
    20cc:	b8 2c       	mov	r11, r8
    20ce:	01 c0       	rjmp	.+2      	; 0x20d2 <vfprintf+0x2c6>
    20d0:	b9 2c       	mov	r11, r9
    20d2:	a4 fe       	sbrs	r10, 4
    20d4:	0f c0       	rjmp	.+30     	; 0x20f4 <vfprintf+0x2e8>
    20d6:	fe 01       	movw	r30, r28
    20d8:	e8 0d       	add	r30, r8
    20da:	f1 1d       	adc	r31, r1
    20dc:	80 81       	ld	r24, Z
    20de:	80 33       	cpi	r24, 0x30	; 48
    20e0:	21 f4       	brne	.+8      	; 0x20ea <vfprintf+0x2de>
    20e2:	9a 2d       	mov	r25, r10
    20e4:	99 7e       	andi	r25, 0xE9	; 233
    20e6:	a9 2e       	mov	r10, r25
    20e8:	09 c0       	rjmp	.+18     	; 0x20fc <vfprintf+0x2f0>
    20ea:	a2 fe       	sbrs	r10, 2
    20ec:	06 c0       	rjmp	.+12     	; 0x20fa <vfprintf+0x2ee>
    20ee:	b3 94       	inc	r11
    20f0:	b3 94       	inc	r11
    20f2:	04 c0       	rjmp	.+8      	; 0x20fc <vfprintf+0x2f0>
    20f4:	8a 2d       	mov	r24, r10
    20f6:	86 78       	andi	r24, 0x86	; 134
    20f8:	09 f0       	breq	.+2      	; 0x20fc <vfprintf+0x2f0>
    20fa:	b3 94       	inc	r11
    20fc:	a3 fc       	sbrc	r10, 3
    20fe:	10 c0       	rjmp	.+32     	; 0x2120 <vfprintf+0x314>
    2100:	a0 fe       	sbrs	r10, 0
    2102:	06 c0       	rjmp	.+12     	; 0x2110 <vfprintf+0x304>
    2104:	b2 14       	cp	r11, r2
    2106:	80 f4       	brcc	.+32     	; 0x2128 <vfprintf+0x31c>
    2108:	28 0c       	add	r2, r8
    210a:	92 2c       	mov	r9, r2
    210c:	9b 18       	sub	r9, r11
    210e:	0d c0       	rjmp	.+26     	; 0x212a <vfprintf+0x31e>
    2110:	b2 14       	cp	r11, r2
    2112:	58 f4       	brcc	.+22     	; 0x212a <vfprintf+0x31e>
    2114:	b6 01       	movw	r22, r12
    2116:	80 e2       	ldi	r24, 0x20	; 32
    2118:	90 e0       	ldi	r25, 0x00	; 0
    211a:	60 d0       	rcall	.+192    	; 0x21dc <fputc>
    211c:	b3 94       	inc	r11
    211e:	f8 cf       	rjmp	.-16     	; 0x2110 <vfprintf+0x304>
    2120:	b2 14       	cp	r11, r2
    2122:	18 f4       	brcc	.+6      	; 0x212a <vfprintf+0x31e>
    2124:	2b 18       	sub	r2, r11
    2126:	02 c0       	rjmp	.+4      	; 0x212c <vfprintf+0x320>
    2128:	98 2c       	mov	r9, r8
    212a:	21 2c       	mov	r2, r1
    212c:	a4 fe       	sbrs	r10, 4
    212e:	0f c0       	rjmp	.+30     	; 0x214e <vfprintf+0x342>
    2130:	b6 01       	movw	r22, r12
    2132:	80 e3       	ldi	r24, 0x30	; 48
    2134:	90 e0       	ldi	r25, 0x00	; 0
    2136:	52 d0       	rcall	.+164    	; 0x21dc <fputc>
    2138:	a2 fe       	sbrs	r10, 2
    213a:	16 c0       	rjmp	.+44     	; 0x2168 <vfprintf+0x35c>
    213c:	a1 fc       	sbrc	r10, 1
    213e:	03 c0       	rjmp	.+6      	; 0x2146 <vfprintf+0x33a>
    2140:	88 e7       	ldi	r24, 0x78	; 120
    2142:	90 e0       	ldi	r25, 0x00	; 0
    2144:	02 c0       	rjmp	.+4      	; 0x214a <vfprintf+0x33e>
    2146:	88 e5       	ldi	r24, 0x58	; 88
    2148:	90 e0       	ldi	r25, 0x00	; 0
    214a:	b6 01       	movw	r22, r12
    214c:	0c c0       	rjmp	.+24     	; 0x2166 <vfprintf+0x35a>
    214e:	8a 2d       	mov	r24, r10
    2150:	86 78       	andi	r24, 0x86	; 134
    2152:	51 f0       	breq	.+20     	; 0x2168 <vfprintf+0x35c>
    2154:	a1 fe       	sbrs	r10, 1
    2156:	02 c0       	rjmp	.+4      	; 0x215c <vfprintf+0x350>
    2158:	8b e2       	ldi	r24, 0x2B	; 43
    215a:	01 c0       	rjmp	.+2      	; 0x215e <vfprintf+0x352>
    215c:	80 e2       	ldi	r24, 0x20	; 32
    215e:	a7 fc       	sbrc	r10, 7
    2160:	8d e2       	ldi	r24, 0x2D	; 45
    2162:	b6 01       	movw	r22, r12
    2164:	90 e0       	ldi	r25, 0x00	; 0
    2166:	3a d0       	rcall	.+116    	; 0x21dc <fputc>
    2168:	89 14       	cp	r8, r9
    216a:	30 f4       	brcc	.+12     	; 0x2178 <vfprintf+0x36c>
    216c:	b6 01       	movw	r22, r12
    216e:	80 e3       	ldi	r24, 0x30	; 48
    2170:	90 e0       	ldi	r25, 0x00	; 0
    2172:	34 d0       	rcall	.+104    	; 0x21dc <fputc>
    2174:	9a 94       	dec	r9
    2176:	f8 cf       	rjmp	.-16     	; 0x2168 <vfprintf+0x35c>
    2178:	8a 94       	dec	r8
    217a:	f3 01       	movw	r30, r6
    217c:	e8 0d       	add	r30, r8
    217e:	f1 1d       	adc	r31, r1
    2180:	80 81       	ld	r24, Z
    2182:	b6 01       	movw	r22, r12
    2184:	90 e0       	ldi	r25, 0x00	; 0
    2186:	2a d0       	rcall	.+84     	; 0x21dc <fputc>
    2188:	81 10       	cpse	r8, r1
    218a:	f6 cf       	rjmp	.-20     	; 0x2178 <vfprintf+0x36c>
    218c:	22 20       	and	r2, r2
    218e:	09 f4       	brne	.+2      	; 0x2192 <vfprintf+0x386>
    2190:	4e ce       	rjmp	.-868    	; 0x1e2e <vfprintf+0x22>
    2192:	b6 01       	movw	r22, r12
    2194:	80 e2       	ldi	r24, 0x20	; 32
    2196:	90 e0       	ldi	r25, 0x00	; 0
    2198:	21 d0       	rcall	.+66     	; 0x21dc <fputc>
    219a:	2a 94       	dec	r2
    219c:	f7 cf       	rjmp	.-18     	; 0x218c <vfprintf+0x380>
    219e:	f6 01       	movw	r30, r12
    21a0:	86 81       	ldd	r24, Z+6	; 0x06
    21a2:	97 81       	ldd	r25, Z+7	; 0x07
    21a4:	02 c0       	rjmp	.+4      	; 0x21aa <vfprintf+0x39e>
    21a6:	8f ef       	ldi	r24, 0xFF	; 255
    21a8:	9f ef       	ldi	r25, 0xFF	; 255
    21aa:	2b 96       	adiw	r28, 0x0b	; 11
    21ac:	e2 e1       	ldi	r30, 0x12	; 18
    21ae:	cc c0       	rjmp	.+408    	; 0x2348 <__epilogue_restores__>

000021b0 <strnlen_P>:
    21b0:	fc 01       	movw	r30, r24
    21b2:	05 90       	lpm	r0, Z+
    21b4:	61 50       	subi	r22, 0x01	; 1
    21b6:	70 40       	sbci	r23, 0x00	; 0
    21b8:	01 10       	cpse	r0, r1
    21ba:	d8 f7       	brcc	.-10     	; 0x21b2 <strnlen_P+0x2>
    21bc:	80 95       	com	r24
    21be:	90 95       	com	r25
    21c0:	8e 0f       	add	r24, r30
    21c2:	9f 1f       	adc	r25, r31
    21c4:	08 95       	ret

000021c6 <strnlen>:
    21c6:	fc 01       	movw	r30, r24
    21c8:	61 50       	subi	r22, 0x01	; 1
    21ca:	70 40       	sbci	r23, 0x00	; 0
    21cc:	01 90       	ld	r0, Z+
    21ce:	01 10       	cpse	r0, r1
    21d0:	d8 f7       	brcc	.-10     	; 0x21c8 <strnlen+0x2>
    21d2:	80 95       	com	r24
    21d4:	90 95       	com	r25
    21d6:	8e 0f       	add	r24, r30
    21d8:	9f 1f       	adc	r25, r31
    21da:	08 95       	ret

000021dc <fputc>:
    21dc:	0f 93       	push	r16
    21de:	1f 93       	push	r17
    21e0:	cf 93       	push	r28
    21e2:	df 93       	push	r29
    21e4:	fb 01       	movw	r30, r22
    21e6:	23 81       	ldd	r18, Z+3	; 0x03
    21e8:	21 fd       	sbrc	r18, 1
    21ea:	03 c0       	rjmp	.+6      	; 0x21f2 <fputc+0x16>
    21ec:	8f ef       	ldi	r24, 0xFF	; 255
    21ee:	9f ef       	ldi	r25, 0xFF	; 255
    21f0:	2c c0       	rjmp	.+88     	; 0x224a <fputc+0x6e>
    21f2:	22 ff       	sbrs	r18, 2
    21f4:	16 c0       	rjmp	.+44     	; 0x2222 <fputc+0x46>
    21f6:	46 81       	ldd	r20, Z+6	; 0x06
    21f8:	57 81       	ldd	r21, Z+7	; 0x07
    21fa:	24 81       	ldd	r18, Z+4	; 0x04
    21fc:	35 81       	ldd	r19, Z+5	; 0x05
    21fe:	42 17       	cp	r20, r18
    2200:	53 07       	cpc	r21, r19
    2202:	44 f4       	brge	.+16     	; 0x2214 <fputc+0x38>
    2204:	a0 81       	ld	r26, Z
    2206:	b1 81       	ldd	r27, Z+1	; 0x01
    2208:	9d 01       	movw	r18, r26
    220a:	2f 5f       	subi	r18, 0xFF	; 255
    220c:	3f 4f       	sbci	r19, 0xFF	; 255
    220e:	31 83       	std	Z+1, r19	; 0x01
    2210:	20 83       	st	Z, r18
    2212:	8c 93       	st	X, r24
    2214:	26 81       	ldd	r18, Z+6	; 0x06
    2216:	37 81       	ldd	r19, Z+7	; 0x07
    2218:	2f 5f       	subi	r18, 0xFF	; 255
    221a:	3f 4f       	sbci	r19, 0xFF	; 255
    221c:	37 83       	std	Z+7, r19	; 0x07
    221e:	26 83       	std	Z+6, r18	; 0x06
    2220:	14 c0       	rjmp	.+40     	; 0x224a <fputc+0x6e>
    2222:	8b 01       	movw	r16, r22
    2224:	ec 01       	movw	r28, r24
    2226:	fb 01       	movw	r30, r22
    2228:	00 84       	ldd	r0, Z+8	; 0x08
    222a:	f1 85       	ldd	r31, Z+9	; 0x09
    222c:	e0 2d       	mov	r30, r0
    222e:	09 95       	icall
    2230:	89 2b       	or	r24, r25
    2232:	e1 f6       	brne	.-72     	; 0x21ec <fputc+0x10>
    2234:	d8 01       	movw	r26, r16
    2236:	16 96       	adiw	r26, 0x06	; 6
    2238:	8d 91       	ld	r24, X+
    223a:	9c 91       	ld	r25, X
    223c:	17 97       	sbiw	r26, 0x07	; 7
    223e:	01 96       	adiw	r24, 0x01	; 1
    2240:	17 96       	adiw	r26, 0x07	; 7
    2242:	9c 93       	st	X, r25
    2244:	8e 93       	st	-X, r24
    2246:	16 97       	sbiw	r26, 0x06	; 6
    2248:	ce 01       	movw	r24, r28
    224a:	df 91       	pop	r29
    224c:	cf 91       	pop	r28
    224e:	1f 91       	pop	r17
    2250:	0f 91       	pop	r16
    2252:	08 95       	ret

00002254 <__ultoa_invert>:
    2254:	fa 01       	movw	r30, r20
    2256:	aa 27       	eor	r26, r26
    2258:	28 30       	cpi	r18, 0x08	; 8
    225a:	51 f1       	breq	.+84     	; 0x22b0 <__ultoa_invert+0x5c>
    225c:	20 31       	cpi	r18, 0x10	; 16
    225e:	81 f1       	breq	.+96     	; 0x22c0 <__ultoa_invert+0x6c>
    2260:	e8 94       	clt
    2262:	6f 93       	push	r22
    2264:	6e 7f       	andi	r22, 0xFE	; 254
    2266:	6e 5f       	subi	r22, 0xFE	; 254
    2268:	7f 4f       	sbci	r23, 0xFF	; 255
    226a:	8f 4f       	sbci	r24, 0xFF	; 255
    226c:	9f 4f       	sbci	r25, 0xFF	; 255
    226e:	af 4f       	sbci	r26, 0xFF	; 255
    2270:	b1 e0       	ldi	r27, 0x01	; 1
    2272:	3e d0       	rcall	.+124    	; 0x22f0 <__ultoa_invert+0x9c>
    2274:	b4 e0       	ldi	r27, 0x04	; 4
    2276:	3c d0       	rcall	.+120    	; 0x22f0 <__ultoa_invert+0x9c>
    2278:	67 0f       	add	r22, r23
    227a:	78 1f       	adc	r23, r24
    227c:	89 1f       	adc	r24, r25
    227e:	9a 1f       	adc	r25, r26
    2280:	a1 1d       	adc	r26, r1
    2282:	68 0f       	add	r22, r24
    2284:	79 1f       	adc	r23, r25
    2286:	8a 1f       	adc	r24, r26
    2288:	91 1d       	adc	r25, r1
    228a:	a1 1d       	adc	r26, r1
    228c:	6a 0f       	add	r22, r26
    228e:	71 1d       	adc	r23, r1
    2290:	81 1d       	adc	r24, r1
    2292:	91 1d       	adc	r25, r1
    2294:	a1 1d       	adc	r26, r1
    2296:	20 d0       	rcall	.+64     	; 0x22d8 <__ultoa_invert+0x84>
    2298:	09 f4       	brne	.+2      	; 0x229c <__ultoa_invert+0x48>
    229a:	68 94       	set
    229c:	3f 91       	pop	r19
    229e:	2a e0       	ldi	r18, 0x0A	; 10
    22a0:	26 9f       	mul	r18, r22
    22a2:	11 24       	eor	r1, r1
    22a4:	30 19       	sub	r19, r0
    22a6:	30 5d       	subi	r19, 0xD0	; 208
    22a8:	31 93       	st	Z+, r19
    22aa:	de f6       	brtc	.-74     	; 0x2262 <__ultoa_invert+0xe>
    22ac:	cf 01       	movw	r24, r30
    22ae:	08 95       	ret
    22b0:	46 2f       	mov	r20, r22
    22b2:	47 70       	andi	r20, 0x07	; 7
    22b4:	40 5d       	subi	r20, 0xD0	; 208
    22b6:	41 93       	st	Z+, r20
    22b8:	b3 e0       	ldi	r27, 0x03	; 3
    22ba:	0f d0       	rcall	.+30     	; 0x22da <__ultoa_invert+0x86>
    22bc:	c9 f7       	brne	.-14     	; 0x22b0 <__ultoa_invert+0x5c>
    22be:	f6 cf       	rjmp	.-20     	; 0x22ac <__ultoa_invert+0x58>
    22c0:	46 2f       	mov	r20, r22
    22c2:	4f 70       	andi	r20, 0x0F	; 15
    22c4:	40 5d       	subi	r20, 0xD0	; 208
    22c6:	4a 33       	cpi	r20, 0x3A	; 58
    22c8:	18 f0       	brcs	.+6      	; 0x22d0 <__ultoa_invert+0x7c>
    22ca:	49 5d       	subi	r20, 0xD9	; 217
    22cc:	31 fd       	sbrc	r19, 1
    22ce:	40 52       	subi	r20, 0x20	; 32
    22d0:	41 93       	st	Z+, r20
    22d2:	02 d0       	rcall	.+4      	; 0x22d8 <__ultoa_invert+0x84>
    22d4:	a9 f7       	brne	.-22     	; 0x22c0 <__ultoa_invert+0x6c>
    22d6:	ea cf       	rjmp	.-44     	; 0x22ac <__ultoa_invert+0x58>
    22d8:	b4 e0       	ldi	r27, 0x04	; 4
    22da:	a6 95       	lsr	r26
    22dc:	97 95       	ror	r25
    22de:	87 95       	ror	r24
    22e0:	77 95       	ror	r23
    22e2:	67 95       	ror	r22
    22e4:	ba 95       	dec	r27
    22e6:	c9 f7       	brne	.-14     	; 0x22da <__ultoa_invert+0x86>
    22e8:	00 97       	sbiw	r24, 0x00	; 0
    22ea:	61 05       	cpc	r22, r1
    22ec:	71 05       	cpc	r23, r1
    22ee:	08 95       	ret
    22f0:	9b 01       	movw	r18, r22
    22f2:	ac 01       	movw	r20, r24
    22f4:	0a 2e       	mov	r0, r26
    22f6:	06 94       	lsr	r0
    22f8:	57 95       	ror	r21
    22fa:	47 95       	ror	r20
    22fc:	37 95       	ror	r19
    22fe:	27 95       	ror	r18
    2300:	ba 95       	dec	r27
    2302:	c9 f7       	brne	.-14     	; 0x22f6 <__ultoa_invert+0xa2>
    2304:	62 0f       	add	r22, r18
    2306:	73 1f       	adc	r23, r19
    2308:	84 1f       	adc	r24, r20
    230a:	95 1f       	adc	r25, r21
    230c:	a0 1d       	adc	r26, r0
    230e:	08 95       	ret

00002310 <__prologue_saves__>:
    2310:	2f 92       	push	r2
    2312:	3f 92       	push	r3
    2314:	4f 92       	push	r4
    2316:	5f 92       	push	r5
    2318:	6f 92       	push	r6
    231a:	7f 92       	push	r7
    231c:	8f 92       	push	r8
    231e:	9f 92       	push	r9
    2320:	af 92       	push	r10
    2322:	bf 92       	push	r11
    2324:	cf 92       	push	r12
    2326:	df 92       	push	r13
    2328:	ef 92       	push	r14
    232a:	ff 92       	push	r15
    232c:	0f 93       	push	r16
    232e:	1f 93       	push	r17
    2330:	cf 93       	push	r28
    2332:	df 93       	push	r29
    2334:	cd b7       	in	r28, 0x3d	; 61
    2336:	de b7       	in	r29, 0x3e	; 62
    2338:	ca 1b       	sub	r28, r26
    233a:	db 0b       	sbc	r29, r27
    233c:	0f b6       	in	r0, 0x3f	; 63
    233e:	f8 94       	cli
    2340:	de bf       	out	0x3e, r29	; 62
    2342:	0f be       	out	0x3f, r0	; 63
    2344:	cd bf       	out	0x3d, r28	; 61
    2346:	09 94       	ijmp

00002348 <__epilogue_restores__>:
    2348:	2a 88       	ldd	r2, Y+18	; 0x12
    234a:	39 88       	ldd	r3, Y+17	; 0x11
    234c:	48 88       	ldd	r4, Y+16	; 0x10
    234e:	5f 84       	ldd	r5, Y+15	; 0x0f
    2350:	6e 84       	ldd	r6, Y+14	; 0x0e
    2352:	7d 84       	ldd	r7, Y+13	; 0x0d
    2354:	8c 84       	ldd	r8, Y+12	; 0x0c
    2356:	9b 84       	ldd	r9, Y+11	; 0x0b
    2358:	aa 84       	ldd	r10, Y+10	; 0x0a
    235a:	b9 84       	ldd	r11, Y+9	; 0x09
    235c:	c8 84       	ldd	r12, Y+8	; 0x08
    235e:	df 80       	ldd	r13, Y+7	; 0x07
    2360:	ee 80       	ldd	r14, Y+6	; 0x06
    2362:	fd 80       	ldd	r15, Y+5	; 0x05
    2364:	0c 81       	ldd	r16, Y+4	; 0x04
    2366:	1b 81       	ldd	r17, Y+3	; 0x03
    2368:	aa 81       	ldd	r26, Y+2	; 0x02
    236a:	b9 81       	ldd	r27, Y+1	; 0x01
    236c:	ce 0f       	add	r28, r30
    236e:	d1 1d       	adc	r29, r1
    2370:	0f b6       	in	r0, 0x3f	; 63
    2372:	f8 94       	cli
    2374:	de bf       	out	0x3e, r29	; 62
    2376:	0f be       	out	0x3f, r0	; 63
    2378:	cd bf       	out	0x3d, r28	; 61
    237a:	ed 01       	movw	r28, r26
    237c:	08 95       	ret

0000237e <_exit>:
    237e:	f8 94       	cli

00002380 <__stop_program>:
    2380:	ff cf       	rjmp	.-2      	; 0x2380 <__stop_program>
