
GccApplication1.elf:     file format elf32-avr

Sections:
Idx Name          Size      VMA       LMA       File off  Algn
  0 .data         00000044  00800100  0000344e  000034e2  2**0
                  CONTENTS, ALLOC, LOAD, DATA
  1 .text         0000344e  00000000  00000000  00000094  2**1
                  CONTENTS, ALLOC, LOAD, READONLY, CODE
  2 .bss          00000267  00800144  00800144  00003526  2**0
                  ALLOC
  3 .comment      00000030  00000000  00000000  00003526  2**0
                  CONTENTS, READONLY
  4 .note.gnu.avr.deviceinfo 0000003c  00000000  00000000  00003558  2**2
                  CONTENTS, READONLY
  5 .debug_aranges 000019b8  00000000  00000000  00003594  2**0
                  CONTENTS, READONLY, DEBUGGING
  6 .debug_info   00036adc  00000000  00000000  00004f4c  2**0
                  CONTENTS, READONLY, DEBUGGING
  7 .debug_abbrev 00002666  00000000  00000000  0003ba28  2**0
                  CONTENTS, READONLY, DEBUGGING
  8 .debug_line   0000c13d  00000000  00000000  0003e08e  2**0
                  CONTENTS, READONLY, DEBUGGING
  9 .debug_frame  00009458  00000000  00000000  0004a1cc  2**2
                  CONTENTS, READONLY, DEBUGGING
 10 .debug_str    00017922  00000000  00000000  00053624  2**0
                  CONTENTS, READONLY, DEBUGGING
 11 .debug_loc    0003ae63  00000000  00000000  0006af46  2**0
                  CONTENTS, READONLY, DEBUGGING
 12 .debug_ranges 00001988  00000000  00000000  000a5da9  2**0
                  CONTENTS, READONLY, DEBUGGING
 13 .debug_macro  00004201  00000000  00000000  000a7731  2**0
                  CONTENTS, READONLY, DEBUGGING

Disassembly of section .text:

00000000 <__vectors>:
       0:	0c 94 71 0e 	jmp	0x1ce2	; 0x1ce2 <__ctors_end>
       4:	0c 94 8d 0e 	jmp	0x1d1a	; 0x1d1a <__bad_interrupt>
       8:	0c 94 8d 0e 	jmp	0x1d1a	; 0x1d1a <__bad_interrupt>
       c:	0c 94 8d 0e 	jmp	0x1d1a	; 0x1d1a <__bad_interrupt>
      10:	0c 94 8d 0e 	jmp	0x1d1a	; 0x1d1a <__bad_interrupt>
      14:	0c 94 8d 0e 	jmp	0x1d1a	; 0x1d1a <__bad_interrupt>
      18:	0c 94 8d 0e 	jmp	0x1d1a	; 0x1d1a <__bad_interrupt>
      1c:	0c 94 8d 0e 	jmp	0x1d1a	; 0x1d1a <__bad_interrupt>
      20:	0c 94 8d 0e 	jmp	0x1d1a	; 0x1d1a <__bad_interrupt>
      24:	0c 94 8d 0e 	jmp	0x1d1a	; 0x1d1a <__bad_interrupt>
      28:	0c 94 8d 0e 	jmp	0x1d1a	; 0x1d1a <__bad_interrupt>
      2c:	0c 94 8d 0e 	jmp	0x1d1a	; 0x1d1a <__bad_interrupt>
      30:	0c 94 8d 0e 	jmp	0x1d1a	; 0x1d1a <__bad_interrupt>
      34:	0c 94 8d 0e 	jmp	0x1d1a	; 0x1d1a <__bad_interrupt>
      38:	0c 94 8d 0e 	jmp	0x1d1a	; 0x1d1a <__bad_interrupt>
      3c:	0c 94 8d 0e 	jmp	0x1d1a	; 0x1d1a <__bad_interrupt>
      40:	0c 94 8d 0e 	jmp	0x1d1a	; 0x1d1a <__bad_interrupt>
      44:	0c 94 8d 0e 	jmp	0x1d1a	; 0x1d1a <__bad_interrupt>
      48:	0c 94 8d 0e 	jmp	0x1d1a	; 0x1d1a <__bad_interrupt>
      4c:	0c 94 8d 0e 	jmp	0x1d1a	; 0x1d1a <__bad_interrupt>
      50:	0c 94 8d 0e 	jmp	0x1d1a	; 0x1d1a <__bad_interrupt>
      54:	0c 94 8d 0e 	jmp	0x1d1a	; 0x1d1a <__bad_interrupt>
      58:	0c 94 8d 0e 	jmp	0x1d1a	; 0x1d1a <__bad_interrupt>
      5c:	0c 94 8d 0e 	jmp	0x1d1a	; 0x1d1a <__bad_interrupt>
      60:	0c 94 8d 0e 	jmp	0x1d1a	; 0x1d1a <__bad_interrupt>
      64:	0c 94 8d 0e 	jmp	0x1d1a	; 0x1d1a <__bad_interrupt>
      68:	0c 94 8d 0e 	jmp	0x1d1a	; 0x1d1a <__bad_interrupt>
      6c:	0c 94 8d 0e 	jmp	0x1d1a	; 0x1d1a <__bad_interrupt>
      70:	e9 0e       	add	r14, r25
      72:	45 0f       	add	r20, r21
      74:	45 0f       	add	r20, r21
      76:	45 0f       	add	r20, r21
      78:	45 0f       	add	r20, r21
      7a:	45 0f       	add	r20, r21
      7c:	45 0f       	add	r20, r21
      7e:	45 0f       	add	r20, r21
      80:	45 0f       	add	r20, r21
      82:	45 0f       	add	r20, r21
      84:	45 0f       	add	r20, r21
      86:	45 0f       	add	r20, r21
      88:	45 0f       	add	r20, r21
      8a:	45 0f       	add	r20, r21
      8c:	45 0f       	add	r20, r21
      8e:	45 0f       	add	r20, r21
      90:	45 0f       	add	r20, r21
      92:	45 0f       	add	r20, r21
      94:	45 0f       	add	r20, r21
      96:	45 0f       	add	r20, r21
      98:	45 0f       	add	r20, r21
      9a:	45 0f       	add	r20, r21
      9c:	45 0f       	add	r20, r21
      9e:	45 0f       	add	r20, r21
      a0:	f9 0e       	add	r15, r25
      a2:	ff 0e       	add	r15, r31
      a4:	05 0f       	add	r16, r21
      a6:	0b 0f       	add	r16, r27
      a8:	11 0f       	add	r17, r17
      aa:	17 0f       	add	r17, r23
      ac:	1d 0f       	add	r17, r29
      ae:	23 0f       	add	r18, r19
      b0:	29 0f       	add	r18, r25
      b2:	30 0f       	add	r19, r16
      b4:	39 0f       	add	r19, r25
      b6:	3f 0f       	add	r19, r31

000000b8 <__trampolines_end>:
      b8:	83 00       	.word	0x0083	; ????
      ba:	03 03       	mulsu	r16, r19
      bc:	04 05       	cpc	r16, r4
      be:	04 06       	cpc	r0, r20
      c0:	05 0a       	sbc	r0, r21
      c2:	14 00       	.word	0x0014	; ????
      c4:	fc 0d       	add	r31, r12
      c6:	fc 0d       	add	r31, r12
      c8:	00 01       	movw	r0, r0
      ca:	f3 03       	fmuls	r23, r19
      cc:	d6 05       	cpc	r29, r6
      ce:	7d 20       	and	r7, r13
      d0:	06 00       	.word	0x0006	; ????
      d2:	10 d6       	rcall	.+3104   	; 0xcf4 <__stack+0x7f5>
      d4:	00 21       	and	r16, r0
      d6:	08 d2       	rcall	.+1040   	; 0x4e8 <__LOCK_REGION_LENGTH__+0xe8>
      d8:	18 d4       	rcall	.+2096   	; 0x90a <__stack+0x40b>
      da:	78 30       	cpi	r23, 0x08	; 8
      dc:	11 22       	and	r1, r17
      de:	0b 46       	sbci	r16, 0x6B	; 107
      e0:	34 d5       	rcall	.+2664   	; 0xb4a <__stack+0x64b>
      e2:	10 31       	cpi	r17, 0x10	; 16
      e4:	49 42       	sbci	r20, 0x29	; 41
      e6:	11 00       	.word	0x0011	; ????
      e8:	23 1a       	sub	r2, r19
      ea:	b9 32       	cpi	r27, 0x29	; 41
      ec:	d4 93       	xch	Z, r29
      ee:	08 25       	eor	r16, r8
      f0:	42 89       	ldd	r20, Z+18	; 0x12
      f2:	e8 10       	cpse	r14, r8
      f4:	92 08       	sbc	r9, r2
      f6:	25 42       	sbci	r18, 0x25	; 37
      f8:	89 e8       	ldi	r24, 0x89	; 137
      fa:	10 92 08 25 	sts	0x2508, r1	; 0x802508 <__bss_end+0x215d>
      fe:	42 89       	ldd	r20, Z+18	; 0x12
     100:	0c 00       	.word	0x000c	; ????
     102:	24 17       	cp	r18, r20
     104:	d8 12       	cpse	r13, r24
     106:	d4 13       	cpse	r29, r20
     108:	5a 54       	subi	r21, 0x4A	; 74
     10a:	28 32       	cpi	r18, 0x28	; 40
     10c:	89 4c       	sbci	r24, 0xC9	; 201
     10e:	22 34       	cpi	r18, 0x42	; 66
     110:	4a 64       	ori	r20, 0x4A	; 74
     112:	12 99       	sbic	0x02, 2	; 2
     114:	84 a2       	std	Z+36, r8	; 0x24
     116:	62 94       	swap	r6
     118:	01 25       	eor	r16, r1
     11a:	16 c9       	rjmp	.-3540   	; 0xfffff348 <__eeprom_end+0xff7ef348>
     11c:	12 d4       	rcall	.+2084   	; 0x942 <__stack+0x443>
     11e:	19 49       	sbci	r17, 0x99	; 153
     120:	74 a1       	ldd	r23, Z+36	; 0x24
     122:	4d c4       	rjmp	.+2202   	; 0x9be <__stack+0x4bf>
     124:	72 80       	ldd	r7, Z+2	; 0x02
     126:	58 0e       	add	r5, r24
     128:	10 4b       	sbci	r17, 0xB0	; 176
     12a:	66 14       	cp	r6, r6
     12c:	3d 4d       	sbci	r19, 0xDD	; 221
     12e:	00 26       	eor	r0, r16
     130:	19 d9       	rcall	.-3534   	; 0xfffff364 <__eeprom_end+0xff7ef364>
     132:	12 d4       	rcall	.+2084   	; 0x958 <__stack+0x459>
     134:	9a 4a       	sbci	r25, 0xAA	; 170
     136:	84 12       	cpse	r8, r20
     138:	a1 44       	sbci	r26, 0x41	; 65
     13a:	48 16       	cp	r4, r24
     13c:	4f 25       	eor	r20, r15
     13e:	42 91       	ld	r20, -Z
     140:	84 36       	cpi	r24, 0x64	; 100
     142:	91 89       	ldd	r25, Z+17	; 0x11
     144:	26 24       	eor	r2, r6
     146:	92 00       	.word	0x0092	; ????
     148:	27 08       	sbc	r2, r7
     14a:	52 18       	sub	r5, r2
     14c:	d5 38       	cpi	r29, 0x85	; 133
     14e:	48 00       	.word	0x0048	; ????
     150:	28 0d       	add	r18, r8
     152:	d5 16       	cp	r13, r21
     154:	d4 13       	cpse	r29, r20
     156:	a9 89       	ldd	r26, Y+17	; 0x11
     158:	64 3a       	cpi	r22, 0xA4	; 164
     15a:	ca 84       	ldd	r12, Y+10	; 0x0a
     15c:	0a 29       	or	r16, r10
     15e:	0e d5       	rcall	.+2588   	; 0xb7c <__stack+0x67d>
     160:	14 d4       	rcall	.+2088   	; 0x98a <__stack+0x48b>
     162:	10 aa       	std	Z+48, r1	; 0x30
     164:	09 65       	ori	r16, 0x59	; 89
     166:	3a c9       	rjmp	.-3468   	; 0xfffff3dc <__eeprom_end+0xff7ef3dc>
     168:	44 6a       	ori	r20, 0xA4	; 164
     16a:	00 2a       	or	r0, r16
     16c:	0e 78       	andi	r16, 0x8E	; 142
     16e:	72 d4       	rcall	.+2276   	; 0xa54 <__stack+0x555>
     170:	11 69       	ori	r17, 0x91	; 145
     172:	23 1d       	adc	r18, r3
     174:	42 34       	cpi	r20, 0x42	; 66
     176:	91 16       	cp	r9, r17
     178:	00 2b       	or	r16, r16
     17a:	0c 78       	andi	r16, 0x8C	; 140
     17c:	72 d4       	rcall	.+2276   	; 0xa62 <__stack+0x563>
     17e:	13 ab       	std	Z+51, r17	; 0x33
     180:	1d 62       	ori	r17, 0x2D	; 45
     182:	62 35       	cpi	r22, 0x52	; 82
     184:	00 2c       	mov	r0, r0
     186:	08 34       	cpi	r16, 0x48	; 72
     188:	f6 d3       	rcall	.+2028   	; 0x976 <__stack+0x477>
     18a:	99 58       	subi	r25, 0x89	; 137
     18c:	00 2d       	mov	r16, r0
     18e:	07 18       	sub	r0, r7
     190:	d2 d4       	rcall	.+2468   	; 0xb36 <__stack+0x637>
     192:	38 04       	cpc	r3, r8
     194:	2e 07       	cpc	r18, r30
     196:	33 18       	sub	r3, r3
     198:	d4 38       	cpi	r29, 0x84	; 132
     19a:	08 2f       	mov	r16, r24
     19c:	10 c7       	rjmp	.+3616   	; 0xfbe <__stack+0xabf>
     19e:	14 d4       	rcall	.+2088   	; 0x9c8 <__stack+0x4c9>
     1a0:	55 94       	asr	r5
     1a2:	0a a5       	ldd	r16, Y+42	; 0x2a
     1a4:	42 a9       	ldd	r20, Z+50	; 0x32
     1a6:	50 2a       	or	r5, r16
     1a8:	94 4a       	sbci	r25, 0xA4	; 164
     1aa:	01 30       	cpi	r16, 0x01	; 1
     1ac:	11 d8       	rcall	.-4062   	; 0xfffff1d0 <__eeprom_end+0xff7ef1d0>
     1ae:	12 d4       	rcall	.+2084   	; 0x9d4 <__stack+0x4d5>
     1b0:	93 d2       	rcall	.+1318   	; 0x6d8 <__stack+0x1d9>
     1b2:	44 5a       	subi	r20, 0xA4	; 164
     1b4:	84 3c       	cpi	r24, 0xC4	; 196
     1b6:	4a 44       	sbci	r20, 0x4A	; 74
     1b8:	da a8       	ldd	r13, Y+50	; 0x32
     1ba:	32 00       	.word	0x0032	; ????
     1bc:	31 0d       	add	r19, r1
     1be:	d8 12       	cpse	r13, r24
     1c0:	d4 93       	xch	Z, r29
     1c2:	0e 69       	ori	r16, 0x9E	; 158
     1c4:	12 b1       	in	r17, 0x02	; 2
     1c6:	fe 76       	andi	r31, 0x6E	; 110
     1c8:	08 32       	cpi	r16, 0x28	; 40
     1ca:	12 d8       	rcall	.-4060   	; 0xfffff1f0 <__eeprom_end+0xff7ef1f0>
     1cc:	12 d4       	rcall	.+2084   	; 0x9f2 <__stack+0x4f3>
     1ce:	a2 89       	ldd	r26, Z+18	; 0x12
     1d0:	24 42       	sbci	r18, 0x24	; 36
     1d2:	a2 58       	subi	r26, 0x82	; 130
     1d4:	55 38       	cpi	r21, 0x85	; 133
     1d6:	94 2a       	or	r9, r20
     1d8:	8b 0f       	add	r24, r27
     1da:	01 33       	cpi	r16, 0x31	; 49
     1dc:	16 d8       	rcall	.-4052   	; 0xfffff20a <__eeprom_end+0xff7ef20a>
     1de:	12 d4       	rcall	.+2084   	; 0xa04 <__stack+0x505>
     1e0:	a2 89       	ldd	r26, Z+18	; 0x12
     1e2:	24 42       	sbci	r18, 0x24	; 36
     1e4:	a2 58       	subi	r26, 0x82	; 130
     1e6:	2a 9c       	mul	r2, r10
     1e8:	03 e4       	ldi	r16, 0x43	; 67
     1ea:	00 22       	and	r0, r16
     1ec:	51 22       	and	r5, r17
     1ee:	92 91       	ld	r25, -Z
     1f0:	00 34       	cpi	r16, 0x40	; 64
     1f2:	14 d8       	rcall	.-4056   	; 0xfffff21c <__eeprom_end+0xff7ef21c>
     1f4:	12 d4       	rcall	.+2084   	; 0xa1a <__stack+0x51b>
     1f6:	0e 4b       	sbci	r16, 0xBE	; 190
     1f8:	87 34       	cpi	r24, 0x47	; 71
     1fa:	89 48       	sbci	r24, 0x89	; 137
     1fc:	45 26       	eor	r4, r21
     1fe:	91 49       	sbci	r25, 0x91	; 145
     200:	0e 51       	subi	r16, 0x1E	; 30
     202:	b1 16       	cp	r11, r17
     204:	00 35       	cpi	r16, 0x50	; 80
     206:	13 d8       	rcall	.-4058   	; 0xfffff22e <__eeprom_end+0xff7ef22e>
     208:	12 d4       	rcall	.+2084   	; 0xa2e <__stack+0x52f>
     20a:	38 8c       	ldd	r3, Y+24	; 0x18
     20c:	75 19       	sub	r23, r5
     20e:	8d e4       	ldi	r24, 0x4D	; 77
     210:	00 b1       	in	r16, 0x00	; 0
     212:	98 28       	or	r9, r8
     214:	11 c9       	rjmp	.-3550   	; 0xfffff438 <__eeprom_end+0xff7ef438>
     216:	48 00       	.word	0x0048	; ????
     218:	36 15       	cp	r19, r6
     21a:	d8 12       	cpse	r13, r24
     21c:	d4 a2       	std	Z+36, r13	; 0x24
     21e:	89 24       	eor	r8, r9
     220:	c2 88       	ldd	r12, Z+18	; 0x12
     222:	58 65       	ori	r21, 0x58	; 88
     224:	34 92       	xch	Z, r3
     226:	08 39       	cpi	r16, 0x98	; 152
     228:	4a 44       	sbci	r20, 0x4A	; 74
     22a:	32 12       	cpse	r3, r18
     22c:	00 37       	cpi	r16, 0x70	; 112
     22e:	12 d8       	rcall	.-4060   	; 0xfffff254 <__eeprom_end+0xff7ef254>
     230:	12 d4       	rcall	.+2084   	; 0xa56 <__stack+0x557>
     232:	38 84       	ldd	r3, Y+8	; 0x08
     234:	55 c5       	rjmp	.+2730   	; 0xce0 <__stack+0x7e1>
     236:	52 b1       	in	r21, 0x02	; 2
     238:	54 2c       	mov	r5, r4
     23a:	15 4b       	sbci	r17, 0xB5	; 181
     23c:	c5 52       	subi	r28, 0x25	; 37
     23e:	00 38       	cpi	r16, 0x80	; 128
     240:	15 d8       	rcall	.-4054   	; 0xfffff26c <__eeprom_end+0xff7ef26c>
     242:	12 d4       	rcall	.+2084   	; 0xa68 <__stack+0x569>
     244:	a2 89       	ldd	r26, Z+18	; 0x12
     246:	24 42       	sbci	r18, 0x24	; 36
     248:	46 89       	ldd	r20, Z+22	; 0x16
     24a:	48 46       	sbci	r20, 0x68	; 104
     24c:	13 49       	sbci	r17, 0x93	; 147
     24e:	84 8c       	ldd	r8, Z+28	; 0x1c
     250:	12 91       	ld	r17, -Z
     252:	8c 04       	cpc	r8, r12
     254:	39 14       	cp	r3, r9
     256:	d8 12       	cpse	r13, r24
     258:	d4 a2       	std	Z+36, r13	; 0x24
     25a:	89 24       	eor	r8, r9
     25c:	42 8e       	std	Z+26, r4	; 0x1a
     25e:	12 d1       	rcall	.+548    	; 0x484 <__LOCK_REGION_LENGTH__+0x84>
     260:	8a 58       	subi	r24, 0x8A	; 138
     262:	25 28       	or	r2, r5
     264:	11 c9       	rjmp	.-3550   	; 0xfffff488 <__eeprom_end+0xff7ef488>
     266:	48 00       	.word	0x0048	; ????
     268:	3a 08       	sbc	r3, r10
     26a:	83 18       	sub	r8, r3
     26c:	d4 b0       	in	r13, 0x04	; 4
     26e:	43 0d       	add	r20, r3
     270:	3b 0a       	sbc	r3, r27
     272:	94 f6       	brge	.-92     	; 0x218 <__trampolines_end+0x160>
     274:	d3 59       	subi	r29, 0x93	; 147
     276:	47 9b       	sbis	0x08, 7	; 8
     278:	58 00       	.word	0x0058	; ????
     27a:	3c 0b       	sbc	r19, r28
     27c:	d7 12       	cpse	r13, r23
     27e:	d4 8e       	std	Z+28, r13	; 0x1c
     280:	0a f5       	brpl	.+66     	; 0x2c4 <__trampolines_end+0x20c>
     282:	ac e7       	ldi	r26, 0x7C	; 124
     284:	00 3d       	cpi	r16, 0xD0	; 208
     286:	0a 68       	ori	r16, 0x8A	; 138
     288:	72 d4       	rcall	.+2276   	; 0xb6e <__stack+0x66f>
     28a:	38 c4       	rjmp	.+2160   	; 0xafc <__stack+0x5fd>
     28c:	71 3c       	cpi	r23, 0xC1	; 193
     28e:	04 3e       	cpi	r16, 0xE4	; 228
     290:	0b d7       	rcall	.+3606   	; 0x10a8 <__stack+0xba9>
     292:	14 d4       	rcall	.+2088   	; 0xabc <__stack+0x5bd>
     294:	08 eb       	ldi	r16, 0xB8	; 184
     296:	a3 5e       	subi	r26, 0xE3	; 227
     298:	c3 00       	.word	0x00c3	; ????
     29a:	3f 11       	cpse	r19, r15
     29c:	d8 12       	cpse	r13, r24
     29e:	d4 a2       	std	Z+36, r13	; 0x24
     2a0:	89 24       	eor	r8, r9
     2a2:	42 46       	sbci	r20, 0x62	; 98
     2a4:	a9 66       	ori	r26, 0x69	; 105
     2a6:	75 04       	cpc	r7, r5
     2a8:	b1 0c       	add	r11, r1
     2aa:	00 40       	sbci	r16, 0x00	; 0
     2ac:	17 d8       	rcall	.-4050   	; 0xfffff2dc <__eeprom_end+0xff7ef2dc>
     2ae:	12 d4       	rcall	.+2084   	; 0xad4 <__stack+0x5d5>
     2b0:	a2 89       	ldd	r26, Z+18	; 0x12
     2b2:	24 42       	sbci	r18, 0x24	; 36
     2b4:	92 e5       	ldi	r25, 0x52	; 82
     2b6:	22 a1       	ldd	r18, Z+34	; 0x22
     2b8:	48 28       	or	r4, r8
     2ba:	12 16       	cp	r1, r18
     2bc:	91 3a       	cpi	r25, 0xA1	; 161
     2be:	40 26       	eor	r4, r16
     2c0:	aa 00       	.word	0x00aa	; ????
     2c2:	41 0f       	add	r20, r17
     2c4:	d8 12       	cpse	r13, r24
     2c6:	d4 93       	xch	Z, r29
     2c8:	d2 44       	sbci	r29, 0x42	; 66
     2ca:	5a 84       	ldd	r5, Y+10	; 0x0a
     2cc:	8c 87       	std	Y+12, r24	; 0x0c
     2ce:	22 8f       	std	Z+26, r18	; 0x1a
     2d0:	02 42       	sbci	r16, 0x22	; 34
     2d2:	16 d8       	rcall	.-4052   	; 0xfffff300 <__eeprom_end+0xff7ef300>
     2d4:	12 d4       	rcall	.+2084   	; 0xafa <__stack+0x5fb>
     2d6:	a8 89       	ldd	r26, Y+16	; 0x10
     2d8:	d4 24       	eor	r13, r4
     2da:	32 89       	ldd	r19, Z+18	; 0x12
     2dc:	4c 22       	and	r4, r28
     2de:	12 99       	sbic	0x02, 2	; 2
     2e0:	64 12       	cpse	r6, r20
     2e2:	21 37       	cpi	r18, 0x71	; 113
     2e4:	89 09       	sbc	r24, r9
     2e6:	00 43       	sbci	r16, 0x30	; 48
     2e8:	10 d8       	rcall	.-4064   	; 0xfffff30a <__eeprom_end+0xff7ef30a>
     2ea:	12 d4       	rcall	.+2084   	; 0xb10 <__stack+0x611>
     2ec:	a2 89       	ldd	r26, Z+18	; 0x12
     2ee:	24 42       	sbci	r18, 0x24	; 36
     2f0:	b2 7e       	andi	r27, 0xE2	; 226
     2f2:	94 88       	ldd	r9, Z+20	; 0x14
     2f4:	64 24       	eor	r6, r4
     2f6:	00 44       	sbci	r16, 0x40	; 64
     2f8:	0d d8       	rcall	.-4070   	; 0xfffff314 <__eeprom_end+0xff7ef314>
     2fa:	12 d4       	rcall	.+2084   	; 0xb20 <__stack+0x621>
     2fc:	30 c9       	rjmp	.-3488   	; 0xfffff55e <__eeprom_end+0xff7ef55e>
     2fe:	24 42       	sbci	r18, 0x24	; 36
     300:	fe 9b       	sbis	0x1f, 6	; 31
     302:	c4 04       	cpc	r12, r4
     304:	45 0d       	add	r20, r5
     306:	d8 12       	cpse	r13, r24
     308:	d4 38       	cpi	r29, 0x84	; 132
     30a:	8c 75       	andi	r24, 0x5C	; 92
     30c:	36 89       	ldd	r19, Z+22	; 0x16
     30e:	75 3e       	cpi	r23, 0xE5	; 229
     310:	04 46       	sbci	r16, 0x64	; 100
     312:	0c d8       	rcall	.-4072   	; 0xfffff32c <__eeprom_end+0xff7ef32c>
     314:	12 d4       	rcall	.+2084   	; 0xb3a <__stack+0x63b>
     316:	38 8c       	ldd	r3, Y+24	; 0x18
     318:	75 36       	cpi	r23, 0x65	; 101
     31a:	89 f5       	brne	.+98     	; 0x37e <__trampolines_end+0x2c6>
     31c:	0c 47       	sbci	r16, 0x7C	; 124
     31e:	11 d8       	rcall	.-4062   	; 0xfffff342 <__eeprom_end+0xff7ef342>
     320:	12 d4       	rcall	.+2084   	; 0xb46 <__stack+0x647>
     322:	a2 89       	ldd	r26, Z+18	; 0x12
     324:	24 42       	sbci	r18, 0x24	; 36
     326:	b2 26       	eor	r11, r18
     328:	23 47       	sbci	r18, 0x73	; 115
     32a:	89 68       	ori	r24, 0x89	; 137
     32c:	44 09       	sbc	r20, r4
     32e:	48 0c       	add	r4, r8
     330:	d8 12       	cpse	r13, r24
     332:	d4 10       	cpse	r13, r4
     334:	f2 f1       	brmi	.+124    	; 0x3b2 <__trampolines_end+0x2fa>
     336:	50 e4       	ldi	r21, 0x40	; 64
     338:	a3 00       	.word	0x00a3	; ????
     33a:	49 0c       	add	r4, r9
     33c:	d8 12       	cpse	r13, r24
     33e:	d4 38       	cpi	r29, 0x84	; 132
     340:	c4 c4       	rjmp	.+2440   	; 0xcca <__stack+0x7cb>
     342:	fa 6f       	ori	r31, 0xFA	; 250
     344:	87 00       	.word	0x0087	; ????
     346:	4a 1a       	sub	r4, r26
     348:	d9 12       	cpse	r13, r25
     34a:	d4 b3       	in	r29, 0x14	; 20
     34c:	ca 01       	movw	r24, r20
     34e:	72 80       	ldd	r7, Z+2	; 0x02
     350:	1c 20       	and	r1, r12
     352:	07 c8       	rjmp	.-4082   	; 0xfffff362 <__eeprom_end+0xff7ef362>
     354:	01 72       	andi	r16, 0x21	; 33
     356:	80 1c       	adc	r8, r0
     358:	20 92 89 64 	sts	0x6489, r2	; 0x806489 <__bss_end+0x60de>
     35c:	2a d2       	rcall	.+1108   	; 0x7b2 <__stack+0x2b3>
     35e:	21 00       	.word	0x0021	; ????
     360:	4b 14       	cp	r4, r11
     362:	d8 12       	cpse	r13, r24
     364:	d4 10       	cpse	r13, r4
     366:	b2 49       	sbci	r27, 0x92	; 146
     368:	64 12       	cpse	r6, r20
     36a:	91 a6       	std	Z+41, r9	; 0x29
     36c:	9a 48       	sbci	r25, 0x8A	; 138
     36e:	37 89       	ldd	r19, Z+23	; 0x17
     370:	4c 22       	and	r4, r28
     372:	24 0a       	sbc	r2, r20
     374:	4c 0a       	sbc	r4, r28
     376:	d8 12       	cpse	r13, r24
     378:	d4 10       	cpse	r13, r4
     37a:	eb 7f       	andi	r30, 0xFB	; 251
     37c:	3e 04       	cpc	r3, r14
     37e:	4d 14       	cp	r4, r13
     380:	d8 12       	cpse	r13, r24
     382:	d4 10       	cpse	r13, r4
     384:	12 4b       	sbci	r17, 0xB2	; 178
     386:	a6 83       	std	Z+6, r26	; 0x06
     388:	45 42       	sbci	r20, 0x25	; 37
     38a:	91 50       	subi	r25, 0x01	; 1
     38c:	24 14       	cp	r2, r4
     38e:	09 91       	ld	r16, Y+
     390:	a3 00       	.word	0x00a3	; ????
     392:	4e 12       	cpse	r4, r30
     394:	d8 12       	cpse	r13, r24
     396:	d4 10       	cpse	r13, r4
     398:	d6 6a       	ori	r29, 0xA6	; 166
     39a:	26 13       	cpse	r18, r22
     39c:	45 42       	sbci	r20, 0x25	; 37
     39e:	91 90       	ld	r9, Z+
     3a0:	dc 1a       	sub	r13, r28
     3a2:	89 02       	muls	r24, r25
     3a4:	4f 0f       	add	r20, r31
     3a6:	d8 12       	cpse	r13, r24
     3a8:	d4 a2       	std	Z+36, r13	; 0x24
     3aa:	89 24       	eor	r8, r9
     3ac:	42 fe       	sbrs	r4, 2
     3ae:	51 22       	and	r5, r17
     3b0:	92 91       	ld	r25, -Z
     3b2:	00 50       	subi	r16, 0x00	; 0
     3b4:	0f d8       	rcall	.-4066   	; 0xfffff3d4 <__eeprom_end+0xff7ef3d4>
     3b6:	12 d4       	rcall	.+2084   	; 0xbdc <__stack+0x6dd>
     3b8:	30 c9       	rjmp	.-3488   	; 0xfffff61a <__eeprom_end+0xff7ef61a>
     3ba:	24 42       	sbci	r18, 0x24	; 36
     3bc:	de 24       	eor	r13, r14
     3be:	26 b1       	in	r18, 0x06	; 6
     3c0:	ce 00       	.word	0x00ce	; ????
     3c2:	51 12       	cpse	r5, r17
     3c4:	e8 f2       	brcs	.-70     	; 0x380 <__trampolines_end+0x2c8>
     3c6:	d3 a2       	std	Z+35, r13	; 0x23
     3c8:	89 24       	eor	r8, r9
     3ca:	42 fe       	sbrs	r4, 2
     3cc:	22 21       	and	r18, r2
     3ce:	51 44       	sbci	r21, 0x41	; 65
     3d0:	b2 3a       	cpi	r27, 0xA2	; 162
     3d2:	40 00       	.word	0x0040	; ????
     3d4:	52 12       	cpse	r5, r18
     3d6:	d8 12       	cpse	r13, r24
     3d8:	d4 30       	cpi	r29, 0x04	; 4
     3da:	c9 24       	eor	r12, r9
     3dc:	42 de       	rcall	.-892    	; 0x62 <__SREG__+0x23>
     3de:	24 26       	eor	r2, r20
     3e0:	6d 12       	cpse	r6, r29
     3e2:	99 44       	sbci	r25, 0x49	; 73
     3e4:	48 14       	cp	r4, r8
     3e6:	53 17       	cp	r21, r19
     3e8:	d8 12       	cpse	r13, r24
     3ea:	d4 a2       	std	Z+36, r13	; 0x24
     3ec:	89 24       	eor	r8, r9
     3ee:	42 b2       	in	r4, 0x12	; 18
     3f0:	1c 20       	and	r1, r12
     3f2:	07 d0       	rcall	.+14     	; 0x402 <__LOCK_REGION_LENGTH__+0x2>
     3f4:	01 72       	andi	r16, 0x21	; 33
     3f6:	80 98       	cbi	0x10, 0	; 16
     3f8:	28 11       	cpse	r18, r8
     3fa:	c9 48       	sbci	r28, 0x89	; 137
     3fc:	00 54       	subi	r16, 0x40	; 64
     3fe:	0b d8       	rcall	.-4074   	; 0xfffff416 <__eeprom_end+0xff7ef416>
     400:	12 d4       	rcall	.+2084   	; 0xc26 <__stack+0x727>
     402:	38 c4       	rjmp	.+2160   	; 0xc74 <__stack+0x775>
     404:	c4 fa       	bst	r12, 4
     406:	df 00       	.word	0x00df	; ????
     408:	55 0d       	add	r21, r5
     40a:	d8 12       	cpse	r13, r24
     40c:	d4 10       	cpse	r13, r4
     40e:	f2 3f       	cpi	r31, 0xF2	; 242
     410:	4a 44       	sbci	r20, 0x4A	; 74
     412:	32 12       	cpse	r3, r18
     414:	00 56       	subi	r16, 0x60	; 96
     416:	0f d8       	rcall	.-4066   	; 0xfffff436 <__eeprom_end+0xff7ef436>
     418:	12 d4       	rcall	.+2084   	; 0xc3e <__stack+0x73f>
     41a:	10 72       	andi	r17, 0x20	; 32
     41c:	94 88       	ldd	r9, Z+20	; 0x14
     41e:	f4 46       	sbci	r31, 0x64	; 100
     420:	64 15       	cp	r22, r4
     422:	ab 01       	movw	r20, r22
     424:	57 12       	cpse	r5, r23
     426:	d8 12       	cpse	r13, r24
     428:	d4 10       	cpse	r13, r4
     42a:	f2 45       	sbci	r31, 0x52	; 82
     42c:	42 91       	ld	r20, -Z
     42e:	50 24       	eor	r5, r0
     430:	14 49       	sbci	r17, 0x94	; 148
     432:	c9 54       	subi	r28, 0x49	; 73
     434:	24 0a       	sbc	r2, r20
     436:	58 13       	cpse	r21, r24
     438:	d8 12       	cpse	r13, r24
     43a:	d4 10       	cpse	r13, r4
     43c:	12 25       	eor	r17, r2
     43e:	22 6d       	ori	r18, 0xD2	; 210
     440:	44 aa       	std	Z+52, r4	; 0x34
     442:	94 48       	sbci	r25, 0x84	; 132
     444:	13 69       	ori	r17, 0x93	; 147
     446:	11 12       	cpse	r1, r17
     448:	05 59       	subi	r16, 0x95	; 149
     44a:	0f d8       	rcall	.-4066   	; 0xfffff46a <__eeprom_end+0xff7ef46a>
     44c:	12 d4       	rcall	.+2084   	; 0xc72 <__stack+0x773>
     44e:	10 12       	cpse	r1, r16
     450:	25 22       	and	r2, r21
     452:	6d 44       	sbci	r22, 0x4D	; 77
     454:	aa 58       	subi	r26, 0x8A	; 138
     456:	df 00       	.word	0x00df	; ????
     458:	5a 10       	cpse	r5, r10
     45a:	d8 12       	cpse	r13, r24
     45c:	d4 38       	cpi	r29, 0x84	; 132
     45e:	84 55       	subi	r24, 0x54	; 84
     460:	95 a5       	ldd	r25, Z+45	; 0x2d
     462:	ca 52       	subi	r28, 0x2A	; 42
     464:	65 f1       	brhs	.+88     	; 0x4be <__LOCK_REGION_LENGTH__+0xbe>
     466:	21 00       	.word	0x0021	; ????
     468:	5b 0a       	sbc	r5, r27
     46a:	d6 14       	cp	r13, r6
     46c:	d4 38       	cpi	r29, 0x84	; 132
     46e:	04 f5       	brge	.+64     	; 0x4b0 <__LOCK_REGION_LENGTH__+0xb0>
     470:	1f 0d       	add	r17, r15
     472:	5c 10       	cpse	r5, r12
     474:	c7 14       	cp	r12, r7
     476:	d4 90       	lpm	r13, Z
     478:	8a a5       	ldd	r24, Y+42	; 0x2a
     47a:	62 a9       	ldd	r22, Z+50	; 0x32
     47c:	58 2a       	or	r5, r24
     47e:	96 8a       	std	Z+22, r9	; 0x16
     480:	a5 02       	muls	r26, r21
     482:	5d 0a       	sbc	r5, r29
     484:	d6 14       	cp	r13, r6
     486:	d4 30       	cpi	r29, 0x04	; 4
     488:	ea 3f       	cpi	r30, 0xFA	; 250
     48a:	1e 02       	muls	r17, r30
     48c:	5e 0b       	sbc	r21, r30
     48e:	48 32       	cpi	r20, 0x28	; 40
     490:	d5 93       	las	Z, r29
     492:	d2 44       	sbci	r29, 0x42	; 66
     494:	12 a1       	ldd	r17, Z+34	; 0x22
     496:	00 5f       	subi	r16, 0xF0	; 240
     498:	07 19       	sub	r16, r7
     49a:	f2 d3       	rcall	.+2020   	; 0xc80 <__stack+0x781>
     49c:	38 08       	sbc	r3, r8
     49e:	60 07       	cpc	r22, r16
     4a0:	34 56       	subi	r19, 0x64	; 100
     4a2:	d5 90       	lpm	r13, Z+
     4a4:	29 61       	ori	r18, 0x19	; 25
     4a6:	0e 88       	ldd	r0, Y+22	; 0x16
     4a8:	12 d4       	rcall	.+2084   	; 0xcce <__stack+0x7cf>
     4aa:	2a c9       	rjmp	.-3500   	; 0xfffff700 <__eeprom_end+0xff7ef700>
     4ac:	c4 92       	xch	Z, r12
     4ae:	83 90       	.word	0x9083	; ????
     4b0:	51 52       	subi	r21, 0x21	; 33
     4b2:	09 62       	ori	r16, 0x29	; 41
     4b4:	11 d8       	rcall	.-4062   	; 0xfffff4d8 <__eeprom_end+0xff7ef4d8>
     4b6:	12 d4       	rcall	.+2084   	; 0xcdc <__stack+0x7dd>
     4b8:	10 eb       	ldi	r17, 0xB0	; 176
     4ba:	65 34       	cpi	r22, 0x45	; 69
     4bc:	92 08       	sbc	r9, r2
     4be:	39 96       	adiw	r30, 0x09	; 9
     4c0:	24 92       	xch	Z, r2
     4c2:	11 00       	.word	0x0011	; ????
     4c4:	63 0e       	add	r6, r19
     4c6:	88 12       	cpse	r8, r24
     4c8:	d4 2a       	or	r13, r20
     4ca:	c9 c8       	rjmp	.-3694   	; 0xfffff65e <__eeprom_end+0xff7ef65e>
     4cc:	da 01       	movw	r26, r20
     4ce:	32 51       	subi	r19, 0x12	; 18
     4d0:	05 00       	.word	0x0005	; ????
     4d2:	64 0e       	add	r6, r20
     4d4:	d8 12       	cpse	r13, r24
     4d6:	d4 d6       	rcall	.+3496   	; 0x1280 <__stack+0xd81>
     4d8:	d3 44       	sbci	r29, 0x43	; 67
     4da:	a9 c8       	rjmp	.-3758   	; 0xfffff62e <__eeprom_end+0xff7ef62e>
     4dc:	51 22       	and	r5, r17
     4de:	5a 11       	cpse	r21, r10
     4e0:	65 10       	cpse	r6, r5
     4e2:	88 12       	cpse	r8, r24
     4e4:	d4 a2       	std	Z+36, r13	; 0x24
     4e6:	89 24       	eor	r8, r9
     4e8:	c2 43       	sbci	r28, 0x32	; 50
     4ea:	59 0e       	add	r5, r25
     4ec:	90 89       	ldd	r25, Z+16	; 0x10
     4ee:	2a 00       	.word	0x002a	; ????
     4f0:	66 0d       	add	r22, r6
     4f2:	d8 12       	cpse	r13, r24
     4f4:	d4 a3       	std	Z+36, r29	; 0x24
     4f6:	89 74       	andi	r24, 0x49	; 73
     4f8:	16 1a       	sub	r1, r22
     4fa:	c5 fa       	bst	r12, 5
     4fc:	08 67       	ori	r16, 0x78	; 120
     4fe:	14 c8       	rjmp	.-4056   	; 0xfffff528 <__eeprom_end+0xff7ef528>
     500:	92 d3       	rcall	.+1828   	; 0xc26 <__stack+0x727>
     502:	a9 cc       	rjmp	.-1710   	; 0xfffffe56 <__eeprom_end+0xff7efe56>
     504:	6a 12       	cpse	r6, r26
     506:	99 44       	sbci	r25, 0x49	; 73
     508:	26 2a       	or	r2, r22
     50a:	c9 01       	movw	r24, r18
     50c:	16 21       	and	r17, r6
     50e:	a3 c4       	rjmp	.+2374   	; 0xe56 <__stack+0x957>
     510:	02 68       	ori	r16, 0x82	; 130
     512:	0d d8       	rcall	.-4070   	; 0xfffff52e <__eeprom_end+0xff7ef52e>
     514:	12 d4       	rcall	.+2084   	; 0xd3a <__stack+0x83b>
     516:	10 eb       	ldi	r17, 0xB0	; 176
     518:	65 34       	cpi	r22, 0x45	; 69
     51a:	92 08       	sbc	r9, r2
     51c:	f9 28       	or	r15, r9
     51e:	69 0c       	add	r6, r9
     520:	b8 12       	cpse	r11, r24
     522:	d4 13       	cpse	r29, r20
     524:	cb a1       	ldd	r28, Y+35	; 0x23
     526:	64 7d       	andi	r22, 0xD4	; 212
     528:	3b 04       	cpc	r3, r11
     52a:	6a 0e       	add	r6, r26
     52c:	f7 94       	ror	r15
     52e:	d3 55       	subi	r29, 0x53	; 83
     530:	87 51       	subi	r24, 0x17	; 23
     532:	f5 95       	asr	r31
     534:	c6 26       	eor	r12, r22
     536:	a9 00       	.word	0x00a9	; ????
     538:	6b 12       	cpse	r6, r27
     53a:	d8 12       	cpse	r13, r24
     53c:	d4 10       	cpse	r13, r4
     53e:	eb 4d       	sbci	r30, 0xDB	; 219
     540:	22 52       	subi	r18, 0x22	; 34
     542:	91 11       	cpse	r25, r1
     544:	6b 22       	and	r6, r27
     546:	35 89       	ldd	r19, Z+21	; 0x15
     548:	50 00       	.word	0x0050	; ????
     54a:	6c 0a       	sbc	r6, r28
     54c:	d8 12       	cpse	r13, r24
     54e:	d4 21       	and	r29, r4
     550:	eb 7f       	andi	r30, 0xFB	; 251
     552:	3b 04       	cpc	r3, r11
     554:	6d 13       	cpse	r22, r29
     556:	88 12       	cpse	r8, r24
     558:	d4 88       	ldd	r13, Z+20	; 0x14
     55a:	a8 1c       	adc	r10, r8
     55c:	26 12       	cpse	r2, r22
     55e:	8a 84       	ldd	r8, Y+10	; 0x0a
     560:	22 a1       	ldd	r18, Z+34	; 0x22
     562:	48 28       	or	r4, r8
     564:	12 8a       	std	Z+18, r1	; 0x12
     566:	02 6e       	ori	r16, 0xE2	; 226
     568:	0c 88       	ldd	r0, Y+20	; 0x14
     56a:	12 d4       	rcall	.+2084   	; 0xd90 <__stack+0x891>
     56c:	90 8c       	ldd	r9, Z+24	; 0x18
     56e:	46 12       	cpse	r4, r22
     570:	21 1f       	adc	r18, r17
     572:	05 6f       	ori	r16, 0xF5	; 245
     574:	0e 88       	ldd	r0, Y+22	; 0x16
     576:	12 d4       	rcall	.+2084   	; 0xd9c <__stack+0x89d>
     578:	a2 89       	ldd	r26, Z+18	; 0x12
     57a:	24 42       	sbci	r18, 0x24	; 36
     57c:	8e 12       	cpse	r8, r30
     57e:	91 8c       	ldd	r9, Z+25	; 0x19
     580:	04 70       	andi	r16, 0x04	; 4
     582:	11 c8       	rjmp	.-4062   	; 0xfffff5a6 <__eeprom_end+0xff7ef5a6>
     584:	92 d3       	rcall	.+1828   	; 0xcaa <__stack+0x7ab>
     586:	90 8c       	ldd	r9, Z+24	; 0x18
     588:	46 12       	cpse	r4, r22
     58a:	21 c7       	rjmp	.+3650   	; 0x13ce <__stack+0xecf>
     58c:	92 44       	sbci	r25, 0x42	; 66
     58e:	32 12       	cpse	r3, r18
     590:	6b 06       	cpc	r6, r27
     592:	71 0e       	add	r7, r17
     594:	c8 92       	.word	0x92c8	; ????
     596:	d3 9a       	sbi	0x1a, 3	; 26
     598:	28 15       	cp	r18, r8
     59a:	39 4a       	sbci	r19, 0xA9	; 169
     59c:	44 2b       	or	r20, r20
     59e:	62 1d       	adc	r22, r2
     5a0:	72 0c       	add	r7, r2
     5a2:	88 12       	cpse	r8, r24
     5a4:	d4 90       	lpm	r13, Z
     5a6:	90 46       	sbci	r25, 0x60	; 96
     5a8:	12 b1       	in	r17, 0x02	; 2
     5aa:	5e 01       	movw	r10, r28
     5ac:	73 0f       	add	r23, r19
     5ae:	88 12       	cpse	r8, r24
     5b0:	d4 b1       	in	r29, 0x04	; 4
     5b2:	08 e9       	ldi	r16, 0x98	; 152
     5b4:	00 3b       	cpi	r16, 0xB0	; 176
     5b6:	40 4c       	sbci	r20, 0xC0	; 192
     5b8:	94 58       	subi	r25, 0x84	; 132
     5ba:	00 74       	andi	r16, 0x40	; 64
     5bc:	0d b8       	out	0x0d, r0	; 13
     5be:	12 d4       	rcall	.+2084   	; 0xde4 <__stack+0x8e5>
     5c0:	12 2b       	or	r17, r18
     5c2:	1a c5       	rjmp	.+2612   	; 0xff8 <__stack+0xaf9>
     5c4:	7a 92       	st	-Y, r7
     5c6:	51 00       	.word	0x0051	; ????
     5c8:	75 0b       	sbc	r23, r21
     5ca:	88 12       	cpse	r8, r24
     5cc:	d4 10       	cpse	r13, r4
     5ce:	f2 51       	subi	r31, 0x12	; 18
     5d0:	22 5a       	subi	r18, 0xA2	; 162
     5d2:	11 76       	andi	r17, 0x61	; 97
     5d4:	0e 88       	ldd	r0, Y+22	; 0x16
     5d6:	12 d4       	rcall	.+2084   	; 0xdfc <__stack+0x8fd>
     5d8:	10 12       	cpse	r1, r16
     5da:	25 22       	and	r2, r21
     5dc:	6d 44       	sbci	r22, 0x4D	; 77
     5de:	aa 58       	subi	r26, 0x8A	; 138
     5e0:	06 77       	andi	r16, 0x76	; 118
     5e2:	10 88       	ldd	r1, Z+16	; 0x10
     5e4:	12 d4       	rcall	.+2084   	; 0xe0a <__stack+0x90b>
     5e6:	10 72       	andi	r17, 0x20	; 32
     5e8:	91 50       	subi	r25, 0x01	; 1
     5ea:	24 14       	cp	r2, r4
     5ec:	c9 61       	ori	r28, 0x19	; 25
     5ee:	22 92       	st	-Z, r2
     5f0:	00 78       	andi	r16, 0x80	; 128
     5f2:	10 88       	ldd	r1, Z+16	; 0x10
     5f4:	12 d4       	rcall	.+2084   	; 0xe1a <__stack+0x91b>
     5f6:	10 4a       	sbci	r17, 0xA0	; 160
     5f8:	44 32       	cpi	r20, 0x24	; 36
     5fa:	aa 58       	subi	r26, 0x8A	; 138
     5fc:	4a 13       	cpse	r20, r26
     5fe:	49 84       	ldd	r4, Y+9	; 0x09
     600:	02 79       	andi	r16, 0x92	; 146
     602:	11 c8       	rjmp	.-4062   	; 0xfffff626 <__eeprom_end+0xff7ef626>
     604:	92 d3       	rcall	.+1828   	; 0xd2a <__stack+0x82b>
     606:	10 f2       	brcs	.-124    	; 0x58c <__stack+0x8d>
     608:	51 22       	and	r5, r17
     60a:	5a 11       	cpse	r21, r10
     60c:	13 25       	eor	r17, r3
     60e:	22 19       	sub	r18, r2
     610:	09 00       	.word	0x0009	; ????
     612:	7a 09       	sbc	r23, r10
     614:	87 14       	cp	r8, r7
     616:	d4 b8       	out	0x04, r13	; 4
     618:	0a f5       	brpl	.+66     	; 0x65c <__stack+0x15d>
     61a:	7a 7b       	andi	r23, 0xBA	; 186
     61c:	0e d8       	rcall	.-4068   	; 0xfffff63a <__eeprom_end+0xff7ef63a>
     61e:	12 d4       	rcall	.+2084   	; 0xe44 <__stack+0x945>
     620:	a4 89       	ldd	r26, Z+20	; 0x14
     622:	75 a3       	std	Z+37, r23	; 0x25
     624:	03 c4       	rjmp	.+2054   	; 0xe2c <__stack+0x92d>
     626:	ba 03       	fmulsu	r19, r18
     628:	08 7c       	andi	r16, 0xC8	; 200
     62a:	07 d2       	rcall	.+1038   	; 0xa3a <__stack+0x53b>
     62c:	18 d4       	rcall	.+2096   	; 0xe5e <__stack+0x95f>
     62e:	f8 50       	subi	r31, 0x08	; 8
     630:	7d 0f       	add	r23, r29
     632:	d8 12       	cpse	r13, r24
     634:	d4 a0       	ldd	r13, Z+36	; 0x24
     636:	03 c4       	rjmp	.+2054   	; 0xe3e <__stack+0x93f>
     638:	ba 03       	fmulsu	r19, r18
     63a:	68 62       	ori	r22, 0x28	; 40
     63c:	dd 88       	ldd	r13, Y+21	; 0x15
     63e:	00 7e       	andi	r16, 0xE0	; 224
     640:	0b 38       	cpi	r16, 0x8B	; 139
     642:	52 d5       	rcall	.+2724   	; 0x10e8 <__stack+0xbe9>
     644:	19 51       	subi	r17, 0x19	; 25
     646:	24 a4       	ldd	r2, Z+44	; 0x2c
     648:	09 00       	.word	0x0009	; ????
     64a:	00 00       	nop
     64c:	00 08       	sbc	r0, r0
     64e:	04 64       	ori	r16, 0x44	; 68
     650:	07 44       	sbci	r16, 0x47	; 71
     652:	ff ff       	.word	0xffff	; ????
     654:	04 00       	.word	0x0004	; ????
     656:	12 08       	sbc	r1, r2
     658:	13 d4       	rcall	.+2086   	; 0xe80 <__stack+0x981>
     65a:	99 03       	fmulsu	r17, r17
     65c:	e4 c0       	rjmp	.+456    	; 0x826 <__stack+0x327>
     65e:	c3 58       	subi	r28, 0x83	; 131
     660:	67 93       	lat	Z, r22
     662:	58 e7       	ldi	r21, 0x78	; 120
     664:	43 00       	.word	0x0043	; ????
     666:	04 01       	movw	r0, r8
     668:	11 08       	sbc	r1, r1
     66a:	13 d4       	rcall	.+2086   	; 0xe92 <__stack+0x993>
     66c:	11 69       	ori	r17, 0x91	; 145
     66e:	07 1d       	adc	r16, r7
     670:	c6 3a       	cpi	r28, 0xA6	; 166
     672:	9b c4       	rjmp	.+2358   	; 0xfaa <__stack+0xaab>
     674:	3a 1f       	adc	r19, r26
     676:	02 04       	cpc	r0, r2
     678:	02 20       	and	r0, r2
     67a:	f9 d0       	rcall	.+498    	; 0x86e <__stack+0x36f>
     67c:	d3 38       	cpi	r29, 0x83	; 131
     67e:	04 e5       	ldi	r16, 0x54	; 84
     680:	00 39       	cpi	r16, 0x90	; 144
     682:	40 0e       	add	r4, r16
     684:	28 8a       	std	Y+16, r2	; 0x10
     686:	64 22       	and	r6, r20
     688:	99 48       	sbci	r25, 0x89	; 137
     68a:	26 92       	lac	Z, r2
     68c:	89 64       	ori	r24, 0x49	; 73
     68e:	22 99       	sbic	0x04, 2	; 4
     690:	48 26       	eor	r4, r24
     692:	92 03       	fmuls	r17, r18
     694:	c4 12       	cpse	r12, r20
     696:	00 04       	cpc	r0, r0
     698:	03 0e       	add	r0, r19
     69a:	08 13       	cpse	r16, r24
     69c:	d4 1b       	sub	r29, r20
     69e:	ca a1       	ldd	r28, Y+34	; 0x22
     6a0:	87 b1       	in	r24, 0x07	; 7
     6a2:	fe 67       	ori	r31, 0x7E	; 126
     6a4:	00 04       	cpc	r0, r0
     6a6:	04 13       	cpse	r16, r20
     6a8:	d8 12       	cpse	r13, r24
     6aa:	d4 a2       	std	Z+36, r13	; 0x24
     6ac:	89 24       	eor	r8, r9
     6ae:	42 b2       	in	r4, 0x12	; 18
     6b0:	f2 45       	sbci	r31, 0x52	; 82
     6b2:	ac 51       	subi	r26, 0x1C	; 28
     6b4:	22 92       	st	-Z, r2
     6b6:	91 00       	.word	0x0091	; ????
     6b8:	04 05       	cpc	r16, r4
     6ba:	18 d8       	rcall	.-4048   	; 0xfffff6ec <__eeprom_end+0xff7ef6ec>
     6bc:	12 d4       	rcall	.+2084   	; 0xee2 <__stack+0x9e3>
     6be:	a2 89       	ldd	r26, Z+18	; 0x12
     6c0:	24 42       	sbci	r18, 0x24	; 36
     6c2:	b2 1c       	adc	r11, r2
     6c4:	20 07       	cpc	r18, r16
     6c6:	d0 01       	movw	r26, r0
     6c8:	72 80       	ldd	r7, Z+2	; 0x02
     6ca:	98 28       	or	r9, r8
     6cc:	11 c9       	rjmp	.-3550   	; 0xfffff8f0 <__eeprom_end+0xff7ef8f0>
     6ce:	48 00       	.word	0x0048	; ????
     6d0:	04 06       	cpc	r0, r20
     6d2:	0d d8       	rcall	.-4070   	; 0xfffff6ee <__eeprom_end+0xff7ef6ee>
     6d4:	12 d4       	rcall	.+2084   	; 0xefa <__stack+0x9fb>
     6d6:	38 c4       	rjmp	.+2160   	; 0xf48 <__stack+0xa49>
     6d8:	c4 fa       	bst	r12, 4
     6da:	6f 87       	std	Y+15, r22	; 0x0f
     6dc:	00 04       	cpc	r0, r0
     6de:	07 10       	cpse	r0, r7
     6e0:	08 13       	cpse	r16, r24
     6e2:	d4 11       	cpse	r29, r4
     6e4:	69 07       	cpc	r22, r25
     6e6:	1d 62       	ori	r17, 0x2D	; 45
     6e8:	62 fd       	sbrc	r22, 2
     6ea:	b7 43       	sbci	r27, 0x37	; 55
     6ec:	00 04       	cpc	r0, r0
     6ee:	08 0f       	add	r16, r24
     6f0:	d8 12       	cpse	r13, r24
     6f2:	d4 2b       	or	r29, r20
     6f4:	eb 67       	ori	r30, 0x7B	; 123
     6f6:	22 51       	subi	r18, 0x12	; 18
     6f8:	22 92       	st	-Z, r2
     6fa:	91 00       	.word	0x0091	; ????
     6fc:	04 09       	sbc	r16, r4
     6fe:	19 d9       	rcall	.-3534   	; 0xfffff932 <__eeprom_end+0xff7ef932>
     700:	10 d4       	rcall	.+2080   	; 0xf22 <__stack+0xa23>
     702:	29 4a       	sbci	r18, 0xA9	; 169
     704:	84 12       	cpse	r8, r20
     706:	a1 44       	sbci	r26, 0x41	; 65
     708:	28 11       	cpse	r18, r8
     70a:	4a 48       	sbci	r20, 0x8A	; 138
     70c:	12 49       	sbci	r17, 0x92	; 146
     70e:	48 a2       	std	Y+32, r4	; 0x20
     710:	ff 97       	sbiw	r30, 0x3f	; 63
     712:	88 88       	ldd	r8, Y+16	; 0x10
     714:	02 04       	cpc	r0, r2
     716:	0a 1d       	adc	r16, r10
     718:	d8 12       	cpse	r13, r24
     71a:	d4 90       	lpm	r13, Z
     71c:	c8 24       	eor	r12, r8
     71e:	32 89       	ldd	r19, Z+18	; 0x12
     720:	4c 22       	and	r4, r28
     722:	93 c8       	rjmp	.-3802   	; 0xfffff84a <__eeprom_end+0xff7ef84a>
     724:	24 b2       	in	r2, 0x14	; 20
     726:	8b 4a       	sbci	r24, 0xAB	; 171
     728:	44 85       	ldd	r20, Z+12	; 0x0c
     72a:	22 a1       	ldd	r18, Z+34	; 0x22
     72c:	48 28       	or	r4, r8
     72e:	92 88       	ldd	r9, Z+18	; 0x12
     730:	84 02       	muls	r24, r20
     732:	04 0b       	sbc	r16, r20
     734:	1d d9       	rcall	.-3526   	; 0xfffff970 <__eeprom_end+0xff7ef970>
     736:	10 d4       	rcall	.+2080   	; 0xf58 <__stack+0xa59>
     738:	38 04       	cpc	r3, r8
     73a:	e5 00       	.word	0x00e5	; ????
     73c:	39 40       	sbci	r19, 0x09	; 9
     73e:	0e 90       	ld	r0, -X
     740:	08 27       	eor	r16, r24
     742:	32 91       	ld	r19, -Z
     744:	4c 24       	eor	r4, r12
     746:	13 c9       	rjmp	.-3546   	; 0xfffff96e <__eeprom_end+0xff7ef96e>
     748:	44 32       	cpi	r20, 0x24	; 36
     74a:	91 4c       	sbci	r25, 0xC1	; 193
     74c:	24 13       	cpse	r18, r20
     74e:	09 04       	cpc	r0, r9
     750:	0c 16       	cp	r0, r28
     752:	08 13       	cpse	r16, r24
     754:	d4 d5       	rcall	.+2984   	; 0x12fe <__stack+0xdff>
     756:	26 64       	ori	r18, 0x46	; 70
     758:	93 c8       	rjmp	.-3802   	; 0xfffff880 <__eeprom_end+0xff7ef880>
     75a:	24 22       	and	r2, r20
     75c:	4d 35       	cpi	r20, 0x5D	; 93
     75e:	91 6e       	ori	r25, 0xE1	; 225
     760:	12 99       	sbic	0x02, 2	; 2
     762:	44 48       	sbci	r20, 0x84	; 132
     764:	14 04       	cpc	r1, r4
     766:	0d 15       	cp	r16, r13
     768:	08 13       	cpse	r16, r24
     76a:	d4 92       	xch	Z, r13
     76c:	03 e4       	ldi	r16, 0x43	; 67
     76e:	00 91 90 b7 	lds	r16, 0xB790	; 0x80b790 <__bss_end+0xb3e5>
     772:	92 e5       	ldi	r25, 0x52	; 82
     774:	30 31       	cpi	r19, 0x10	; 16
     776:	d5 88       	ldd	r13, Z+21	; 0x15
     778:	8c 02       	muls	r24, r28
     77a:	04 0e       	add	r0, r20
     77c:	13 08       	sbc	r1, r3
     77e:	13 d4       	rcall	.+2086   	; 0xfa6 <__stack+0xaa7>
     780:	11 c9       	rjmp	.-3550   	; 0xfffff9a4 <__eeprom_end+0xff7ef9a4>
     782:	e8 30       	cpi	r30, 0x08	; 8
     784:	21 1f       	adc	r18, r17
     786:	25 67       	ori	r18, 0x75	; 117
     788:	cd 44       	sbci	r28, 0x4D	; 77
     78a:	89 05       	cpc	r24, r9
     78c:	00 04       	cpc	r0, r0
     78e:	0f 0e       	add	r0, r31
     790:	f8 d2       	rcall	.+1520   	; 0xd82 <__stack+0x883>
     792:	d3 10       	cpse	r13, r3
     794:	f2 7f       	andi	r31, 0xF2	; 242
     796:	3c cc       	rjmp	.-1928   	; 0x10 <__FUSE_REGION_LENGTH__+0xd>
     798:	c4 32       	cpi	r28, 0x24	; 36
     79a:	00 04       	cpc	r0, r0
     79c:	10 10       	cpse	r1, r0
     79e:	d8 12       	cpse	r13, r24
     7a0:	d4 93       	xch	Z, r29
     7a2:	d2 44       	sbci	r29, 0x42	; 66
     7a4:	5a 84       	ldd	r5, Y+10	; 0x0a
     7a6:	8c 87       	std	Y+12, r24	; 0x0c
     7a8:	22 8f       	std	Z+26, r18	; 0x1a
     7aa:	02 04       	cpc	r0, r2
     7ac:	11 11       	cpse	r17, r1
     7ae:	d8 12       	cpse	r13, r24
     7b0:	d4 b8       	out	0x04, r13	; 4
     7b2:	88 75       	andi	r24, 0x58	; 88
     7b4:	36 c9       	rjmp	.-3476   	; 0xfffffa22 <__eeprom_end+0xff7efa22>
     7b6:	24 42       	sbci	r18, 0x24	; 36
     7b8:	6e 12       	cpse	r6, r30
     7ba:	13 00       	.word	0x0013	; ????
     7bc:	04 12       	cpse	r0, r20
     7be:	17 d8       	rcall	.-4050   	; 0xfffff7ee <__eeprom_end+0xff7ef7ee>
     7c0:	12 d4       	rcall	.+2084   	; 0xfe6 <__stack+0xae7>
     7c2:	a8 89       	ldd	r26, Y+16	; 0x10
     7c4:	d4 24       	eor	r13, r4
     7c6:	32 89       	ldd	r19, Z+18	; 0x12
     7c8:	4c 22       	and	r4, r28
     7ca:	12 99       	sbic	0x02, 2	; 2
     7cc:	64 12       	cpse	r6, r20
     7ce:	21 37       	cpi	r18, 0x71	; 113
     7d0:	89 09       	sbc	r24, r9
     7d2:	00 04       	cpc	r0, r0
     7d4:	13 0b       	sbc	r17, r19
     7d6:	d8 12       	cpse	r13, r24
     7d8:	d4 38       	cpi	r29, 0x84	; 132
     7da:	8c f5       	brge	.+98     	; 0x83e <__stack+0x33f>
     7dc:	3f 03       	fmul	r19, r23
     7de:	04 14       	cp	r0, r4
     7e0:	10 f8       	bld	r1, 0
     7e2:	d2 d3       	rcall	.+1956   	; 0xf88 <__stack+0xa89>
     7e4:	a3 49       	sbci	r26, 0x93	; 147
     7e6:	44 fa       	bst	r4, 4
     7e8:	ff bf       	out	0x3f, r31	; 63
     7ea:	1c 86       	std	Y+12, r1	; 0x0c
     7ec:	44 01       	movw	r8, r8
     7ee:	04 15       	cp	r16, r4
     7f0:	0e d8       	rcall	.-4068   	; 0xfffff80e <__eeprom_end+0xff7ef80e>
     7f2:	12 d4       	rcall	.+2084   	; 0x1018 <__stack+0xb19>
     7f4:	38 8c       	ldd	r3, Y+24	; 0x18
     7f6:	75 36       	cpi	r23, 0x65	; 101
     7f8:	89 75       	andi	r24, 0x59	; 89
     7fa:	3e 04       	cpc	r3, r14
     7fc:	04 16       	cp	r0, r20
     7fe:	1a d8       	rcall	.-4044   	; 0xfffff834 <__eeprom_end+0xff7ef834>
     800:	12 d4       	rcall	.+2084   	; 0x1026 <__stack+0xb27>
     802:	90 48       	sbci	r25, 0x80	; 128
     804:	28 12       	cpse	r2, r24
     806:	8a 84       	ldd	r8, Y+10	; 0x0a
     808:	22 a1       	ldd	r18, Z+34	; 0x22
     80a:	a8 d8       	rcall	.-3760   	; 0xfffff95c <__eeprom_end+0xff7ef95c>
     80c:	68 16       	cp	r6, r24
     80e:	15 8a       	std	Z+21, r1	; 0x15
     810:	84 22       	and	r8, r20
     812:	a1 48       	sbci	r26, 0x81	; 129
     814:	28 0a       	sbc	r2, r24
     816:	04 17       	cp	r16, r20
     818:	17 d8       	rcall	.-4050   	; 0xfffff848 <__eeprom_end+0xff7ef848>
     81a:	12 d4       	rcall	.+2084   	; 0x1040 <__stack+0xb41>
     81c:	a2 89       	ldd	r26, Z+18	; 0x12
     81e:	24 42       	sbci	r18, 0x24	; 36
     820:	a2 58       	subi	r26, 0x82	; 130
     822:	2a 9c       	mul	r2, r10
     824:	03 e4       	ldi	r16, 0x43	; 67
     826:	00 22       	and	r0, r16
     828:	51 22       	and	r5, r17
     82a:	92 91       	ld	r25, -Z
     82c:	00 04       	cpc	r0, r0
     82e:	18 11       	cpse	r17, r8
     830:	d8 12       	cpse	r13, r24
     832:	d4 10       	cpse	r13, r4
     834:	f2 56       	subi	r31, 0x62	; 98
     836:	b2 1c       	adc	r11, r2
     838:	26 a6       	std	Z+46, r2	; 0x2e
     83a:	1a 91       	ld	r17, -Y
     83c:	51 00       	.word	0x0051	; ????
     83e:	04 19       	sub	r16, r4
     840:	14 08       	sbc	r1, r4
     842:	13 d4       	rcall	.+2086   	; 0x106a <__stack+0xb6b>
     844:	11 c9       	rjmp	.-3550   	; 0xfffffa68 <__eeprom_end+0xff7efa68>
     846:	e8 30       	cpi	r30, 0x08	; 8
     848:	21 6f       	ori	r18, 0xF1	; 241
     84a:	25 cb       	rjmp	.-2486   	; 0xfffffe96 <__eeprom_end+0xff7efe96>
     84c:	61 62       	ori	r22, 0x21	; 33
     84e:	aa 11       	cpse	r26, r10
     850:	19 05       	cpc	r17, r9
     852:	04 1a       	sub	r0, r20
     854:	15 d8       	rcall	.-4054   	; 0xfffff880 <__eeprom_end+0xff7ef880>
     856:	12 d4       	rcall	.+2084   	; 0x107c <__stack+0xb7d>
     858:	10 b2       	in	r1, 0x10	; 16
     85a:	49 64       	ori	r20, 0x49	; 73
     85c:	12 91       	ld	r17, -Z
     85e:	a6 9a       	sbi	0x14, 6	; 20
     860:	48 37       	cpi	r20, 0x78	; 120
     862:	89 4c       	sbci	r24, 0xC9	; 201
     864:	22 24       	eor	r2, r2
     866:	0a 04       	cpc	r0, r10
     868:	1b 1a       	sub	r1, r27
     86a:	d8 12       	cpse	r13, r24
     86c:	d4 2b       	or	r29, r20
     86e:	a9 c8       	rjmp	.-3758   	; 0xfffff9c2 <__eeprom_end+0xff7ef9c2>
     870:	24 32       	cpi	r18, 0x24	; 36
     872:	89 4c       	sbci	r24, 0xC9	; 201
     874:	22 93       	st	-Z, r18
     876:	c8 24       	eor	r12, r8
     878:	32 89       	ldd	r19, Z+18	; 0x12
     87a:	4c 22       	and	r4, r28
     87c:	93 c8       	rjmp	.-3802   	; 0xfffff9a4 <__eeprom_end+0xff7ef9a4>
     87e:	6a 44       	sbci	r22, 0x4A	; 74
     880:	01 04       	cpc	r0, r1
     882:	1c 15       	cp	r17, r12
     884:	d8 12       	cpse	r13, r24
     886:	d4 10       	cpse	r13, r4
     888:	12 4b       	sbci	r17, 0xB2	; 178
     88a:	a6 83       	std	Z+6, r26	; 0x06
     88c:	45 42       	sbci	r20, 0x25	; 37
     88e:	91 50       	subi	r25, 0x01	; 1
     890:	24 14       	cp	r2, r4
     892:	09 91       	ld	r16, Y+
     894:	a3 00       	.word	0x00a3	; ????
     896:	04 1d       	adc	r16, r4
     898:	0d d8       	rcall	.-4070   	; 0xfffff8b4 <__eeprom_end+0xff7ef8b4>
     89a:	12 d4       	rcall	.+2084   	; 0x10c0 <__stack+0xbc1>
     89c:	10 f2       	brcs	.-124    	; 0x822 <__stack+0x323>
     89e:	f1 50       	subi	r31, 0x01	; 1
     8a0:	e4 a3       	std	Z+36, r30	; 0x24
     8a2:	00 04       	cpc	r0, r0
     8a4:	1e 10       	cpse	r1, r14
     8a6:	d8 12       	cpse	r13, r24
     8a8:	d4 a2       	std	Z+36, r13	; 0x24
     8aa:	89 24       	eor	r8, r9
     8ac:	42 fe       	sbrs	r4, 2
     8ae:	51 22       	and	r5, r17
     8b0:	92 91       	ld	r25, -Z
     8b2:	00 04       	cpc	r0, r0
     8b4:	1f 0b       	sbc	r17, r31
     8b6:	d8 12       	cpse	r13, r24
     8b8:	d4 38       	cpi	r29, 0x84	; 132
     8ba:	0c f9       	.word	0xf90c	; ????
     8bc:	3f 0a       	sbc	r3, r31
     8be:	04 20       	and	r0, r4
     8c0:	10 d8       	rcall	.-4064   	; 0xfffff8e2 <__eeprom_end+0xff7ef8e2>
     8c2:	12 d4       	rcall	.+2084   	; 0x10e8 <__stack+0xbe9>
     8c4:	30 c9       	rjmp	.-3488   	; 0xfffffb26 <__eeprom_end+0xff7efb26>
     8c6:	24 42       	sbci	r18, 0x24	; 36
     8c8:	de 24       	eor	r13, r14
     8ca:	26 b1       	in	r18, 0x06	; 6
     8cc:	ce 00       	.word	0x00ce	; ????
     8ce:	04 21       	and	r16, r4
     8d0:	11 d8       	rcall	.-4062   	; 0xfffff8f4 <__eeprom_end+0xff7ef8f4>
     8d2:	12 d4       	rcall	.+2084   	; 0x10f8 <__stack+0xbf9>
     8d4:	a2 89       	ldd	r26, Z+18	; 0x12
     8d6:	24 42       	sbci	r18, 0x24	; 36
     8d8:	b2 7e       	andi	r27, 0xE2	; 226
     8da:	94 88       	ldd	r9, Z+20	; 0x14
     8dc:	64 24       	eor	r6, r4
     8de:	00 04       	cpc	r0, r0
     8e0:	22 0c       	add	r2, r2
     8e2:	d8 12       	cpse	r13, r24
     8e4:	d4 38       	cpi	r29, 0x84	; 132
     8e6:	c4 c4       	rjmp	.+2440   	; 0x1270 <__stack+0xd71>
     8e8:	fa df       	rcall	.-12     	; 0x8de <__stack+0x3df>
     8ea:	00 04       	cpc	r0, r0
     8ec:	23 0f       	add	r18, r19
     8ee:	d8 12       	cpse	r13, r24
     8f0:	d4 10       	cpse	r13, r4
     8f2:	f2 51       	subi	r31, 0x12	; 18
     8f4:	72 d6       	rcall	.+3300   	; 0x15da <__stack+0x10db>
     8f6:	4c 94 58 00 	jmp	0x1000b0	; 0x1000b0 <__TEXT_REGION_LENGTH__+0xe00b0>
     8fa:	04 24       	eor	r0, r4
     8fc:	19 d8       	rcall	.-4046   	; 0xfffff930 <__eeprom_end+0xff7ef930>
     8fe:	12 d4       	rcall	.+2084   	; 0x1124 <__stack+0xc25>
     900:	13 5a       	subi	r17, 0xA3	; 163
     902:	54 28       	or	r5, r4
     904:	12 8a       	std	Z+18, r1	; 0x12
     906:	84 22       	and	r8, r20
     908:	a1 48       	sbci	r26, 0x81	; 129
     90a:	28 12       	cpse	r2, r24
     90c:	8a 84       	ldd	r8, Y+10	; 0x0a
     90e:	a2 62       	ori	r26, 0x22	; 34
     910:	14 cb       	rjmp	.-2520   	; 0xffffff3a <__eeprom_end+0xff7eff3a>
     912:	00 04       	cpc	r0, r0
     914:	25 14       	cp	r2, r5
     916:	d8 12       	cpse	r13, r24
     918:	d4 10       	cpse	r13, r4
     91a:	12 25       	eor	r17, r2
     91c:	22 6d       	ori	r18, 0xD2	; 210
     91e:	44 aa       	std	Z+52, r4	; 0x34
     920:	94 48       	sbci	r25, 0x84	; 132
     922:	13 69       	ori	r17, 0x93	; 147
     924:	11 12       	cpse	r1, r17
     926:	05 04       	cpc	r0, r5
     928:	26 21       	and	r18, r6
     92a:	f9 d2       	rcall	.+1522   	; 0xf1e <__stack+0xa1f>
     92c:	d3 10       	cpse	r13, r3
     92e:	4a 84       	ldd	r4, Y+10	; 0x0a
     930:	12 a1       	ldd	r17, Z+34	; 0x22
     932:	44 28       	or	r4, r4
     934:	11 4a       	sbci	r17, 0xA1	; 161
     936:	84 12       	cpse	r8, r20
     938:	a1 44       	sbci	r26, 0x41	; 65
     93a:	28 11       	cpse	r18, r8
     93c:	4a 84       	ldd	r4, Y+10	; 0x0a
     93e:	12 a1       	ldd	r17, Z+34	; 0x22
     940:	44 28       	or	r4, r4
     942:	39 c8       	rjmp	.-3982   	; 0xfffff9b6 <__eeprom_end+0xff7ef9b6>
     944:	01 72       	andi	r16, 0x21	; 33
     946:	80 00       	.word	0x0080	; ????
     948:	04 27       	eor	r16, r20
     94a:	0c d8       	rcall	.-4072   	; 0xfffff964 <__eeprom_end+0xff7ef964>
     94c:	12 d4       	rcall	.+2084   	; 0x1172 <__stack+0xc73>
     94e:	10 f2       	brcs	.-124    	; 0x8d4 <__stack+0x3d5>
     950:	a3 e4       	ldi	r26, 0x43	; 67
     952:	ac 07       	cpc	r26, r28
     954:	04 28       	or	r0, r4
     956:	1d d8       	rcall	.-4038   	; 0xfffff992 <__eeprom_end+0xff7ef992>
     958:	12 d4       	rcall	.+2084   	; 0x117e <__stack+0xc7f>
     95a:	90 48       	sbci	r25, 0x80	; 128
     95c:	28 12       	cpse	r2, r24
     95e:	8a 84       	ldd	r8, Y+10	; 0x0a
     960:	22 a1       	ldd	r18, Z+34	; 0x22
     962:	48 28       	or	r4, r8
     964:	12 8a       	std	Z+18, r1	; 0x12
     966:	84 22       	and	r8, r20
     968:	a1 48       	sbci	r26, 0x81	; 129
     96a:	28 12       	cpse	r2, r24
     96c:	8a 84       	ldd	r8, Y+10	; 0x0a
     96e:	22 39       	cpi	r18, 0x92	; 146
     970:	0c 04       	cpc	r0, r12
     972:	29 12       	cpse	r2, r25
     974:	f9 d2       	rcall	.+1522   	; 0xf68 <__stack+0xa69>
     976:	d3 90       	.word	0x90d3	; ????
     978:	e8 ff       	.word	0xffe8	; ????
     97a:	ff ff       	.word	0xffff	; ????
     97c:	7f 39       	cpi	r23, 0x9F	; 159
     97e:	c8 01       	movw	r24, r16
     980:	72 80       	ldd	r7, Z+2	; 0x02
     982:	00 04       	cpc	r0, r0
     984:	2a 10       	cpse	r2, r10
     986:	d8 12       	cpse	r13, r24
     988:	d4 20       	and	r13, r4
     98a:	46 c4       	rjmp	.+2188   	; 0x1218 <__stack+0xd19>
     98c:	9a 6b       	ori	r25, 0xBA	; 186
     98e:	22 fd       	sbrc	r18, 2
     990:	4f 15       	cp	r20, r15
     992:	00 04       	cpc	r0, r0
     994:	2b 16       	cp	r2, r27
     996:	d8 12       	cpse	r13, r24
     998:	d4 10       	cpse	r13, r4
     99a:	f2 68       	ori	r31, 0x82	; 130
     99c:	a2 48       	sbci	r26, 0x82	; 130
     99e:	28 12       	cpse	r2, r24
     9a0:	8a 84       	ldd	r8, Y+10	; 0x0a
     9a2:	22 a1       	ldd	r18, Z+34	; 0x22
     9a4:	48 28       	or	r4, r8
     9a6:	12 93       	st	-Z, r17
     9a8:	00 04       	cpc	r0, r0
     9aa:	2c 10       	cpse	r2, r12
     9ac:	d8 12       	cpse	r13, r24
     9ae:	d4 10       	cpse	r13, r4
     9b0:	eb 6c       	ori	r30, 0xCB	; 203
     9b2:	92 49       	sbci	r25, 0x92	; 146
     9b4:	84 bc       	out	0x24, r8	; 36
     9b6:	49 4c       	sbci	r20, 0xC9	; 201
     9b8:	00 04       	cpc	r0, r0
     9ba:	2d 13       	cpse	r18, r29
     9bc:	d8 12       	cpse	r13, r24
     9be:	d4 a2       	std	Z+36, r13	; 0x24
     9c0:	89 24       	eor	r8, r9
     9c2:	42 b1       	in	r20, 0x02	; 2
     9c4:	96 b3       	in	r25, 0x16	; 22
     9c6:	32 51       	subi	r19, 0x12	; 18
     9c8:	22 92       	st	-Z, r2
     9ca:	91 00       	.word	0x0091	; ????
     9cc:	04 2e       	mov	r0, r20
     9ce:	1c d8       	rcall	.-4040   	; 0xfffffa08 <__eeprom_end+0xff7efa08>
     9d0:	12 d4       	rcall	.+2084   	; 0x11f6 <__stack+0xcf7>
     9d2:	10 4d       	sbci	r17, 0xD0	; 208
     9d4:	54 28       	or	r5, r4
     9d6:	12 8a       	std	Z+18, r1	; 0x12
     9d8:	84 22       	and	r8, r20
     9da:	a1 48       	sbci	r26, 0x81	; 129
     9dc:	2e 14       	cp	r2, r14
     9de:	09 45       	sbci	r16, 0x59	; 89
     9e0:	42 91       	ld	r20, -Z
     9e2:	50 24       	eor	r5, r0
     9e4:	14 09       	sbc	r17, r4
     9e6:	69 02       	muls	r22, r25
     9e8:	04 2f       	mov	r16, r20
     9ea:	14 d8       	rcall	.-4056   	; 0xfffffa14 <__eeprom_end+0xff7efa14>
     9ec:	12 d4       	rcall	.+2084   	; 0x1212 <__stack+0xd13>
     9ee:	b2 c8       	rjmp	.-3740   	; 0xfffffb54 <__eeprom_end+0xff7efb54>
     9f0:	88 1c       	adc	r8, r8
     9f2:	25 32       	cpi	r18, 0x25	; 37
     9f4:	91 49       	sbci	r25, 0x91	; 145
     9f6:	45 26       	eor	r4, r21
     9f8:	91 11       	cpse	r25, r1
     9fa:	89 02       	muls	r24, r25
     9fc:	04 30       	cpi	r16, 0x04	; 4
     9fe:	0f 88       	ldd	r0, Y+23	; 0x17
     a00:	12 d4       	rcall	.+2084   	; 0x1226 <__stack+0xd27>
     a02:	2a c9       	rjmp	.-3500   	; 0xfffffc58 <__eeprom_end+0xff7efc58>
     a04:	c4 92       	xch	Z, r12
     a06:	83 90       	.word	0x9083	; ????
     a08:	51 52       	subi	r21, 0x21	; 33
     a0a:	09 04       	cpc	r0, r9
     a0c:	31 14       	cp	r3, r1
     a0e:	c8 12       	cpse	r12, r24
     a10:	d4 0e       	add	r13, r20
     a12:	95 c4       	rjmp	.+2346   	; 0x133e <__stack+0xe3f>
     a14:	72 40       	sbci	r23, 0x02	; 2
     a16:	69 24       	eor	r6, r9
     a18:	11 72       	andi	r17, 0x21	; 33
     a1a:	94 88       	ldd	r9, Z+20	; 0x14
     a1c:	64 24       	eor	r6, r4
     a1e:	00 04       	cpc	r0, r0
     a20:	32 10       	cpse	r3, r2
     a22:	88 12       	cpse	r8, r24
     a24:	d4 30       	cpi	r29, 0x04	; 4
     a26:	c9 24       	eor	r12, r9
     a28:	32 c9       	rjmp	.-3484   	; 0xfffffc8e <__eeprom_end+0xff7efc8e>
     a2a:	45 c8       	rjmp	.-3958   	; 0xfffffab6 <__eeprom_end+0xff7efab6>
     a2c:	78 90       	.word	0x9078	; ????
     a2e:	00 04       	cpc	r0, r0
     a30:	33 0b       	sbc	r19, r19
     a32:	88 12       	cpse	r8, r24
     a34:	d4 38       	cpi	r29, 0x84	; 132
     a36:	8c f5       	brge	.+98     	; 0xa9a <__stack+0x59b>
     a38:	19 00       	.word	0x0019	; ????
     a3a:	04 34       	cpi	r16, 0x44	; 68
     a3c:	0f a8       	ldd	r0, Y+55	; 0x37
     a3e:	d2 d3       	rcall	.+1956   	; 0x11e4 <__stack+0xce5>
     a40:	a3 49       	sbci	r26, 0x93	; 147
     a42:	44 fa       	bst	r4, 4
     a44:	2f 87       	std	Y+15, r18	; 0x0f
     a46:	21 51       	subi	r18, 0x11	; 17
     a48:	00 04       	cpc	r0, r0
     a4a:	35 11       	cpse	r19, r5
     a4c:	88 12       	cpse	r8, r24
     a4e:	d4 a2       	std	Z+36, r13	; 0x24
     a50:	89 24       	eor	r8, r9
     a52:	c2 43       	sbci	r28, 0x32	; 50
     a54:	59 0e       	add	r5, r25
     a56:	90 89       	ldd	r25, Z+16	; 0x10
     a58:	2a 00       	.word	0x002a	; ????
     a5a:	04 36       	cpi	r16, 0x64	; 100
     a5c:	12 88       	ldd	r1, Z+18	; 0x12
     a5e:	12 d4       	rcall	.+2084   	; 0x1284 <__stack+0xd85>
     a60:	90 48       	sbci	r25, 0x80	; 128
     a62:	28 12       	cpse	r2, r24
     a64:	8a 8a       	std	Y+18, r8	; 0x12
     a66:	c9 a2       	std	Y+33, r12	; 0x21
     a68:	42 91       	ld	r20, -Z
     a6a:	50 14       	cp	r5, r0
     a6c:	04 37       	cpi	r16, 0x74	; 116
     a6e:	10 88       	ldd	r1, Z+16	; 0x10
     a70:	12 d4       	rcall	.+2084   	; 0x1296 <__stack+0xd97>
     a72:	b1 08       	sbc	r11, r1
     a74:	c5 a2       	std	Z+37, r12	; 0x25
     a76:	b2 1c       	adc	r11, r2
     a78:	40 94       	com	r4
     a7a:	58 00       	.word	0x0058	; ????
     a7c:	04 38       	cpi	r16, 0x84	; 132
     a7e:	0e 88       	ldd	r0, Y+22	; 0x16
     a80:	12 d4       	rcall	.+2084   	; 0x12a6 <__stack+0xda7>
     a82:	10 b2       	in	r1, 0x10	; 16
     a84:	95 2c       	mov	r9, r5
     a86:	12 53       	subi	r17, 0x32	; 50
     a88:	8d 28       	or	r8, r13
     a8a:	04 39       	cpi	r16, 0x94	; 148
     a8c:	12 b8       	out	0x02, r1	; 2
     a8e:	12 d4       	rcall	.+2084   	; 0x12b4 <__stack+0xdb5>
     a90:	11 c9       	rjmp	.-3550   	; 0xfffffcb4 <__eeprom_end+0xff7efcb4>
     a92:	e8 30       	cpi	r30, 0x08	; 8
     a94:	21 5b       	subi	r18, 0xB1	; 177
     a96:	c9 22       	and	r12, r25
     a98:	31 d5       	rcall	.+2658   	; 0x14fc <__stack+0xffd>
     a9a:	88 02       	muls	r24, r24
     a9c:	04 3a       	cpi	r16, 0xA4	; 164
     a9e:	11 88       	ldd	r1, Z+17	; 0x11
     aa0:	12 d4       	rcall	.+2084   	; 0x12c6 <__stack+0xdc7>
     aa2:	10 d2       	rcall	.+1056   	; 0xec4 <__stack+0x9c5>
     aa4:	24 22       	and	r2, r20
     aa6:	51 ad       	ldd	r21, Z+57	; 0x39
     aa8:	26 52       	subi	r18, 0x26	; 38
     aaa:	93 08       	sbc	r9, r3
     aac:	05 04       	cpc	r0, r5
     aae:	3b 12       	cpse	r3, r27
     ab0:	88 12       	cpse	r8, r24
     ab2:	d4 2b       	or	r29, r20
     ab4:	a9 c8       	rjmp	.-3758   	; 0xfffffc08 <__eeprom_end+0xff7efc08>
     ab6:	24 32       	cpi	r18, 0x24	; 36
     ab8:	89 4c       	sbci	r24, 0xC9	; 201
     aba:	22 93       	st	-Z, r18
     abc:	c8 88       	ldd	r12, Y+16	; 0x10
     abe:	02 04       	cpc	r0, r2
     ac0:	3c 11       	cpse	r19, r12
     ac2:	88 12       	cpse	r8, r24
     ac4:	d4 10       	cpse	r13, r4
     ac6:	96 0e       	add	r9, r22
     ac8:	16 09       	sbc	r17, r6
     aca:	45 42       	sbci	r20, 0x25	; 37
     acc:	91 10       	cpse	r9, r1
     ace:	89 02       	muls	r24, r25
     ad0:	04 3d       	cpi	r16, 0xD4	; 212
     ad2:	0c 88       	ldd	r0, Y+20	; 0x14
     ad4:	12 d4       	rcall	.+2084   	; 0x12fa <__stack+0xdfb>
     ad6:	10 32       	cpi	r17, 0x20	; 32
     ad8:	1e 8a       	std	Y+22, r1	; 0x16
     ada:	1c 05       	cpc	r17, r12
     adc:	04 3e       	cpi	r16, 0xE4	; 228
     ade:	0f 88       	ldd	r0, Y+23	; 0x17
     ae0:	12 d4       	rcall	.+2084   	; 0x1306 <__stack+0xe07>
     ae2:	a2 89       	ldd	r26, Z+18	; 0x12
     ae4:	24 42       	sbci	r18, 0x24	; 36
     ae6:	8e 12       	cpse	r8, r30
     ae8:	91 8c       	ldd	r9, Z+25	; 0x19
     aea:	04 04       	cpc	r0, r4
     aec:	3f 0b       	sbc	r19, r31
     aee:	88 12       	cpse	r8, r24
     af0:	d4 38       	cpi	r29, 0x84	; 132
     af2:	0c f9       	.word	0xf90c	; ????
     af4:	51 00       	.word	0x0051	; ????
     af6:	04 40       	sbci	r16, 0x04	; 4
     af8:	12 c8       	rjmp	.-4060   	; 0xfffffb1e <__eeprom_end+0xff7efb1e>
     afa:	92 d3       	rcall	.+1828   	; 0x1220 <__stack+0xd21>
     afc:	90 8c       	ldd	r9, Z+24	; 0x18
     afe:	46 12       	cpse	r4, r22
     b00:	21 c7       	rjmp	.+3650   	; 0x1944 <__stack+0x1445>
     b02:	92 44       	sbci	r25, 0x42	; 66
     b04:	32 12       	cpse	r3, r18
     b06:	6b 06       	cpc	r6, r27
     b08:	04 41       	sbci	r16, 0x14	; 20
     b0a:	0f 88       	ldd	r0, Y+23	; 0x17
     b0c:	12 d4       	rcall	.+2084   	; 0x1332 <__stack+0xe33>
     b0e:	2a c9       	rjmp	.-3500   	; 0xfffffd64 <__eeprom_end+0xff7efd64>
     b10:	c8 da       	rcall	.-2672   	; 0xa2 <__SREG__+0x63>
     b12:	01 32       	cpi	r16, 0x21	; 33
     b14:	51 05       	cpc	r21, r1
     b16:	00 04       	cpc	r0, r0
     b18:	42 0b       	sbc	r20, r18
     b1a:	88 12       	cpse	r8, r24
     b1c:	d4 38       	cpi	r29, 0x84	; 132
     b1e:	c4 c4       	rjmp	.+2440   	; 0x14a8 <__stack+0xfa9>
     b20:	fa 06       	cpc	r15, r26
     b22:	04 43       	sbci	r16, 0x34	; 52
     b24:	12 c8       	rjmp	.-4060   	; 0xfffffb4a <__eeprom_end+0xff7efb4a>
     b26:	92 d3       	rcall	.+1828   	; 0x124c <__stack+0xd4d>
     b28:	10 f2       	brcs	.-124    	; 0xaae <__stack+0x5af>
     b2a:	51 22       	and	r5, r17
     b2c:	5a 11       	cpse	r21, r10
     b2e:	13 25       	eor	r17, r3
     b30:	22 19       	sub	r18, r2
     b32:	09 00       	.word	0x0009	; ????
     b34:	04 44       	sbci	r16, 0x44	; 68
     b36:	17 e8       	ldi	r17, 0x87	; 135
     b38:	92 d3       	rcall	.+1828   	; 0x125e <__stack+0xd5f>
     b3a:	13 0b       	sbc	r17, r19
     b3c:	2d 2a       	or	r2, r29
     b3e:	14 09       	sbc	r17, r4
     b40:	45 42       	sbci	r20, 0x25	; 37
     b42:	91 50       	subi	r25, 0x01	; 1
     b44:	24 14       	cp	r2, r4
     b46:	15 a3       	std	Z+37, r17	; 0x25
     b48:	58 1b       	sub	r21, r24
     b4a:	00 04       	cpc	r0, r0
     b4c:	45 11       	cpse	r20, r5
     b4e:	88 12       	cpse	r8, r24
     b50:	d4 10       	cpse	r13, r4
     b52:	4a 44       	sbci	r20, 0x4A	; 74
     b54:	32 aa       	std	Z+50, r3	; 0x32
     b56:	58 4a       	sbci	r21, 0xA8	; 168
     b58:	13 49       	sbci	r17, 0x93	; 147
     b5a:	84 02       	muls	r24, r20
     b5c:	04 46       	sbci	r16, 0x64	; 100
     b5e:	15 a8       	ldd	r1, Z+53	; 0x35
     b60:	d2 d3       	rcall	.+1956   	; 0x1306 <__stack+0xe07>
     b62:	90 49       	sbci	r25, 0x90	; 144
     b64:	64 12       	cpse	r6, r20
     b66:	99 44       	sbci	r25, 0x49	; 73
     b68:	26 91       	elpm	r18, Z
     b6a:	49 64       	ori	r20, 0x49	; 73
     b6c:	12 99       	sbic	0x02, 2	; 2
     b6e:	e4 10       	cpse	r14, r4
     b70:	56 04       	cpc	r5, r6
     b72:	47 0b       	sbc	r20, r23
     b74:	88 12       	cpse	r8, r24
     b76:	d4 10       	cpse	r13, r4
     b78:	72 94       	swap	r7
     b7a:	9c 35       	cpi	r25, 0x5C	; 92
     b7c:	04 48       	sbci	r16, 0x84	; 132
     b7e:	14 88       	ldd	r1, Z+20	; 0x14
     b80:	12 d4       	rcall	.+2084   	; 0x13a6 <__stack+0xea7>
     b82:	90 48       	sbci	r25, 0x80	; 128
     b84:	28 12       	cpse	r2, r24
     b86:	8a 84       	ldd	r8, Y+10	; 0x0a
     b88:	22 a1       	ldd	r18, Z+34	; 0x22
     b8a:	48 28       	or	r4, r8
     b8c:	12 8a       	std	Z+18, r1	; 0x12
     b8e:	e4 30       	cpi	r30, 0x04	; 4
     b90:	04 49       	sbci	r16, 0x94	; 148
     b92:	10 a9       	ldd	r17, Z+48	; 0x30
     b94:	d2 d3       	rcall	.+1956   	; 0x133a <__stack+0xe3b>
     b96:	90 e8       	ldi	r25, 0x80	; 128
     b98:	ff ff       	.word	0xffff	; ????
     b9a:	72 90       	ld	r7, -Z
     b9c:	03 e4       	ldi	r16, 0x43	; 67
     b9e:	00 01       	movw	r0, r0
     ba0:	04 4a       	sbci	r16, 0xA4	; 164
     ba2:	12 88       	ldd	r1, Z+18	; 0x12
     ba4:	12 d4       	rcall	.+2084   	; 0x13ca <__stack+0xecb>
     ba6:	98 4e       	sbci	r25, 0xE8	; 232
     ba8:	4f 32       	cpi	r20, 0x2F	; 47
     baa:	89 4c       	sbci	r24, 0xC9	; 201
     bac:	22 93       	st	-Z, r18
     bae:	c8 24       	eor	r12, r8
     bb0:	16 00       	.word	0x0016	; ????
     bb2:	04 4b       	sbci	r16, 0xB4	; 180
     bb4:	12 88       	ldd	r1, Z+18	; 0x12
     bb6:	12 d4       	rcall	.+2084   	; 0x13dc <__stack+0xedd>
     bb8:	10 12       	cpse	r1, r16
     bba:	4d 14       	cp	r4, r13
     bbc:	09 45       	sbci	r16, 0x59	; 89
     bbe:	42 91       	ld	r20, -Z
     bc0:	50 24       	eor	r5, r0
     bc2:	26 01       	movw	r4, r12
     bc4:	04 4c       	sbci	r16, 0xC4	; 196
     bc6:	0e 88       	ldd	r0, Y+22	; 0x16
     bc8:	12 d4       	rcall	.+2084   	; 0x13ee <__stack+0xeef>
     bca:	10 2b       	or	r17, r16
     bcc:	5f 84       	ldd	r5, Y+15	; 0x0f
     bce:	8c 07       	cpc	r24, r28
     bd0:	09 00       	.word	0x0009	; ????
     bd2:	04 4d       	sbci	r16, 0xD4	; 212
     bd4:	0e 88       	ldd	r0, Y+22	; 0x16
     bd6:	12 d4       	rcall	.+2084   	; 0x13fc <__stack+0xefd>
     bd8:	b1 08       	sbc	r11, r1
     bda:	c5 6a       	ori	r28, 0xA5	; 165
     bdc:	65 a2       	std	Z+37, r6	; 0x25
     bde:	c4 02       	muls	r28, r20
     be0:	04 4e       	sbci	r16, 0xE4	; 228
     be2:	14 88       	ldd	r1, Z+20	; 0x14
     be4:	12 d4       	rcall	.+2084   	; 0x140a <__stack+0xf0b>
     be6:	10 4d       	sbci	r17, 0xD0	; 208
     be8:	54 28       	or	r5, r4
     bea:	92 0b       	sbc	r25, r18
     bec:	45 42       	sbci	r20, 0x25	; 37
     bee:	91 50       	subi	r25, 0x01	; 1
     bf0:	24 a4       	ldd	r2, Z+44	; 0x2c
     bf2:	09 00       	.word	0x0009	; ????
     bf4:	04 4f       	sbci	r16, 0xF4	; 244
     bf6:	0f 88       	ldd	r0, Y+23	; 0x17
     bf8:	12 d4       	rcall	.+2084   	; 0x141e <__stack+0xf1f>
     bfa:	39 08       	sbc	r3, r9
     bfc:	19 25       	eor	r17, r9
     bfe:	27 15       	cp	r18, r7
     c00:	19 51       	subi	r17, 0x19	; 25
     c02:	00 04       	cpc	r0, r0
     c04:	50 16       	cp	r5, r16
     c06:	c8 12       	cpse	r12, r24
     c08:	d4 92       	xch	Z, r13
     c0a:	03 e4       	ldi	r16, 0x43	; 67
     c0c:	00 39       	cpi	r16, 0x90	; 144
     c0e:	94 26       	eor	r9, r20
     c10:	92 08       	sbc	r9, r2
     c12:	0f 65       	ori	r16, 0x5F	; 95
     c14:	39 40       	sbci	r19, 0x09	; 9
     c16:	26 aa       	std	Z+54, r2	; 0x36
     c18:	00 04       	cpc	r0, r0
     c1a:	51 14       	cp	r5, r1
     c1c:	b8 12       	cpse	r11, r24
     c1e:	d4 11       	cpse	r29, r4
     c20:	69 07       	cpc	r22, r25
     c22:	d2 44       	sbci	r29, 0x42	; 66
     c24:	12 e1       	ldi	r17, 0x12	; 18
     c26:	a1 2c       	mov	r10, r1
     c28:	07 c8       	rjmp	.-4082   	; 0xfffffc38 <__eeprom_end+0xff7efc38>
     c2a:	44 15       	cp	r20, r4
     c2c:	00 04       	cpc	r0, r0
     c2e:	52 1b       	sub	r21, r18
     c30:	18 93       	.word	0x9318	; ????
     c32:	d3 11       	cpse	r29, r3
     c34:	4b 6d       	ori	r20, 0xDB	; 219
     c36:	62 15       	cp	r22, r2
     c38:	d9 44       	sbci	r29, 0x49	; 73
     c3a:	24 93       	xch	Z, r18
     c3c:	c8 24       	eor	r12, r8
     c3e:	32 89       	ldd	r19, Z+18	; 0x12
     c40:	4c 22       	and	r4, r28
     c42:	93 c8       	rjmp	.-3802   	; 0xfffffd6a <__eeprom_end+0xff7efd6a>
     c44:	c4 aa       	std	Z+52, r12	; 0x34
     c46:	4a 00       	.word	0x004a	; ????
     c48:	04 53       	subi	r16, 0x34	; 52
     c4a:	0d c8       	rjmp	.-4070   	; 0xfffffc66 <__eeprom_end+0xff7efc66>
     c4c:	12 d4       	rcall	.+2084   	; 0x1472 <__stack+0xf73>
     c4e:	94 aa       	std	Z+52, r9	; 0x34
     c50:	43 0f       	add	r20, r19
     c52:	63 7d       	andi	r22, 0xD3	; 211
     c54:	06 04       	cpc	r0, r6
     c56:	54 0e       	add	r5, r20
     c58:	88 12       	cpse	r8, r24
     c5a:	d4 b1       	in	r29, 0x04	; 4
     c5c:	08 c9       	rjmp	.-3568   	; 0xfffffe6e <__eeprom_end+0xff7efe6e>
     c5e:	35 b1       	in	r19, 0x05	; 5
     c60:	a2 c4       	rjmp	.+2372   	; 0x15a6 <__stack+0x10a7>
     c62:	02 04       	cpc	r0, r2
     c64:	55 10       	cpse	r5, r5
     c66:	88 12       	cpse	r8, r24
     c68:	d4 b1       	in	r29, 0x04	; 4
     c6a:	08 e9       	ldi	r16, 0x98	; 152
     c6c:	00 3b       	cpi	r16, 0xB0	; 176
     c6e:	40 4c       	sbci	r20, 0xC0	; 192
     c70:	94 58       	subi	r25, 0x84	; 132
     c72:	00 04       	cpc	r0, r0
     c74:	56 0d       	add	r21, r6
     c76:	b8 12       	cpse	r11, r24
     c78:	d4 13       	cpse	r29, r20
     c7a:	cb a1       	ldd	r28, Y+35	; 0x23
     c7c:	64 7d       	andi	r22, 0xD4	; 212
     c7e:	3b 04       	cpc	r3, r11
     c80:	04 57       	subi	r16, 0x74	; 116
     c82:	0e c8       	rjmp	.-4068   	; 0xfffffca0 <__eeprom_end+0xff7efca0>
     c84:	12 d4       	rcall	.+2084   	; 0x14aa <__stack+0xfab>
     c86:	11 69       	ori	r17, 0x91	; 145
     c88:	87 91       	elpm	r24, Z+
     c8a:	f5 db       	rcall	.-2070   	; 0x476 <__LOCK_REGION_LENGTH__+0x76>
     c8c:	21 00       	.word	0x0021	; ????
     c8e:	04 58       	subi	r16, 0x84	; 132
     c90:	0f f7       	brid	.-62     	; 0xc54 <__stack+0x755>
     c92:	94 d3       	rcall	.+1832   	; 0x13bc <__stack+0xebd>
     c94:	55 87       	std	Z+13, r21	; 0x0d
     c96:	51 f5       	brne	.+84     	; 0xcec <__stack+0x7ed>
     c98:	95 c6       	rjmp	.+3370   	; 0x19c4 <__stack+0x14c5>
     c9a:	26 a9       	ldd	r18, Z+54	; 0x36
     c9c:	00 04       	cpc	r0, r0
     c9e:	59 12       	cpse	r5, r25
     ca0:	89 10       	cpse	r8, r9
     ca2:	d4 29       	or	r29, r4
     ca4:	4a 84       	ldd	r4, Y+10	; 0x0a
     ca6:	12 a1       	ldd	r17, Z+34	; 0x22
     ca8:	84 24       	eor	r8, r4
     caa:	d1 2f       	mov	r29, r17
     cac:	24 0a       	sbc	r2, r20
     cae:	00 04       	cpc	r0, r0
     cb0:	5a 13       	cpse	r21, r26
     cb2:	88 12       	cpse	r8, r24
     cb4:	d4 90       	lpm	r13, Z
     cb6:	c8 24       	eor	r12, r8
     cb8:	32 89       	ldd	r19, Z+18	; 0x12
     cba:	ec a2       	std	Y+36, r14	; 0x24
     cbc:	42 91       	ld	r20, -Z
     cbe:	50 24       	eor	r5, r0
     cc0:	2c 00       	.word	0x002c	; ????
     cc2:	04 5b       	subi	r16, 0xB4	; 180
     cc4:	1b d9       	rcall	.-3530   	; 0xfffffefc <__eeprom_end+0xff7efefc>
     cc6:	10 d4       	rcall	.+2080   	; 0x14e8 <__stack+0xfe9>
     cc8:	91 03       	fmuls	r17, r17
     cca:	e4 00       	.word	0x00e4	; ????
     ccc:	71 55       	subi	r23, 0x51	; 81
     cce:	0e 90       	ld	r0, -X
     cd0:	cc 46       	sbci	r28, 0x6C	; 108
     cd2:	8a 12       	cpse	r8, r26
     cd4:	a1 44       	sbci	r26, 0x41	; 65
     cd6:	28 11       	cpse	r18, r8
     cd8:	4a 84       	ldd	r4, Y+10	; 0x0a
     cda:	12 a1       	ldd	r17, Z+34	; 0x22
     cdc:	00 04       	cpc	r0, r0
     cde:	5c 12       	cpse	r5, r28
     ce0:	c8 12       	cpse	r12, r24
     ce2:	d4 94       	.word	0x94d4	; ????
     ce4:	aa 43       	sbci	r26, 0x3A	; 58
     ce6:	65 25       	eor	r22, r5
     ce8:	4d b5       	in	r20, 0x2d	; 45
     cea:	9a 48       	sbci	r25, 0x8A	; 138
     cec:	4d 22       	and	r4, r29
     cee:	14 04       	cpc	r1, r4
     cf0:	5d 14       	cp	r5, r13
     cf2:	c8 12       	cpse	r12, r24
     cf4:	d4 92       	xch	Z, r13
     cf6:	03 e4       	ldi	r16, 0x43	; 67
     cf8:	00 39       	cpi	r16, 0x90	; 144
     cfa:	4c c8       	rjmp	.-3944   	; 0xfffffd94 <__eeprom_end+0xff7efd94>
     cfc:	56 b2       	in	r5, 0x16	; 22
     cfe:	48 4c       	sbci	r20, 0xC8	; 200
     d00:	35 a2       	std	Z+37, r3	; 0x25
     d02:	00 04       	cpc	r0, r0
     d04:	5e 15       	cp	r21, r14
     d06:	f8 92       	.word	0x92f8	; ????
     d08:	d3 11       	cpse	r29, r3
     d0a:	c9 e8       	ldi	r28, 0x89	; 137
     d0c:	30 21       	and	r19, r0
     d0e:	1f 25       	eor	r17, r15
     d10:	a2 15       	cp	r26, r2
     d12:	31 51       	subi	r19, 0x11	; 17
     d14:	22 92       	st	-Z, r2
     d16:	91 00       	.word	0x0091	; ????
     d18:	04 5f       	subi	r16, 0xF4	; 244
     d1a:	0d a8       	ldd	r0, Y+53	; 0x35
     d1c:	d2 d3       	rcall	.+1956   	; 0x14c2 <__stack+0xfc3>
     d1e:	10 f2       	brcs	.-124    	; 0xca4 <__stack+0x7a5>
     d20:	e3 61       	ori	r30, 0x13	; 19
     d22:	26 96       	adiw	r28, 0x06	; 6
     d24:	01 04       	cpc	r0, r1
     d26:	60 18       	sub	r6, r0
     d28:	d8 12       	cpse	r13, r24
     d2a:	d4 11       	cpse	r29, r4
     d2c:	49 84       	ldd	r4, Y+9	; 0x09
     d2e:	bc 48       	sbci	r27, 0x8C	; 140
     d30:	28 12       	cpse	r2, r24
     d32:	8a 84       	ldd	r8, Y+10	; 0x0a
     d34:	22 a1       	ldd	r18, Z+34	; 0x22
     d36:	48 28       	or	r4, r8
     d38:	12 8a       	std	Z+18, r1	; 0x12
     d3a:	26 09       	sbc	r18, r6
     d3c:	00 04       	cpc	r0, r0
     d3e:	61 11       	cpse	r22, r1
     d40:	88 12       	cpse	r8, r24
     d42:	d4 10       	cpse	r13, r4
     d44:	72 91       	ld	r23, -Z
     d46:	50 24       	eor	r5, r0
     d48:	14 c9       	rjmp	.-3544   	; 0xffffff72 <__eeprom_end+0xff7eff72>
     d4a:	61 22       	and	r6, r17
     d4c:	92 00       	.word	0x0092	; ????
     d4e:	04 62       	ori	r16, 0x24	; 36
     d50:	19 e8       	ldi	r17, 0x89	; 137
     d52:	12 d4       	rcall	.+2084   	; 0x1578 <__stack+0x1079>
     d54:	11 4b       	sbci	r17, 0xB1	; 177
     d56:	6b 93       	.word	0x936b	; ????
     d58:	a0 58       	subi	r26, 0x80	; 128
     d5a:	5c 13       	cpse	r21, r28
     d5c:	a9 49       	sbci	r26, 0x99	; 153
     d5e:	64 12       	cpse	r6, r20
     d60:	99 44       	sbci	r25, 0x49	; 73
     d62:	26 11       	cpse	r18, r6
     d64:	89 4a       	sbci	r24, 0xA9	; 169
     d66:	00 04       	cpc	r0, r0
     d68:	63 15       	cp	r22, r3
     d6a:	b8 12       	cpse	r11, r24
     d6c:	d4 89       	ldd	r29, Z+20	; 0x14
     d6e:	03 c4       	rjmp	.+2054   	; 0x1576 <__stack+0x1077>
     d70:	52 9b       	sbis	0x0a, 2	; 10
     d72:	d8 24       	eor	r13, r8
     d74:	93 c8       	rjmp	.-3802   	; 0xfffffe9c <__eeprom_end+0xff7efe9c>
     d76:	24 32       	cpi	r18, 0x24	; 36
     d78:	89 4c       	sbci	r24, 0xC9	; 201
     d7a:	62 01       	movw	r12, r4
     d7c:	04 64       	ori	r16, 0x44	; 68
     d7e:	1c d8       	rcall	.-4040   	; 0xfffffdb8 <__eeprom_end+0xff7efdb8>
     d80:	12 d4       	rcall	.+2084   	; 0x15a6 <__stack+0x10a7>
     d82:	10 4d       	sbci	r17, 0xD0	; 208
     d84:	54 28       	or	r5, r4
     d86:	12 8a       	std	Z+18, r1	; 0x12
     d88:	4c 22       	and	r4, r28
     d8a:	93 c8       	rjmp	.-3802   	; 0xfffffeb2 <__eeprom_end+0xff7efeb2>
     d8c:	2e 6a       	ori	r18, 0xAE	; 174
     d8e:	12 99       	sbic	0x02, 2	; 2
     d90:	44 26       	eor	r4, r20
     d92:	91 50       	subi	r25, 0x01	; 1
     d94:	24 a4       	ldd	r2, Z+44	; 0x2c
     d96:	09 00       	.word	0x0009	; ????
     d98:	04 65       	ori	r16, 0x54	; 84
     d9a:	13 88       	ldd	r1, Z+19	; 0x13
     d9c:	12 d4       	rcall	.+2084   	; 0x15c2 <__stack+0x10c3>
     d9e:	10 4d       	sbci	r17, 0xD0	; 208
     da0:	54 28       	or	r5, r4
     da2:	b2 8b       	std	Z+18, r27	; 0x12
     da4:	9a 44       	sbci	r25, 0x4A	; 74
     da6:	26 91       	elpm	r18, Z
     da8:	90 26       	eor	r9, r16
     daa:	00 04       	cpc	r0, r0
     dac:	66 17       	cp	r22, r22
     dae:	d8 12       	cpse	r13, r24
     db0:	d4 93       	xch	Z, r29
     db2:	d2 44       	sbci	r29, 0x42	; 66
     db4:	5a 84       	ldd	r5, Y+10	; 0x0a
     db6:	c4 d2       	rcall	.+1416   	; 0x1340 <__stack+0xe41>
     db8:	c1 22       	and	r12, r17
     dba:	a1 48       	sbci	r26, 0x81	; 129
     dbc:	28 12       	cpse	r2, r24
     dbe:	8a 84       	ldd	r8, Y+10	; 0x0a
     dc0:	a2 00       	.word	0x00a2	; ????
     dc2:	04 67       	ori	r16, 0x74	; 116
     dc4:	11 88       	ldd	r1, Z+17	; 0x11
     dc6:	12 d4       	rcall	.+2084   	; 0x15ec <__stack+0x10ed>
     dc8:	93 d2       	rcall	.+1318   	; 0x12f0 <__stack+0xdf1>
     dca:	44 92       	xch	Z, r4
     dcc:	d1 c1       	rjmp	.+930    	; 0x1170 <__stack+0xc71>
     dce:	22 a1       	ldd	r18, Z+34	; 0x22
     dd0:	48 28       	or	r4, r8
     dd2:	0a 04       	cpc	r0, r10
     dd4:	68 1d       	adc	r22, r8
     dd6:	d7 12       	cpse	r13, r23
     dd8:	d4 88       	ldd	r13, Z+20	; 0x14
     dda:	85 42       	sbci	r24, 0x25	; 37
     ddc:	93 50       	subi	r25, 0x03	; 3
     dde:	24 45       	sbci	r18, 0x54	; 84
     de0:	32 89       	ldd	r19, Z+18	; 0x12
     de2:	49 62       	ori	r20, 0x29	; 41
     de4:	07 49       	sbci	r16, 0x97	; 151
     de6:	8a 24       	eor	r8, r10
     de8:	45 92       	las	Z, r4
     dea:	22 49       	sbci	r18, 0x92	; 146
     dec:	91 a4       	ldd	r9, Z+41	; 0x29
     dee:	48 32       	cpi	r20, 0x28	; 40
     df0:	04 69       	ori	r16, 0x94	; 148
     df2:	13 77       	andi	r17, 0x73	; 115
     df4:	32 d4       	rcall	.+2148   	; 0x165a <__stack+0x115b>
     df6:	88 85       	ldd	r24, Y+8	; 0x08
     df8:	42 93       	st	-Z, r20
     dfa:	50 24       	eor	r5, r0
     dfc:	72 88       	ldd	r7, Z+18	; 0x12
     dfe:	a4 48       	sbci	r26, 0x84	; 132
     e00:	52 24       	eor	r5, r2
     e02:	19 04       	cpc	r1, r9
     e04:	6a 17       	cp	r22, r26
     e06:	d8 12       	cpse	r13, r24
     e08:	d4 38       	cpi	r29, 0x84	; 132
     e0a:	0c 89       	ldd	r16, Y+20	; 0x14
     e0c:	12 91       	ld	r17, -Z
     e0e:	8c 2a       	or	r8, r28
     e10:	a5 59       	subi	r26, 0x95	; 149
     e12:	54 28       	or	r5, r4
     e14:	12 8a       	std	Z+18, r1	; 0x12
     e16:	84 22       	and	r8, r20
     e18:	a1 28       	or	r10, r1
     e1a:	04 6b       	ori	r16, 0xB4	; 180
     e1c:	10 88       	ldd	r1, Z+16	; 0x10
     e1e:	12 d4       	rcall	.+2084   	; 0x1644 <__stack+0x1145>
     e20:	38 44       	sbci	r19, 0x48	; 72
     e22:	44 32       	cpi	r20, 0x24	; 36
     e24:	aa 94       	dec	r10
     e26:	66 51       	subi	r22, 0x16	; 22
     e28:	a1 28       	or	r10, r1
     e2a:	04 6c       	ori	r16, 0xC4	; 196
     e2c:	1b d7       	rcall	.+3638   	; 0x1c64 <__stack+0x1765>
     e2e:	12 d4       	rcall	.+2084   	; 0x1654 <__stack+0x1155>
     e30:	88 58       	subi	r24, 0x88	; 136
     e32:	62 92       	st	-Z, r6
     e34:	98 44       	sbci	r25, 0x48	; 72
     e36:	32 9a       	sbi	0x06, 2	; 6
     e38:	94 42       	sbci	r25, 0x24	; 36
     e3a:	93 88       	ldd	r9, Z+19	; 0x13
     e3c:	25 45       	sbci	r18, 0x55	; 85
     e3e:	92 22       	and	r9, r18
     e40:	49 91       	ld	r20, Y+
     e42:	a4 48       	sbci	r26, 0x84	; 132
     e44:	32 04       	cpc	r3, r2
     e46:	6d 11       	cpse	r22, r13
     e48:	77 32       	cpi	r23, 0x27	; 39
     e4a:	d4 88       	ldd	r13, Z+20	; 0x14
     e4c:	58 62       	ori	r21, 0x28	; 40
     e4e:	a2 48       	sbci	r26, 0x82	; 130
     e50:	a4 14       	cp	r10, r4
     e52:	9a 64       	ori	r25, 0x4A	; 74
     e54:	91 64       	ori	r25, 0x41	; 65
     e56:	04 6e       	ori	r16, 0xE4	; 228
     e58:	1b 28       	or	r1, r11
     e5a:	d3 d3       	rcall	.+1958   	; 0x1602 <__stack+0x1103>
     e5c:	11 c9       	rjmp	.-3550   	; 0x80 <__SREG__+0x41>
     e5e:	a8 72       	andi	r26, 0x28	; 40
     e60:	30 4d       	sbci	r19, 0xD0	; 208
     e62:	24 11       	cpse	r18, r4
     e64:	12 a5       	ldd	r17, Z+42	; 0x2a
     e66:	c2 39       	cpi	r28, 0x92	; 146
     e68:	40 0e       	add	r4, r16
     e6a:	10 ab       	std	Z+48, r17	; 0x30
     e6c:	8a 4a       	sbci	r24, 0xAA	; 170
     e6e:	62 31       	cpi	r22, 0x12	; 18
     e70:	00 04       	cpc	r0, r0
     e72:	6f 15       	cp	r22, r15
     e74:	e8 d2       	rcall	.+1488   	; 0x1446 <__stack+0xf47>
     e76:	d3 11       	cpse	r29, r3
     e78:	c9 a8       	ldd	r12, Y+49	; 0x31
     e7a:	72 a8       	ldd	r7, Z+50	; 0x32
     e7c:	45 48       	sbci	r20, 0x85	; 133
     e7e:	94 ca       	rjmp	.-2776   	; 0x3a8 <__trampolines_end+0x2f0>
     e80:	01 62       	ori	r16, 0x21	; 33
     e82:	15 8b       	std	Z+21, r17	; 0x15
     e84:	58 0c       	add	r5, r8
     e86:	04 70       	andi	r16, 0x04	; 4
     e88:	16 d8       	rcall	.-4052   	; 0xfffffeb6 <__eeprom_end+0xff7efeb6>
     e8a:	12 d4       	rcall	.+2084   	; 0x16b0 <__stack+0x11b1>
     e8c:	90 48       	sbci	r25, 0x80	; 128
     e8e:	28 12       	cpse	r2, r24
     e90:	8a 84       	ldd	r8, Y+10	; 0x0a
     e92:	22 a1       	ldd	r18, Z+34	; 0x22
     e94:	48 28       	or	r4, r8
     e96:	2a 36       	cpi	r18, 0x6A	; 106
     e98:	aa 58       	subi	r26, 0x8A	; 138
     e9a:	37 00       	.word	0x0037	; ????
     e9c:	04 71       	andi	r16, 0x14	; 20
     e9e:	17 c8       	rjmp	.-4050   	; 0xfffffece <__eeprom_end+0xff7efece>
     ea0:	d2 d3       	rcall	.+1956   	; 0x1646 <__stack+0x1147>
     ea2:	13 cb       	rjmp	.-2522   	; 0x4ca <__LOCK_REGION_LENGTH__+0xca>
     ea4:	24 12       	cpse	r2, r20
     ea6:	8a 84       	ldd	r8, Y+10	; 0x0a
     ea8:	22 a1       	ldd	r18, Z+34	; 0x22
     eaa:	48 28       	or	r4, r8
     eac:	12 8a       	std	Z+18, r1	; 0x12
     eae:	8a 8d       	ldd	r24, Y+26	; 0x1a
     eb0:	2a 96       	adiw	r28, 0x0a	; 10
     eb2:	01 04       	cpc	r0, r1
     eb4:	72 12       	cpse	r7, r18
     eb6:	d8 12       	cpse	r13, r24
     eb8:	d4 a2       	std	Z+36, r13	; 0x24
     eba:	89 24       	eor	r8, r9
     ebc:	42 8e       	std	Z+26, r4	; 0x1a
     ebe:	87 22       	and	r8, r23
     ec0:	47 89       	ldd	r20, Z+23	; 0x17
     ec2:	48 46       	sbci	r20, 0x68	; 104
     ec4:	02 04       	cpc	r0, r2
     ec6:	73 11       	cpse	r23, r3
     ec8:	88 12       	cpse	r8, r24
     eca:	d4 a2       	std	Z+36, r13	; 0x24
     ecc:	89 24       	eor	r8, r9
     ece:	c2 43       	sbci	r28, 0x32	; 50
     ed0:	91 28       	or	r9, r1
     ed2:	11 c9       	rjmp	.-3550   	; 0xf6 <__trampolines_end+0x3e>
     ed4:	48 00       	.word	0x0048	; ????
     ed6:	04 74       	andi	r16, 0x44	; 68
     ed8:	12 d8       	rcall	.-4060   	; 0xfffffefe <__eeprom_end+0xff7efefe>
     eda:	12 d4       	rcall	.+2084   	; 0x1700 <__stack+0x1201>
     edc:	10 d2       	rcall	.+1056   	; 0x12fe <__stack+0xdff>
     ede:	24 32       	cpi	r18, 0x24	; 36
     ee0:	89 48       	sbci	r24, 0x89	; 137
     ee2:	bf 11       	cpse	r27, r15
     ee4:	59 c5       	rjmp	.+2738   	; 0x1998 <__stack+0x1499>
     ee6:	8a 00       	.word	0x008a	; ????
     ee8:	04 75       	andi	r16, 0x54	; 84
     eea:	0f 88       	ldd	r0, Y+23	; 0x17
     eec:	12 d4       	rcall	.+2084   	; 0x1712 <__stack+0x1213>
     eee:	10 d2       	rcall	.+1056   	; 0x1310 <__stack+0xe11>
     ef0:	24 22       	and	r2, r20
     ef2:	6d 44       	sbci	r22, 0x4D	; 77
     ef4:	aa 58       	subi	r26, 0x8A	; 138
     ef6:	08 04       	cpc	r0, r8
     ef8:	76 16       	cp	r7, r22
     efa:	f8 12       	cpse	r15, r24
     efc:	d4 10       	cpse	r13, r4
     efe:	c9 44       	sbci	r28, 0x49	; 73
     f00:	72 90       	ld	r7, -Z
     f02:	90 26       	eor	r9, r16
     f04:	91 49       	sbci	r25, 0x91	; 145
     f06:	44 fa       	bst	r4, 4
     f08:	8d c8       	rjmp	.-3814   	; 0x24 <__FUSE_REGION_LENGTH__+0x21>
     f0a:	2a 16       	cp	r2, r26
     f0c:	02 04       	cpc	r0, r2
     f0e:	77 14       	cp	r7, r7
     f10:	b8 12       	cpse	r11, r24
     f12:	d4 10       	cpse	r13, r4
     f14:	c9 44       	sbci	r28, 0x49	; 73
     f16:	72 90       	ld	r7, -Z
     f18:	90 26       	eor	r9, r16
     f1a:	11 69       	ori	r17, 0x91	; 145
     f1c:	23 52       	subi	r18, 0x23	; 35
     f1e:	c5 42       	sbci	r28, 0x25	; 37
     f20:	00 04       	cpc	r0, r0
     f22:	78 20       	and	r7, r8
     f24:	0a b1       	in	r16, 0x0a	; 10
     f26:	d3 19       	sub	r29, r3
     f28:	4b a4       	ldd	r4, Y+43	; 0x2b
     f2a:	12 a9       	ldd	r17, Z+50	; 0x32
     f2c:	44 2a       	or	r4, r20
     f2e:	91 4a       	sbci	r25, 0xA1	; 161
     f30:	f8 45       	sbci	r31, 0x58	; 88
     f32:	12 a1       	ldd	r17, Z+34	; 0x22
     f34:	48 2c       	mov	r4, r8
     f36:	a2 8a       	std	Z+18, r10	; 0x12
     f38:	48 34       	cpi	r20, 0x48	; 72
     f3a:	93 03       	fmuls	r17, r19
     f3c:	e4 00       	.word	0x00e4	; ????
     f3e:	39 44       	sbci	r19, 0x49	; 73
     f40:	06 04       	cpc	r0, r6
     f42:	79 19       	sub	r23, r9
     f44:	ba b0       	in	r11, 0x0a	; 10
     f46:	d3 99       	sbic	0x1a, 3	; 26
     f48:	48 f8       	.word	0xf848	; ????
     f4a:	22 89       	ldd	r18, Z+18	; 0x12
     f4c:	50 24       	eor	r5, r0
     f4e:	16 51       	subi	r17, 0x16	; 22
     f50:	45 24       	eor	r4, r5
     f52:	9a c9       	rjmp	.-3276   	; 0x288 <__trampolines_end+0x1d0>
     f54:	01 72       	andi	r16, 0x21	; 33
     f56:	80 1c       	adc	r8, r0
     f58:	22 03       	mulsu	r18, r18
     f5a:	04 7a       	andi	r16, 0xA4	; 164
     f5c:	11 f8       	bld	r1, 1
     f5e:	f2 d3       	rcall	.+2020   	; 0x1744 <__stack+0x1245>
     f60:	93 d2       	rcall	.+1318   	; 0x1488 <__stack+0xf89>
     f62:	2c 2a       	or	r2, r28
     f64:	44 fe       	sbrs	r4, 4
     f66:	a2 62       	ori	r26, 0x22	; 34
     f68:	a3 ca       	rjmp	.-2746   	; 0x4b0 <__LOCK_REGION_LENGTH__+0xb0>
     f6a:	00 04       	cpc	r0, r0
     f6c:	7b 10       	cpse	r7, r11
     f6e:	a8 f2       	brcs	.-86     	; 0xf1a <__stack+0xa1b>
     f70:	d3 93       	.word	0x93d3	; ????
     f72:	d2 2c       	mov	r13, r2
     f74:	2a 44       	sbci	r18, 0x4A	; 74
     f76:	16 15       	cp	r17, r6
     f78:	1b 55       	subi	r17, 0x5B	; 91
     f7a:	06 04       	cpc	r0, r6
     f7c:	7c 1a       	sub	r7, r28
     f7e:	f8 12       	cpse	r15, r24
     f80:	d4 b1       	in	r29, 0x04	; 4
     f82:	08 e5       	ldi	r16, 0x58	; 88
     f84:	20 15       	cp	r18, r0
     f86:	21 17       	cp	r18, r17
     f88:	09 45       	sbci	r16, 0x59	; 89
     f8a:	42 91       	ld	r20, -Z
     f8c:	50 24       	eor	r5, r0
     f8e:	14 09       	sbc	r17, r4
     f90:	45 42       	sbci	r20, 0x25	; 37
     f92:	d1 24       	eor	r13, r1
     f94:	01 04       	cpc	r0, r1
     f96:	7d 18       	sub	r7, r13
     f98:	b8 12       	cpse	r11, r24
     f9a:	d4 b1       	in	r29, 0x04	; 4
     f9c:	08 e5       	ldi	r16, 0x58	; 88
     f9e:	10 21       	and	r17, r0
     fa0:	45 42       	sbci	r20, 0x25	; 37
     fa2:	91 50       	subi	r25, 0x01	; 1
     fa4:	24 14       	cp	r2, r4
     fa6:	09 45       	sbci	r16, 0x59	; 89
     fa8:	72 98       	cbi	0x0e, 2	; 14
     faa:	88 24       	eor	r8, r8
     fac:	00 04       	cpc	r0, r0
     fae:	7e 1b       	sub	r23, r30
     fb0:	f8 12       	cpse	r15, r24
     fb2:	d4 38       	cpi	r29, 0x84	; 132
     fb4:	88 44       	sbci	r24, 0x48	; 72
     fb6:	71 90       	ld	r7, Z+
     fb8:	8a 90       	ld	r8, -Y
     fba:	8b 84       	ldd	r8, Y+11	; 0x0b
     fbc:	22 a1       	ldd	r18, Z+34	; 0x22
     fbe:	48 28       	or	r4, r8
     fc0:	12 8a       	std	Z+18, r1	; 0x12
     fc2:	84 22       	and	r8, r20
     fc4:	a1 68       	ori	r26, 0x81	; 129
     fc6:	92 00       	.word	0x0092	; ????
     fc8:	04 7f       	andi	r16, 0xF4	; 244
     fca:	19 b8       	out	0x09, r1	; 9
     fcc:	12 d4       	rcall	.+2084   	; 0x17f2 <__stack+0x12f3>
     fce:	38 88       	ldd	r3, Y+16	; 0x10
     fd0:	44 71       	andi	r20, 0x14	; 20
     fd2:	88 90       	.word	0x9088	; ????
     fd4:	22 a1       	ldd	r18, Z+34	; 0x22
     fd6:	48 28       	or	r4, r8
     fd8:	12 8a       	std	Z+18, r1	; 0x12
     fda:	84 22       	and	r8, r20
     fdc:	39 4c       	sbci	r19, 0xC9	; 201
     fde:	44 12       	cpse	r4, r20
     fe0:	00 04       	cpc	r0, r0
     fe2:	80 13       	cpse	r24, r16
     fe4:	f8 d2       	rcall	.+1520   	; 0x15d6 <__stack+0x10d7>
     fe6:	d3 a2       	std	Z+35, r13	; 0x23
     fe8:	89 24       	eor	r8, r9
     fea:	42 b2       	in	r4, 0x12	; 18
     fec:	7e 07       	cpc	r23, r30
     fee:	c8 01       	movw	r24, r16
     ff0:	74 80       	ldd	r7, Z+4	; 0x04
     ff2:	58 02       	muls	r21, r24
     ff4:	04 81       	ldd	r16, Z+4	; 0x04
     ff6:	11 a8       	ldd	r1, Z+49	; 0x31
     ff8:	d2 d3       	rcall	.+1956   	; 0x179e <__stack+0x129f>
     ffa:	2a c9       	rjmp	.-3500   	; 0x250 <__trampolines_end+0x198>
     ffc:	c8 da       	rcall	.-2672   	; 0x58e <__stack+0x8f>
     ffe:	01 72       	andi	r16, 0x21	; 33
    1000:	c0 1c       	adc	r12, r0
    1002:	20 16       	cp	r2, r16
    1004:	01 04       	cpc	r0, r1
    1006:	82 14       	cp	r8, r2
    1008:	c8 12       	cpse	r12, r24
    100a:	d4 96       	adiw	r26, 0x34	; 52
    100c:	ca 24       	eor	r12, r10
    100e:	c2 f1       	brmi	.+112    	; 0x1080 <__stack+0xb81>
    1010:	50 42       	sbci	r21, 0x20	; 32
    1012:	11 8e       	std	Z+25, r1	; 0x19
    1014:	87 12       	cpse	r8, r23
    1016:	99 54       	subi	r25, 0x49	; 73
    1018:	0c 04       	cpc	r0, r12
    101a:	83 09       	sbc	r24, r3
    101c:	36 b2       	in	r3, 0x16	; 22
    101e:	d5 3c       	cpi	r29, 0xC5	; 197
    1020:	0c 01       	movw	r0, r24
    1022:	04 84       	ldd	r0, Z+12	; 0x0c
    1024:	0a 37       	cpi	r16, 0x7A	; 122
    1026:	b0 d5       	rcall	.+2912   	; 0x1b88 <__stack+0x1689>
    1028:	22 89       	ldd	r18, Z+18	; 0x12
    102a:	68 02       	muls	r22, r24
    102c:	04 85       	ldd	r16, Z+12	; 0x0c
    102e:	09 35       	cpi	r16, 0x59	; 89
    1030:	b2 d5       	rcall	.+2916   	; 0x1b96 <__stack+0x1697>
    1032:	90 dd       	rcall	.-1248   	; 0xb54 <__stack+0x655>
    1034:	00 04       	cpc	r0, r0
    1036:	86 08       	sbc	r8, r6
    1038:	35 b2       	in	r3, 0x15	; 21
    103a:	d5 bb       	out	0x15, r29	; 21
    103c:	09 04       	cpc	r0, r9
    103e:	87 0b       	sbc	r24, r23
    1040:	38 b2       	in	r3, 0x18	; 24
    1042:	d5 19       	sub	r29, r5
    1044:	4a 46       	sbci	r20, 0x6A	; 106
    1046:	b2 01       	movw	r22, r4
    1048:	04 88       	ldd	r0, Z+20	; 0x14
    104a:	19 4a       	sbci	r17, 0xA9	; 169
    104c:	91 d3       	rcall	.+1826   	; 0x1770 <__stack+0x1271>
    104e:	4d 8a       	std	Y+21, r4	; 0x15
    1050:	c4 22       	and	r12, r20
    1052:	d1 38       	cpi	r29, 0x81	; 129
    1054:	24 1d       	adc	r18, r4
    1056:	ff ff       	.word	0xffff	; ????
    1058:	14 87       	std	Z+12, r17	; 0x0c
    105a:	a4 26       	eor	r10, r20
    105c:	45 62       	ori	r20, 0x25	; 37
    105e:	91 20       	and	r9, r1
    1060:	00 04       	cpc	r0, r0
    1062:	89 17       	cp	r24, r25
    1064:	4a 91       	ld	r20, -Y
    1066:	d3 4d       	sbci	r29, 0xD3	; 211
    1068:	0a ca       	rjmp	.-3052   	; 0x47e <__LOCK_REGION_LENGTH__+0x7e>
    106a:	44 11       	cpse	r20, r4
    106c:	b1 1c       	adc	r11, r1
    106e:	ff ff       	.word	0xffff	; ????
    1070:	22 96       	adiw	r28, 0x02	; 2
    1072:	84 64       	ori	r24, 0x44	; 68
    1074:	c2 50       	subi	r28, 0x02	; 2
    1076:	34 0a       	sbc	r3, r20
    1078:	04 8a       	std	Z+20, r0	; 0x14
    107a:	24 39       	cpi	r18, 0x94	; 148
    107c:	b3 d3       	rcall	.+1894   	; 0x17e4 <__stack+0x12e5>
    107e:	11 09       	sbc	r17, r1
    1080:	e9 50       	subi	r30, 0x09	; 9
    1082:	a1 44       	sbci	r26, 0x41	; 65
    1084:	28 11       	cpse	r18, r8
    1086:	4a 84       	ldd	r4, Y+10	; 0x0a
    1088:	12 d9       	rcall	.-3548   	; 0x2ae <__trampolines_end+0x1f6>
    108a:	44 44       	sbci	r20, 0x44	; 68
    108c:	91 b4       	in	r9, 0x21	; 33
    108e:	48 48       	sbci	r20, 0x88	; 136
    1090:	92 99       	sbic	0x12, 2	; 18
    1092:	44 28       	or	r4, r4
    1094:	11 4a       	sbci	r17, 0xA1	; 161
    1096:	84 73       	andi	r24, 0x34	; 52
    1098:	80 58       	subi	r24, 0x80	; 128
    109a:	09 00       	.word	0x0009	; ????
    109c:	04 8b       	std	Z+20, r16	; 0x14
    109e:	1b e9       	ldi	r17, 0x9B	; 155
    10a0:	b2 d3       	rcall	.+1892   	; 0x1806 <__stack+0x1307>
    10a2:	11 09       	sbc	r17, r1
    10a4:	e9 50       	subi	r30, 0x09	; 9
    10a6:	a1 44       	sbci	r26, 0x41	; 65
    10a8:	28 91       	.word	0x9128	; ????
    10aa:	4d 44       	sbci	r20, 0x4D	; 77
    10ac:	14 2d       	mov	r17, r4
    10ae:	24 c9       	rjmp	.-3512   	; 0x2f8 <__trampolines_end+0x240>
    10b0:	4c 22       	and	r4, r28
    10b2:	9c 03       	fmulsu	r17, r20
    10b4:	c4 4a       	sbci	r28, 0xA4	; 164
    10b6:	00 04       	cpc	r0, r0
    10b8:	8c 1a       	sub	r8, r28
    10ba:	d9 10       	cpse	r13, r9
    10bc:	d4 91       	lpm	r29, Z
    10be:	03 c4       	rjmp	.+2054   	; 0x18c6 <__stack+0x13c7>
    10c0:	64 39       	cpi	r22, 0x94	; 148
    10c2:	40 0e       	add	r4, r16
    10c4:	b0 29       	or	r27, r0
    10c6:	09 25       	eor	r16, r9
    10c8:	42 89       	ldd	r20, Z+18	; 0x12
    10ca:	50 22       	and	r5, r16
    10cc:	94 c8       	rjmp	.-3800   	; 0x1f6 <__trampolines_end+0x13e>
    10ce:	44 26       	eor	r4, r20
    10d0:	00 04       	cpc	r0, r0
    10d2:	8d 12       	cpse	r8, r29
    10d4:	89 10       	cpse	r8, r9
    10d6:	d4 11       	cpse	r29, r4
    10d8:	93 e5       	ldi	r25, 0x53	; 83
    10da:	80 93 50 22 	sts	0x2250, r24	; 0x802250 <__bss_end+0x1ea5>
    10de:	94 08       	sbc	r9, r4
    10e0:	25 17       	cp	r18, r21
    10e2:	00 04       	cpc	r0, r0
    10e4:	8e 12       	cpse	r8, r30
    10e6:	d8 12       	cpse	r13, r24
    10e8:	d4 30       	cpi	r29, 0x04	; 4
    10ea:	c9 24       	eor	r12, r9
    10ec:	42 2e       	mov	r4, r18
    10ee:	12 d2       	rcall	.+1060   	; 0x1514 <__stack+0x1015>
    10f0:	e4 22       	and	r14, r20
    10f2:	24 6b       	ori	r18, 0xB4	; 180
    10f4:	06 04       	cpc	r0, r6
    10f6:	8f 14       	cp	r8, r15
    10f8:	c8 92       	.word	0x92c8	; ????
    10fa:	d3 90       	.word	0x90d3	; ????
    10fc:	8c 46       	sbci	r24, 0x6C	; 108
    10fe:	12 21       	and	r17, r2
    1100:	17 49       	sbci	r17, 0x97	; 151
    1102:	65 22       	and	r6, r21
    1104:	a1 08       	sbc	r10, r1
    1106:	c9 ca       	rjmp	.-2670   	; 0x69a <__stack+0x19b>
    1108:	00 04       	cpc	r0, r0
    110a:	90 0c       	add	r9, r0
    110c:	e8 12       	cpse	r14, r24
    110e:	d4 16       	cp	r13, r20
    1110:	1f ca       	rjmp	.-3010   	; 0x550 <__stack+0x51>
    1112:	fa cf       	rjmp	.-12     	; 0x1108 <__stack+0xc09>
    1114:	00 04       	cpc	r0, r0
    1116:	91 0b       	sbc	r25, r17
    1118:	a8 12       	cpse	r10, r24
    111a:	d4 16       	cp	r13, r20
    111c:	1f ca       	rjmp	.-3010   	; 0x55c <__stack+0x5d>
    111e:	fa 0c       	add	r15, r10
    1120:	04 92       	xch	Z, r0
    1122:	0d d8       	rcall	.-4070   	; 0x13e <__trampolines_end+0x86>
    1124:	12 d4       	rcall	.+2084   	; 0x194a <__stack+0x144b>
    1126:	32 89       	ldd	r19, Z+18	; 0x12
    1128:	75 34       	cpi	r23, 0x45	; 69
    112a:	8a f5       	brpl	.+98     	; 0x118e <__stack+0xc8f>
    112c:	08 04       	cpc	r0, r8
    112e:	93 0d       	add	r25, r3
    1130:	88 12       	cpse	r8, r24
    1132:	d4 32       	cpi	r29, 0x24	; 36
    1134:	89 15       	cp	r24, r9
    1136:	6f 62       	ori	r22, 0x2F	; 47
    1138:	45 00       	.word	0x0045	; ????
    113a:	04 94       	.word	0x9404	; ????
    113c:	12 f8       	bld	r1, 2
    113e:	d2 d3       	rcall	.+1956   	; 0x18e4 <__stack+0x13e5>
    1140:	38 8c       	ldd	r3, Y+24	; 0x18
    1142:	75 36       	cpi	r23, 0x65	; 101
    1144:	c9 24       	eor	r12, r9
    1146:	42 1e       	adc	r4, r18
    1148:	c5 52       	subi	r28, 0x25	; 37
    114a:	09 00       	.word	0x0009	; ????
    114c:	04 95       	.word	0x9504	; ????
    114e:	12 a8       	ldd	r1, Z+50	; 0x32
    1150:	d2 d3       	rcall	.+1956   	; 0x18f6 <__stack+0x13f7>
    1152:	38 8c       	ldd	r3, Y+24	; 0x18
    1154:	95 4d       	sbci	r25, 0xD5	; 213
    1156:	32 89       	ldd	r19, Z+18	; 0x12
    1158:	4c 22       	and	r4, r28
    115a:	13 4b       	sbci	r17, 0xB3	; 179
    115c:	45 00       	.word	0x0045	; ????
    115e:	04 96       	adiw	r24, 0x04	; 4
    1160:	14 f9       	bld	r17, 4
    1162:	d2 d3       	rcall	.+1956   	; 0x1908 <__stack+0x1409>
    1164:	90 e8       	ldi	r25, 0x80	; 128
    1166:	ff 93       	push	r31
    1168:	91 68       	ori	r25, 0x81	; 129
    116a:	92 e8       	ldi	r25, 0x82	; 130
    116c:	ff 65       	ori	r31, 0x5F	; 95
    116e:	0e 90       	ld	r0, -X
    1170:	03 04       	cpc	r0, r3
    1172:	04 97       	sbiw	r24, 0x04	; 4
    1174:	12 a9       	ldd	r17, Z+50	; 0x32
    1176:	d2 d3       	rcall	.+1956   	; 0x191c <__stack+0x141d>
    1178:	90 e8       	ldi	r25, 0x80	; 128
    117a:	4f 36       	cpi	r20, 0x6F	; 111
    117c:	93 44       	sbci	r25, 0x43	; 67
    117e:	bf cc       	rjmp	.-1666   	; 0xafe <__stack+0x5ff>
    1180:	01 72       	andi	r16, 0x21	; 33
    1182:	80 00       	.word	0x0080	; ????
    1184:	04 98       	cbi	0x00, 4	; 0
    1186:	1a 08       	sbc	r1, r10
    1188:	b3 d3       	rcall	.+1894   	; 0x18f0 <__stack+0x13f1>
    118a:	a2 89       	ldd	r26, Z+18	; 0x12
    118c:	24 42       	sbci	r18, 0x24	; 36
    118e:	a2 58       	subi	r26, 0x82	; 130
    1190:	2a 9c       	mul	r2, r10
    1192:	03 e4       	ldi	r16, 0x43	; 67
    1194:	00 22       	and	r0, r16
    1196:	51 22       	and	r5, r17
    1198:	92 51       	subi	r25, 0x12	; 18
    119a:	c5 52       	subi	r28, 0x25	; 37
    119c:	21 00       	.word	0x0021	; ????
    119e:	04 99       	sbic	0x00, 4	; 0
    11a0:	13 b8       	out	0x03, r1	; 3
    11a2:	b2 d3       	rcall	.+1892   	; 0x1908 <__stack+0x1409>
    11a4:	b1 08       	sbc	r11, r1
    11a6:	c5 a2       	std	Z+37, r12	; 0x25
    11a8:	3a 40       	sbci	r19, 0x0A	; 10
    11aa:	4c 94 18 c5 	jmp	0x118a30	; 0x118a30 <__TEXT_REGION_LENGTH__+0xf8a30>
    11ae:	52 21       	and	r21, r2
    11b0:	00 04       	cpc	r0, r0
    11b2:	9a 1d       	adc	r25, r10
    11b4:	f9 d2       	rcall	.+1522   	; 0x17a8 <__stack+0x12a9>
    11b6:	d3 90       	.word	0x90d3	; ????
    11b8:	46 84       	ldd	r4, Z+14	; 0x0e
    11ba:	12 99       	sbic	0x02, 2	; 2
    11bc:	48 26       	eor	r4, r24
    11be:	52 13       	cpse	r21, r18
    11c0:	c9 8a       	std	Y+17, r12	; 0x11
    11c2:	22 99       	sbic	0x04, 2	; 4
    11c4:	48 a6       	std	Y+40, r4	; 0x28
    11c6:	24 13       	cpse	r18, r20
    11c8:	09 8b       	std	Y+17, r16	; 0x11
    11ca:	73 80       	ldd	r7, Z+3	; 0x03
    11cc:	1c 20       	and	r1, r12
    11ce:	04 9b       	sbis	0x00, 4	; 0
    11d0:	15 a9       	ldd	r17, Z+53	; 0x35
    11d2:	d2 d3       	rcall	.+1956   	; 0x1978 <__stack+0x1479>
    11d4:	10 86       	std	Z+8, r1	; 0x08
    11d6:	64 22       	and	r6, r20
    11d8:	b5 62       	ori	r27, 0x25	; 37
    11da:	51 24       	eor	r5, r1
    11dc:	53 12       	cpse	r5, r19
    11de:	ce 01       	movw	r24, r28
    11e0:	72 80       	ldd	r7, Z+2	; 0x02
    11e2:	00 04       	cpc	r0, r0
    11e4:	9c 1c       	adc	r9, r12
    11e6:	d8 12       	cpse	r13, r24
    11e8:	d4 10       	cpse	r13, r4
    11ea:	d2 24       	eor	r13, r2
    11ec:	32 89       	ldd	r19, Z+18	; 0x12
    11ee:	24 a2       	std	Z+36, r2	; 0x24
    11f0:	12 51       	subi	r17, 0x12	; 18
    11f2:	89 48       	sbci	r24, 0x89	; 137
    11f4:	4c 92       	st	X, r4
    11f6:	88 4a       	sbci	r24, 0xA8	; 168
    11f8:	44 25       	eor	r20, r4
    11fa:	a2 26       	eor	r10, r18
    11fc:	11 12       	cpse	r1, r17
    11fe:	05 04       	cpc	r0, r5
    1200:	9d 12       	cpse	r9, r29
    1202:	88 12       	cpse	r8, r24
    1204:	d4 10       	cpse	r13, r4
    1206:	52 42       	sbci	r21, 0x22	; 34
    1208:	94 88       	ldd	r9, Z+20	; 0x14
    120a:	e4 45       	sbci	r30, 0x54	; 84
    120c:	12 51       	subi	r17, 0x12	; 18
    120e:	09 11       	cpse	r16, r9
    1210:	05 04       	cpc	r0, r5
    1212:	9e 1a       	sub	r9, r30
    1214:	d9 10       	cpse	r13, r9
    1216:	d4 91       	lpm	r29, Z
    1218:	46 84       	ldd	r4, Z+14	; 0x0e
    121a:	17 91       	elpm	r17, Z+
    121c:	4c a4       	ldd	r4, Y+44	; 0x2c
    121e:	26 92       	lac	Z, r2
    1220:	15 45       	sbci	r17, 0x55	; 85
    1222:	32 91       	ld	r19, -Z
    1224:	4c 49       	sbci	r20, 0x9C	; 156
    1226:	26 12       	cpse	r2, r22
    1228:	4a 84       	ldd	r4, Y+10	; 0x0a
    122a:	02 04       	cpc	r0, r2
    122c:	9f 18       	sub	r9, r15
    122e:	d9 10       	cpse	r13, r9
    1230:	d4 91       	lpm	r29, Z
    1232:	03 e4       	ldi	r16, 0x43	; 67
    1234:	00 71       	andi	r16, 0x10	; 16
    1236:	55 0e       	add	r5, r21
    1238:	90 89       	ldd	r25, Z+16	; 0x10
    123a:	d4 24       	eor	r13, r4
    123c:	42 6a       	ori	r20, 0xA2	; 162
    123e:	51 24       	eor	r5, r1
    1240:	53 12       	cpse	r5, r19
    1242:	0a 04       	cpc	r0, r10
    1244:	a0 1b       	sub	r26, r16
    1246:	d9 10       	cpse	r13, r9
    1248:	d4 98       	cbi	0x1a, 4	; 26
    124a:	46 84       	ldd	r4, Z+14	; 0x0e
    124c:	12 99       	sbic	0x02, 2	; 2
    124e:	48 26       	eor	r4, r24
    1250:	52 13       	cpse	r21, r18
    1252:	c9 8a       	std	Y+17, r12	; 0x11
    1254:	22 99       	sbic	0x04, 2	; 4
    1256:	48 a6       	std	Y+40, r4	; 0x28
    1258:	24 13       	cpse	r18, r20
    125a:	09 25       	eor	r16, r9
    125c:	42 01       	movw	r8, r4
    125e:	04 a1       	ldd	r16, Z+36	; 0x24
    1260:	11 89       	ldd	r17, Z+17	; 0x11
    1262:	10 d4       	rcall	.+2080   	; 0x1a84 <__stack+0x1585>
    1264:	18 4a       	sbci	r17, 0xA8	; 168
    1266:	64 22       	and	r6, r20
    1268:	b5 62       	ori	r27, 0x25	; 37
    126a:	51 24       	eor	r5, r1
    126c:	53 12       	cpse	r5, r19
    126e:	0a 04       	cpc	r0, r10
    1270:	a2 21       	and	r26, r2
    1272:	f9 d2       	rcall	.+1522   	; 0x1866 <__stack+0x1367>
    1274:	d3 10       	cpse	r13, r3
    1276:	4a 84       	ldd	r4, Y+10	; 0x0a
    1278:	12 a1       	ldd	r17, Z+34	; 0x22
    127a:	44 28       	or	r4, r4
    127c:	11 4a       	sbci	r17, 0xA1	; 161
    127e:	84 92       	xch	Z, r8
    1280:	43 44       	sbci	r20, 0x43	; 67
    1282:	28 11       	cpse	r18, r8
    1284:	4a 84       	ldd	r4, Y+10	; 0x0a
    1286:	12 a1       	ldd	r17, Z+34	; 0x22
    1288:	44 28       	or	r4, r4
    128a:	11 ce       	rjmp	.-990    	; 0xeae <__stack+0x9af>
    128c:	01 72       	andi	r16, 0x21	; 33
    128e:	80 00       	.word	0x0080	; ????
    1290:	04 a3       	std	Z+36, r16	; 0x24
    1292:	18 a9       	ldd	r17, Y+48	; 0x30
    1294:	d2 d3       	rcall	.+1956   	; 0x1a3a <__stack+0x153b>
    1296:	10 4a       	sbci	r17, 0xA0	; 160
    1298:	84 12       	cpse	r8, r20
    129a:	a1 e4       	ldi	r26, 0x41	; 65
    129c:	10 11       	cpse	r17, r0
    129e:	4a 84       	ldd	r4, Y+10	; 0x0a
    12a0:	12 a1       	ldd	r17, Z+34	; 0x22
    12a2:	44 38       	cpi	r20, 0x84	; 132
    12a4:	07 c8       	rjmp	.-4082   	; 0x2b4 <__trampolines_end+0x1fc>
    12a6:	01 02       	muls	r16, r17
    12a8:	04 a4       	ldd	r0, Z+44	; 0x2c
    12aa:	1d da       	rcall	.-3014   	; 0x6e6 <__stack+0x1e7>
    12ac:	10 d4       	rcall	.+2080   	; 0x1ace <__stack+0x15cf>
    12ae:	10 1d       	adc	r17, r0
    12b0:	42 42       	sbci	r20, 0x22	; 34
    12b2:	91 50       	subi	r25, 0x01	; 1
    12b4:	24 14       	cp	r2, r4
    12b6:	09 45       	sbci	r16, 0x59	; 89
    12b8:	42 a3       	std	Z+34, r20	; 0x22
    12ba:	48 28       	or	r4, r8
    12bc:	12 8a       	std	Z+18, r1	; 0x12
    12be:	84 22       	and	r8, r20
    12c0:	a1 48       	sbci	r26, 0x81	; 129
    12c2:	28 12       	cpse	r2, r24
    12c4:	02 04       	cpc	r0, r2
    12c6:	a5 14       	cp	r10, r5
    12c8:	88 12       	cpse	r8, r24
    12ca:	d4 90       	lpm	r13, Z
    12cc:	5c 64       	ori	r21, 0x4C	; 76
    12ce:	12 59       	subi	r17, 0x92	; 146
    12d0:	4d 22       	and	r4, r29
    12d2:	93 c8       	rjmp	.-3802   	; 0x3fa <__trampolines_end+0x342>
    12d4:	24 32       	cpi	r18, 0x24	; 36
    12d6:	89 0c       	add	r8, r9
    12d8:	00 04       	cpc	r0, r0
    12da:	a6 21       	and	r26, r6
    12dc:	f9 d0       	rcall	.+498    	; 0x14d0 <__stack+0xfd1>
    12de:	d3 b0       	in	r13, 0x03	; 3
    12e0:	89 64       	ori	r24, 0x49	; 73
    12e2:	22 99       	sbic	0x04, 2	; 4
    12e4:	48 26       	eor	r4, r24
    12e6:	92 89       	ldd	r25, Z+18	; 0x12
    12e8:	64 22       	and	r6, r20
    12ea:	8a 48       	sbci	r24, 0x8A	; 138
    12ec:	42 92       	st	-Z, r4
    12ee:	90 24       	eor	r9, r0
    12f0:	24 09       	sbc	r18, r4
    12f2:	49 42       	sbci	r20, 0x29	; 41
    12f4:	92 c8       	rjmp	.-3804   	; 0x41a <__LOCK_REGION_LENGTH__+0x1a>
    12f6:	01 62       	ori	r16, 0x21	; 33
    12f8:	09 00       	.word	0x0009	; ????
    12fa:	04 a7       	std	Z+44, r16	; 0x2c
    12fc:	16 a8       	ldd	r1, Z+54	; 0x36
    12fe:	d2 d3       	rcall	.+1956   	; 0x1aa4 <__stack+0x15a5>
    1300:	a8 49       	sbci	r26, 0x98	; 152
    1302:	64 12       	cpse	r6, r20
    1304:	99 84       	ldd	r9, Y+9	; 0x09
    1306:	a2 42       	sbci	r26, 0x22	; 34
    1308:	91 50       	subi	r25, 0x01	; 1
    130a:	24 14       	cp	r2, r4
    130c:	65 a9       	ldd	r22, Z+53	; 0x35
    130e:	04 00       	.word	0x0004	; ????
    1310:	04 a8       	ldd	r0, Z+52	; 0x34
    1312:	1a e9       	ldi	r17, 0x9A	; 154
    1314:	f0 d3       	rcall	.+2016   	; 0x1af6 <__stack+0x15f7>
    1316:	22 8a       	std	Z+18, r2	; 0x12
    1318:	e5 00       	.word	0x00e5	; ????
    131a:	39 40       	sbci	r19, 0x09	; 9
    131c:	0e 90       	ld	r0, -X
    131e:	03 64       	ori	r16, 0x43	; 67
    1320:	22 11       	cpse	r18, r2
    1322:	45 89       	ldd	r20, Z+21	; 0x15
    1324:	22 62       	ori	r18, 0x22	; 34
    1326:	52 b4       	in	r5, 0x22	; 34
    1328:	43 04       	cpc	r4, r3
    132a:	04 a9       	ldd	r16, Z+52	; 0x34
    132c:	13 a8       	ldd	r1, Z+51	; 0x33
    132e:	d2 d3       	rcall	.+1956   	; 0x1ad4 <__stack+0x15d5>
    1330:	a2 49       	sbci	r26, 0x92	; 146
    1332:	c5 a2       	std	Z+37, r12	; 0x25
    1334:	89 0a       	sbc	r8, r25
    1336:	45 85       	ldd	r20, Z+13	; 0x0d
    1338:	22 aa       	std	Z+50, r2	; 0x32
    133a:	ca 01       	movw	r24, r20
    133c:	03 04       	cpc	r0, r3
    133e:	aa 14       	cp	r10, r10
    1340:	08 b3       	in	r16, 0x18	; 24
    1342:	d3 a2       	std	Z+35, r13	; 0x23
    1344:	89 24       	eor	r8, r9
    1346:	42 b2       	in	r4, 0x12	; 18
    1348:	7e 94 88 64 	call	0x1cc910	; 0x1cc910 <__TEXT_REGION_LENGTH__+0x1ac910>
    134c:	54 b1       	in	r21, 0x04	; 4
    134e:	1c 20       	and	r1, r12
    1350:	02 04       	cpc	r0, r2
    1352:	ab 12       	cpse	r10, r27
    1354:	b8 b2       	in	r11, 0x18	; 24
    1356:	d3 2a       	or	r13, r19
    1358:	c9 c8       	rjmp	.-3694   	; 0x4ec <__LOCK_REGION_LENGTH__+0xec>
    135a:	da 01       	movw	r26, r20
    135c:	32 51       	subi	r19, 0x12	; 18
    135e:	51 2c       	mov	r5, r1
    1360:	07 88       	ldd	r0, Z+23	; 0x17
    1362:	00 04       	cpc	r0, r0
    1364:	ac 0e       	add	r10, r28
    1366:	f8 d2       	rcall	.+1520   	; 0x1958 <__stack+0x1459>
    1368:	d3 38       	cpi	r29, 0x83	; 131
    136a:	c4 c4       	rjmp	.+2440   	; 0x1cf4 <__do_copy_data+0x6>
    136c:	fa cf       	rjmp	.-12     	; 0x1362 <__stack+0xe63>
    136e:	63 25       	eor	r22, r3
    1370:	00 04       	cpc	r0, r0
    1372:	ad 0d       	add	r26, r13
    1374:	a8 d2       	rcall	.+1360   	; 0x18c6 <__stack+0x13c7>
    1376:	d3 38       	cpi	r29, 0x83	; 131
    1378:	c4 c4       	rjmp	.+2440   	; 0x1d02 <__do_copy_data+0x14>
    137a:	7a 1e       	adc	r7, r26
    137c:	2b 01       	movw	r4, r22
    137e:	04 ae       	std	Z+60, r0	; 0x3c
    1380:	10 d8       	rcall	.-4064   	; 0x3a2 <__trampolines_end+0x2ea>
    1382:	12 d4       	rcall	.+2084   	; 0x1ba8 <__stack+0x16a9>
    1384:	10 12       	cpse	r1, r16
    1386:	25 22       	and	r2, r21
    1388:	6d 44       	sbci	r22, 0x4D	; 77
    138a:	aa 58       	subi	r26, 0x8A	; 138
    138c:	df 00       	.word	0x00df	; ????
    138e:	04 af       	std	Z+60, r16	; 0x3c
    1390:	0f b8       	out	0x0f, r0	; 15
    1392:	b2 d3       	rcall	.+1892   	; 0x1af8 <__stack+0x15f9>
    1394:	10 12       	cpse	r1, r16
    1396:	25 22       	and	r2, r21
    1398:	19 55       	subi	r17, 0x59	; 89
    139a:	ac 6f       	ori	r26, 0xFC	; 252
    139c:	00 04       	cpc	r0, r0
    139e:	b0 12       	cpse	r11, r16
    13a0:	d8 12       	cpse	r13, r24
    13a2:	d4 10       	cpse	r13, r4
    13a4:	12 25       	eor	r17, r2
    13a6:	22 6d       	ori	r18, 0xD2	; 210
    13a8:	44 aa       	std	Z+52, r4	; 0x34
    13aa:	d0 28       	or	r13, r0
    13ac:	d6 0d       	add	r29, r6
    13ae:	00 04       	cpc	r0, r0
    13b0:	b1 11       	cpse	r27, r1
    13b2:	b8 b2       	in	r11, 0x18	; 24
    13b4:	d3 10       	cpse	r13, r3
    13b6:	12 25       	eor	r17, r2
    13b8:	22 19       	sub	r18, r2
    13ba:	55 ac       	ldd	r5, Z+61	; 0x3d
    13bc:	68 14       	cp	r6, r8
    13be:	ab 01       	movw	r20, r22
    13c0:	04 b2       	in	r0, 0x14	; 20
    13c2:	1a f9       	.word	0xf91a	; ????
    13c4:	d2 d3       	rcall	.+1956   	; 0x1b6a <__stack+0x166b>
    13c6:	10 4a       	sbci	r17, 0xA0	; 160
    13c8:	84 22       	and	r8, r20
    13ca:	35 91       	lpm	r19, Z+
    13cc:	90 4a       	sbci	r25, 0xA0	; 160
    13ce:	16 53       	subi	r17, 0x36	; 54
    13d0:	89 22       	and	r8, r25
    13d2:	99 48       	sbci	r25, 0x89	; 137
    13d4:	b1 38       	cpi	r27, 0x81	; 129
    13d6:	07 c8       	rjmp	.-4082   	; 0x3e6 <__trampolines_end+0x32e>
    13d8:	01 02       	muls	r16, r17
    13da:	04 b3       	in	r16, 0x14	; 20
    13dc:	14 a9       	ldd	r17, Z+52	; 0x34
    13de:	d2 d3       	rcall	.+1956   	; 0x1b84 <__stack+0x1685>
    13e0:	10 8a       	std	Z+16, r1	; 0x10
    13e2:	14 c9       	rjmp	.-3544   	; 0x60c <__stack+0x10d>
    13e4:	72 80       	ldd	r7, Z+2	; 0x02
    13e6:	98 28       	or	r9, r8
    13e8:	52 9c       	mul	r5, r2
    13ea:	03 e4       	ldi	r16, 0x43	; 67
    13ec:	00 01       	movw	r0, r0
    13ee:	04 b4       	in	r0, 0x24	; 36
    13f0:	11 fa       	bst	r1, 1
    13f2:	d0 d3       	rcall	.+1952   	; 0x1b94 <__stack+0x1695>
    13f4:	b0 c8       	rjmp	.-3744   	; 0x556 <__stack+0x57>
    13f6:	f4 ff       	sbrs	r31, 4
    13f8:	ff ed       	ldi	r31, 0xDF	; 223
    13fa:	10 87       	std	Z+8, r17	; 0x08
    13fc:	c8 21       	and	r28, r8
    13fe:	02 04       	cpc	r0, r2
    1400:	b5 10       	cpse	r11, r5
    1402:	aa d0       	rcall	.+340    	; 0x1558 <__stack+0x1059>
    1404:	d3 b0       	in	r13, 0x03	; 3
    1406:	c8 f4       	brcc	.+50     	; 0x143a <__stack+0xf3b>
    1408:	7f 3b       	cpi	r23, 0xBF	; 191
    140a:	c4 21       	and	r28, r4
    140c:	72 88       	ldd	r7, Z+18	; 0x12
    140e:	00 04       	cpc	r0, r0
    1410:	b6 1f       	adc	r27, r22
    1412:	f9 d2       	rcall	.+1522   	; 0x1a06 <__stack+0x1507>
    1414:	d3 10       	cpse	r13, r3
    1416:	4a 84       	ldd	r4, Y+10	; 0x0a
    1418:	12 a1       	ldd	r17, Z+34	; 0x22
    141a:	44 28       	or	r4, r4
    141c:	11 4a       	sbci	r17, 0xA1	; 161
    141e:	84 12       	cpse	r8, r20
    1420:	a1 e8       	ldi	r26, 0x81	; 129
    1422:	0e 90       	ld	r0, -X
    1424:	03 e4       	ldi	r16, 0x43	; 67
    1426:	00 39       	cpi	r16, 0x90	; 144
    1428:	60 3c       	cpi	r22, 0xC0	; 192
    142a:	07 c8       	rjmp	.-4082   	; 0x43a <__LOCK_REGION_LENGTH__+0x3a>
    142c:	01 02       	muls	r16, r17
    142e:	04 b7       	in	r16, 0x34	; 52
    1430:	17 a9       	ldd	r17, Z+55	; 0x37
    1432:	d2 d3       	rcall	.+1956   	; 0x1bd8 <__stack+0x16d9>
    1434:	10 4a       	sbci	r17, 0xA0	; 160
    1436:	84 12       	cpse	r8, r20
    1438:	a1 44       	sbci	r26, 0x41	; 65
    143a:	28 ba       	out	0x18, r2	; 24
    143c:	03 e4       	ldi	r16, 0x43	; 67
    143e:	00 39       	cpi	r16, 0x90	; 144
    1440:	60 0e       	add	r6, r16
    1442:	90 03       	fmuls	r17, r16
    1444:	04 04       	cpc	r0, r4
    1446:	b8 12       	cpse	r11, r24
    1448:	d8 12       	cpse	r13, r24
    144a:	d4 10       	cpse	r13, r4
    144c:	f2 25       	eor	r31, r2
    144e:	44 09       	sbc	r20, r4
    1450:	49 6e       	ori	r20, 0xE9	; 233
    1452:	21 59       	subi	r18, 0x91	; 145
    1454:	48 ac       	ldd	r4, Y+56	; 0x38
    1456:	01 04       	cpc	r0, r1
    1458:	b9 11       	cpse	r27, r9
    145a:	88 12       	cpse	r8, r24
    145c:	d4 10       	cpse	r13, r4
    145e:	b2 84       	ldd	r11, Z+10	; 0x0a
    1460:	28 21       	and	r18, r8
    1462:	c9 2d       	mov	r28, r9
    1464:	24 0b       	sbc	r18, r20
    1466:	89 05       	cpc	r24, r9
    1468:	04 ba       	out	0x14, r0	; 20
    146a:	0d d8       	rcall	.-4070   	; 0x486 <__LOCK_REGION_LENGTH__+0x86>
    146c:	12 d4       	rcall	.+2084   	; 0x1c92 <__stack+0x1793>
    146e:	10 eb       	ldi	r17, 0xB0	; 176
    1470:	7c 11       	cpse	r23, r12
    1472:	f2 a3       	std	Z+34, r31	; 0x22
    1474:	00 04       	cpc	r0, r0
    1476:	bb 0e       	add	r11, r27
    1478:	d7 12       	cpse	r13, r23
    147a:	d4 90       	lpm	r13, Z
    147c:	ea 45       	sbci	r30, 0x5A	; 90
    147e:	34 51       	subi	r19, 0x14	; 20
    1480:	e3 9b       	sbis	0x1c, 3	; 28
    1482:	00 04       	cpc	r0, r0
    1484:	bc 1c       	adc	r11, r12
    1486:	d9 10       	cpse	r13, r9
    1488:	d4 9c       	mul	r13, r4
    148a:	4a 64       	ori	r20, 0x4A	; 74
    148c:	b2 89       	ldd	r27, Z+18	; 0x12
    148e:	6c 22       	and	r6, r28
    1490:	93 1c       	adc	r9, r3
    1492:	42 72       	andi	r20, 0x22	; 34
    1494:	80 1c       	adc	r8, r0
    1496:	20 07       	cpc	r18, r16
    1498:	c8 01       	movw	r24, r16
    149a:	32 15       	cp	r19, r2
    149c:	e9 08       	sbc	r14, r9
    149e:	00 04       	cpc	r0, r0
    14a0:	bd 14       	cp	r11, r13
    14a2:	89 10       	cpse	r8, r9
    14a4:	d4 a4       	ldd	r13, Z+44	; 0x2c
    14a6:	84 44       	sbci	r24, 0x44	; 68
    14a8:	13 99       	sbic	0x02, 3	; 2
    14aa:	e4 10       	cpse	r14, r4
    14ac:	92 03       	fmuls	r17, r18
    14ae:	e4 10       	cpse	r14, r4
    14b0:	91 90       	ld	r9, Z+
    14b2:	02 04       	cpc	r0, r2
    14b4:	be 21       	and	r27, r14
    14b6:	09 b1       	in	r16, 0x09	; 9
    14b8:	d3 9c       	mul	r13, r3
    14ba:	4a 64       	ori	r20, 0x4A	; 74
    14bc:	b2 89       	ldd	r27, Z+18	; 0x12
    14be:	6c 22       	and	r6, r28
    14c0:	93 1c       	adc	r9, r3
    14c2:	42 72       	andi	r20, 0x22	; 34
    14c4:	80 1c       	adc	r8, r0
    14c6:	20 07       	cpc	r18, r16
    14c8:	c8 01       	movw	r24, r16
    14ca:	32 15       	cp	r19, r2
    14cc:	e9 1c       	adc	r14, r9
    14ce:	20 07       	cpc	r18, r16
    14d0:	48 c2       	rjmp	.+1168   	; 0x1962 <__stack+0x1463>
    14d2:	12 00       	.word	0x0012	; ????
    14d4:	04 bf       	out	0x34, r16	; 52
    14d6:	19 b9       	out	0x09, r17	; 9
    14d8:	b0 d3       	rcall	.+1888   	; 0x1c3a <__stack+0x173b>
    14da:	a4 84       	ldd	r10, Z+12	; 0x0c
    14dc:	44 13       	cpse	r20, r20
    14de:	99 e4       	ldi	r25, 0x49	; 73
    14e0:	10 92 03 e4 	sts	0xE403, r1	; 0x80e403 <__bss_end+0xe058>
    14e4:	10 91 90 2c 	lds	r17, 0x2C90	; 0x802c90 <__bss_end+0x28e5>
    14e8:	07 48       	sbci	r16, 0x87	; 135
    14ea:	c2 12       	cpse	r12, r18
    14ec:	00 04       	cpc	r0, r0
    14ee:	c0 0d       	add	r28, r0
    14f0:	d8 12       	cpse	r13, r24
    14f2:	d4 38       	cpi	r29, 0x84	; 132
    14f4:	c4 c4       	rjmp	.+2440   	; 0x1e7e <u8x8_gpio_and_delay+0xce>
    14f6:	fa 6f       	ori	r31, 0xFA	; 250
    14f8:	87 00       	.word	0x0087	; ????
    14fa:	04 c1       	rjmp	.+520    	; 0x1704 <__stack+0x1205>
    14fc:	1c f8       	.word	0xf81c	; ????
    14fe:	12 d4       	rcall	.+2084   	; 0x1d24 <u8x8_avr_delay+0x6>
    1500:	11 c9       	rjmp	.-3550   	; 0x724 <__stack+0x225>
    1502:	e8 30       	cpi	r30, 0x08	; 8
    1504:	89 84       	ldd	r8, Y+9	; 0x09
    1506:	22 a1       	ldd	r18, Z+34	; 0x22
    1508:	48 28       	or	r4, r8
    150a:	2a 36       	cpi	r18, 0x6A	; 106
    150c:	9a 45       	sbci	r25, 0x5A	; 90
    150e:	85 22       	and	r8, r21
    1510:	a1 48       	sbci	r26, 0x81	; 129
    1512:	28 12       	cpse	r2, r24
    1514:	8a 02       	muls	r24, r26
    1516:	04 c2       	rjmp	.+1032   	; 0x1920 <__stack+0x1421>
    1518:	16 b8       	out	0x06, r1	; 6
    151a:	12 d4       	rcall	.+2084   	; 0x1d40 <u8x8_avr_delay+0x22>
    151c:	11 c9       	rjmp	.-3550   	; 0x740 <__stack+0x241>
    151e:	e8 30       	cpi	r30, 0x08	; 8
    1520:	89 84       	ldd	r8, Y+9	; 0x09
    1522:	22 a1       	ldd	r18, Z+34	; 0x22
    1524:	a8 98       	cbi	0x15, 0	; 21
    1526:	2c 2a       	or	r2, r28
    1528:	14 09       	sbc	r17, r4
    152a:	45 01       	movw	r8, r10
    152c:	04 c3       	rjmp	.+1544   	; 0x1b36 <__stack+0x1637>
    152e:	16 f8       	bld	r1, 6
    1530:	d2 d3       	rcall	.+1956   	; 0x1cd6 <__stack+0x17d7>
    1532:	90 0e       	add	r9, r16
    1534:	69 12       	cpse	r6, r25
    1536:	99 44       	sbci	r25, 0x49	; 73
    1538:	a4 c9       	rjmp	.-3256   	; 0x882 <__stack+0x383>
    153a:	24 93       	xch	Z, r18
    153c:	08 79       	andi	r16, 0x98	; 152
    153e:	94 ca       	rjmp	.-2776   	; 0xa68 <__stack+0x569>
    1540:	48 00       	.word	0x0048	; ????
    1542:	04 c4       	rjmp	.+2056   	; 0x1d4c <u8x8_avr_delay+0x2e>
    1544:	12 a8       	ldd	r1, Z+50	; 0x32
    1546:	d2 d3       	rcall	.+1956   	; 0x1cec <__ctors_end+0xa>
    1548:	10 d2       	rcall	.+1056   	; 0x196a <__stack+0x146b>
    154a:	24 22       	and	r2, r20
    154c:	51 ed       	ldi	r21, 0xD1	; 209
    154e:	22 64       	ori	r18, 0x42	; 66
    1550:	14 8b       	std	Z+20, r17	; 0x14
    1552:	2a 00       	.word	0x002a	; ????
    1554:	04 c5       	rjmp	.+2568   	; 0x1f5e <key_scan+0x10>
    1556:	1f 09       	sbc	r17, r15
    1558:	b3 d3       	rcall	.+1894   	; 0x1cc0 <__stack+0x17c1>
    155a:	ab 89       	ldd	r26, Y+19	; 0x13
    155c:	d4 44       	sbci	r29, 0x44	; 68
    155e:	32 91       	ld	r19, -Z
    1560:	4c 24       	eor	r4, r12
    1562:	13 c9       	rjmp	.-3546   	; 0x78a <__stack+0x28b>
    1564:	44 32       	cpi	r20, 0x24	; 36
    1566:	91 4c       	sbci	r25, 0xC1	; 193
    1568:	24 13       	cpse	r18, r20
    156a:	c9 24       	eor	r12, r9
    156c:	33 89       	ldd	r19, Z+19	; 0x13
    156e:	70 0e       	add	r7, r16
    1570:	10 2b       	or	r17, r16
    1572:	01 04       	cpc	r0, r1
    1574:	c6 16       	cp	r12, r22
    1576:	b9 b2       	in	r11, 0x19	; 25
    1578:	d3 ab       	std	Z+51, r29	; 0x33
    157a:	89 d4       	rcall	.+2322   	; 0x1e8e <u8x8_gpio_and_delay+0xde>
    157c:	44 32       	cpi	r20, 0x24	; 36
    157e:	91 4c       	sbci	r25, 0xC1	; 193
    1580:	24 13       	cpse	r18, r20
    1582:	c9 24       	eor	r12, r9
    1584:	c2 39       	cpi	r28, 0x92	; 146
    1586:	40 ac       	ldd	r4, Z+56	; 0x38
    1588:	04 04       	cpc	r0, r4
    158a:	c7 0f       	add	r28, r23
    158c:	f8 d2       	rcall	.+1520   	; 0x1b7e <__stack+0x167f>
    158e:	d3 10       	cpse	r13, r3
    1590:	f2 f1       	brmi	.+124    	; 0x160e <__stack+0x110f>
    1592:	50 e4       	ldi	r21, 0x40	; 64
    1594:	a3 58       	subi	r26, 0x83	; 131
    1596:	54 01       	movw	r10, r8
    1598:	04 c8       	rjmp	.-4088   	; 0x5a2 <__stack+0xa3>
    159a:	0f a8       	ldd	r0, Y+55	; 0x37
    159c:	d2 d3       	rcall	.+1956   	; 0x1d42 <u8x8_avr_delay+0x24>
    159e:	10 32       	cpi	r17, 0x20	; 32
    15a0:	1e 8a       	std	Y+22, r1	; 0x16
    15a2:	1c c5       	rjmp	.+2616   	; 0x1fdc <key_scan+0x8e>
    15a4:	a2 0a       	sbc	r10, r18
    15a6:	00 04       	cpc	r0, r0
    15a8:	c9 21       	and	r28, r9
    15aa:	09 b3       	in	r16, 0x19	; 25
    15ac:	d3 10       	cpse	r13, r3
    15ae:	4a 84       	ldd	r4, Y+10	; 0x0a
    15b0:	12 a1       	ldd	r17, Z+34	; 0x22
    15b2:	44 28       	or	r4, r4
    15b4:	11 4a       	sbci	r17, 0xA1	; 161
    15b6:	84 92       	xch	Z, r8
    15b8:	43 44       	sbci	r20, 0x43	; 67
    15ba:	28 11       	cpse	r18, r8
    15bc:	4a 84       	ldd	r4, Y+10	; 0x0a
    15be:	12 a1       	ldd	r17, Z+34	; 0x22
    15c0:	44 28       	or	r4, r4
    15c2:	11 ce       	rjmp	.-990    	; 0x11e6 <__stack+0xce7>
    15c4:	01 62       	ori	r16, 0x21	; 33
    15c6:	25 00       	.word	0x0025	; ????
    15c8:	04 ca       	rjmp	.-3064   	; 0x9d2 <__stack+0x4d3>
    15ca:	18 b9       	out	0x08, r17	; 8
    15cc:	b2 d3       	rcall	.+1892   	; 0x1d32 <u8x8_avr_delay+0x14>
    15ce:	10 4a       	sbci	r17, 0xA0	; 160
    15d0:	84 12       	cpse	r8, r20
    15d2:	a1 e4       	ldi	r26, 0x41	; 65
    15d4:	10 11       	cpse	r17, r0
    15d6:	4a 84       	ldd	r4, Y+10	; 0x0a
    15d8:	12 a1       	ldd	r17, Z+34	; 0x22
    15da:	44 38       	cpi	r20, 0x84	; 132
    15dc:	07 88       	ldd	r0, Z+23	; 0x17
    15de:	95 00       	.word	0x0095	; ????
    15e0:	04 cb       	rjmp	.-2552   	; 0xbea <__stack+0x6eb>
    15e2:	0f f8       	.word	0xf80f	; ????
    15e4:	d2 d3       	rcall	.+1956   	; 0x1d8a <u8x8_avr_delay+0x6c>
    15e6:	10 f2       	brcs	.-124    	; 0x156c <__stack+0x106d>
    15e8:	a3 e4       	ldi	r26, 0x43	; 67
    15ea:	ac eb       	ldi	r26, 0xBC	; 188
    15ec:	54 2c       	mov	r5, r4
    15ee:	01 04       	cpc	r0, r1
    15f0:	cc 0f       	add	r28, r28
    15f2:	a8 d2       	rcall	.+1360   	; 0x1b44 <__stack+0x1645>
    15f4:	d3 10       	cpse	r13, r3
    15f6:	72 94       	swap	r7
    15f8:	9c 55       	subi	r25, 0x5C	; 92
    15fa:	a7 62       	ori	r26, 0x27	; 39
    15fc:	09 00       	.word	0x0009	; ????
    15fe:	04 cd       	rjmp	.-1528   	; 0x1008 <__stack+0xb09>
    1600:	1b 09       	sbc	r17, r11
    1602:	b3 d3       	rcall	.+1894   	; 0x1d6a <u8x8_avr_delay+0x4c>
    1604:	10 4a       	sbci	r17, 0xA0	; 160
    1606:	84 92       	xch	Z, r8
    1608:	d1 64       	ori	r29, 0x41	; 65
    160a:	34 39       	cpi	r19, 0x94	; 148
    160c:	44 f4       	brge	.+16     	; 0x161e <__stack+0x111f>
    160e:	ff 28       	or	r15, r15
    1610:	11 4a       	sbci	r17, 0xA1	; 161
    1612:	84 12       	cpse	r8, r20
    1614:	e1 1c       	adc	r14, r1
    1616:	20 56       	subi	r18, 0x60	; 96
    1618:	02 04       	cpc	r0, r2
    161a:	ce 14       	cp	r12, r14
    161c:	b9 b2       	in	r11, 0x19	; 25
    161e:	d3 10       	cpse	r13, r3
    1620:	4a 46       	sbci	r20, 0x6A	; 106
    1622:	93 43       	sbci	r25, 0x33	; 51
    1624:	44 ff       	sbrs	r20, 4
    1626:	51 22       	and	r5, r17
    1628:	9c 03       	fmulsu	r17, r20
    162a:	c4 4a       	sbci	r28, 0xA4	; 164
    162c:	00 04       	cpc	r0, r0
    162e:	cf 0b       	sbc	r28, r31
    1630:	d4 16       	cp	r13, r20
    1632:	d4 a0       	ldd	r13, Z+36	; 0x24
    1634:	88 f4       	brcc	.+34     	; 0x1658 <__stack+0x1159>
    1636:	5f 08       	sbc	r5, r15
    1638:	04 d0       	rcall	.+8      	; 0x1642 <__stack+0x1143>
    163a:	13 f8       	bld	r1, 3
    163c:	12 d4       	rcall	.+2084   	; 0x1e62 <u8x8_gpio_and_delay+0xb2>
    163e:	11 c9       	rjmp	.-3550   	; 0x862 <__stack+0x363>
    1640:	e8 60       	ori	r30, 0x08	; 8
    1642:	29 4d       	sbci	r18, 0xD9	; 217
    1644:	a4 45       	sbci	r26, 0x54	; 84
    1646:	48 3c       	cpi	r20, 0xC8	; 200
    1648:	14 79       	andi	r17, 0x94	; 148
    164a:	14 04       	cpc	r1, r4
    164c:	d1 13       	cpse	r29, r17
    164e:	b8 12       	cpse	r11, r24
    1650:	d4 11       	cpse	r29, r4
    1652:	c9 e8       	ldi	r28, 0x89	; 137
    1654:	d0 92 4c 2c 	sts	0x2C4C, r13	; 0x802c4c <__bss_end+0x28a1>
    1658:	39 08       	sbc	r3, r9
    165a:	19 25       	eor	r17, r9
    165c:	95 00       	.word	0x0095	; ????
    165e:	04 d2       	rcall	.+1032   	; 0x1a68 <__stack+0x1569>
    1660:	13 f8       	bld	r1, 3
    1662:	12 d4       	rcall	.+2084   	; 0x1e88 <u8x8_gpio_and_delay+0xd8>
    1664:	11 69       	ori	r17, 0x91	; 145
    1666:	87 4a       	sbci	r24, 0xA7	; 167
    1668:	69 22       	and	r6, r25
    166a:	2d 42       	sbci	r18, 0x2D	; 45
    166c:	e2 a1       	ldd	r30, Z+34	; 0x22
    166e:	c8 a3       	std	Y+32, r28	; 0x20
    1670:	00 04       	cpc	r0, r0
    1672:	d3 12       	cpse	r13, r19
    1674:	b8 12       	cpse	r11, r24
    1676:	d4 11       	cpse	r29, r4
    1678:	69 87       	std	Y+9, r22	; 0x09
    167a:	59 84       	ldd	r5, Y+9	; 0x09
    167c:	62 c9       	rjmp	.-3388   	; 0x942 <__stack+0x443>
    167e:	41 c8       	rjmp	.-3966   	; 0x702 <__stack+0x203>
    1680:	28 a9       	ldd	r18, Y+48	; 0x30
    1682:	04 04       	cpc	r0, r4
    1684:	d4 12       	cpse	r13, r20
    1686:	d8 12       	cpse	r13, r24
    1688:	d4 2b       	or	r29, r20
    168a:	d1 24       	eor	r13, r1
    168c:	32 89       	ldd	r19, Z+18	; 0x12
    168e:	48 a7       	std	Y+40, r20	; 0x28
    1690:	c3 48       	sbci	r28, 0x83	; 131
    1692:	ff 89       	ldd	r31, Y+23	; 0x17
    1694:	00 04       	cpc	r0, r0
    1696:	d5 15       	cp	r29, r5
    1698:	88 12       	cpse	r8, r24
    169a:	d4 99       	sbic	0x1a, 4	; 26
    169c:	48 42       	sbci	r20, 0x28	; 40
    169e:	12 99       	sbic	0x02, 2	; 2
    16a0:	44 46       	sbci	r20, 0x64	; 100
    16a2:	a2 49       	sbci	r26, 0x92	; 146
    16a4:	64 12       	cpse	r6, r20
    16a6:	51 44       	sbci	r21, 0x41	; 65
    16a8:	32 01       	movw	r6, r4
    16aa:	04 d6       	rcall	.+3080   	; 0x22b4 <u8g2_read_font_info+0x28>
    16ac:	12 f8       	bld	r1, 2
    16ae:	12 d4       	rcall	.+2084   	; 0x1ed4 <show_logo+0xa>
    16b0:	11 c9       	rjmp	.-3550   	; 0x8d4 <__stack+0x3d5>
    16b2:	e8 b0       	in	r14, 0x08	; 8
    16b4:	c3 58       	subi	r28, 0x83	; 131
    16b6:	b3 49       	sbci	r27, 0x93	; 147
    16b8:	ac f3       	brlt	.-22     	; 0x16a4 <__stack+0x11a5>
    16ba:	21 00       	.word	0x0021	; ????
    16bc:	04 d7       	rcall	.+3592   	; 0x24c6 <u8g2_font_decode_len+0xac>
    16be:	14 b8       	out	0x04, r1	; 4
    16c0:	12 d4       	rcall	.+2084   	; 0x1ee6 <show_logo+0x1c>
    16c2:	11 c9       	rjmp	.-3550   	; 0x8e6 <__stack+0x3e7>
    16c4:	e8 50       	subi	r30, 0x08	; 8
    16c6:	9a 48       	sbci	r25, 0x8A	; 138
    16c8:	22 3c       	cpi	r18, 0xC2	; 194
    16ca:	94 e5       	ldi	r25, 0x54	; 84
    16cc:	00 99       	sbic	0x00, 0	; 0
    16ce:	a8 02       	muls	r26, r24
    16d0:	04 d8       	rcall	.-4088   	; 0x6da <__stack+0x1db>
    16d2:	13 d8       	rcall	.-4058   	; 0x6fa <__stack+0x1fb>
    16d4:	12 d4       	rcall	.+2084   	; 0x1efa <print_key+0xa>
    16d6:	a2 89       	ldd	r26, Z+18	; 0x12
    16d8:	24 42       	sbci	r18, 0x24	; 36
    16da:	b1 f2       	breq	.-84     	; 0x1688 <__stack+0x1189>
    16dc:	a1 c8       	rjmp	.-3774   	; 0x820 <__stack+0x321>
    16de:	28 11       	cpse	r18, r8
    16e0:	69 23       	and	r22, r25
    16e2:	01 04       	cpc	r0, r1
    16e4:	d9 11       	cpse	r29, r9
    16e6:	88 12       	cpse	r8, r24
    16e8:	d4 29       	or	r29, r4
    16ea:	c9 e4       	ldi	r28, 0x49	; 73
    16ec:	00 f1       	brcs	.+64     	; 0x172e <__stack+0x122f>
    16ee:	a1 28       	or	r10, r1
    16f0:	11 c9       	rjmp	.-3550   	; 0x914 <__stack+0x415>
    16f2:	48 00       	.word	0x0048	; ????
    16f4:	04 da       	rcall	.-3064   	; 0xafe <__stack+0x5ff>
    16f6:	16 f8       	bld	r1, 6
    16f8:	12 d4       	rcall	.+2084   	; 0x1f1e <print_key+0x2e>
    16fa:	11 69       	ori	r17, 0x91	; 145
    16fc:	07 d2       	rcall	.+1038   	; 0x1b0c <__stack+0x160d>
    16fe:	44 12       	cpse	r4, r20
    1700:	a1 58       	subi	r26, 0x81	; 129
    1702:	7c 28       	or	r7, r12
    1704:	32 4a       	sbci	r19, 0xA2	; 162
    1706:	44 da       	rcall	.-2936   	; 0xb90 <__stack+0x691>
    1708:	48 00       	.word	0x0048	; ????
    170a:	04 db       	rcall	.-2552   	; 0xd14 <__stack+0x815>
    170c:	14 b8       	out	0x04, r1	; 4
    170e:	12 d4       	rcall	.+2084   	; 0x1f34 <init+0x14>
    1710:	11 69       	ori	r17, 0x91	; 145
    1712:	87 95       	ror	r24
    1714:	64 72       	andi	r22, 0x24	; 36
    1716:	80 f8       	bld	r8, 0
    1718:	50 94       	com	r5
    171a:	88 64       	ori	r24, 0x48	; 72
    171c:	24 00       	.word	0x0024	; ????
    171e:	04 dc       	rcall	.-2040   	; 0xf28 <__stack+0xa29>
    1720:	1b f8       	.word	0xf81b	; ????
    1722:	12 d4       	rcall	.+2084   	; 0x1f48 <init+0x28>
    1724:	11 69       	ori	r17, 0x91	; 145
    1726:	07 49       	sbci	r16, 0x97	; 151
    1728:	24 14       	cp	r2, r4
    172a:	09 45       	sbci	r16, 0x59	; 89
    172c:	42 51       	subi	r20, 0x12	; 18
    172e:	b1 d1       	rcall	.+866    	; 0x1a92 <__stack+0x1593>
    1730:	2c 2a       	or	r2, r28
    1732:	14 09       	sbc	r17, r4
    1734:	45 42       	sbci	r20, 0x25	; 37
    1736:	91 50       	subi	r25, 0x01	; 1
    1738:	14 04       	cpc	r1, r4
    173a:	dd 15       	cp	r29, r13
    173c:	b8 12       	cpse	r11, r24
    173e:	d4 11       	cpse	r29, r4
    1740:	69 07       	cpc	r22, r25
    1742:	49 24       	eor	r4, r9
    1744:	14 09       	sbc	r17, r4
    1746:	45 c5       	rjmp	.+2698   	; 0x21d2 <u8g2_SendBuffer+0xa>
    1748:	64 51       	subi	r22, 0x14	; 20
    174a:	a1 48       	sbci	r26, 0x81	; 129
    174c:	28 0a       	sbc	r2, r24
    174e:	04 de       	rcall	.-1016   	; 0x1358 <__stack+0xe59>
    1750:	19 f8       	.word	0xf819	; ????
    1752:	12 d4       	rcall	.+2084   	; 0x1f78 <key_scan+0x2a>
    1754:	11 69       	ori	r17, 0x91	; 145
    1756:	07 d2       	rcall	.+1038   	; 0x1b66 <__stack+0x1667>
    1758:	44 12       	cpse	r4, r20
    175a:	21 51       	subi	r18, 0x11	; 17
    175c:	2a 9c       	mul	r2, r10
    175e:	03 e4       	ldi	r16, 0x43	; 67
    1760:	00 22       	and	r0, r16
    1762:	51 22       	and	r5, r17
    1764:	92 91       	ld	r25, -Z
    1766:	00 04       	cpc	r0, r0
    1768:	df 13       	cpse	r29, r31
    176a:	b8 12       	cpse	r11, r24
    176c:	d4 11       	cpse	r29, r4
    176e:	69 87       	std	Y+9, r22	; 0x09
    1770:	59 84       	ldd	r5, Y+9	; 0x09
    1772:	62 19       	sub	r22, r2
    1774:	75 0e       	add	r7, r21
    1776:	20 4a       	sbci	r18, 0xA0	; 160
    1778:	2c 00       	.word	0x002c	; ????
    177a:	04 e0       	ldi	r16, 0x04	; 4
    177c:	16 d8       	rcall	.-4052   	; 0x7aa <__stack+0x2ab>
    177e:	12 d4       	rcall	.+2084   	; 0x1fa4 <key_scan+0x56>
    1780:	38 84       	ldd	r3, Y+8	; 0x08
    1782:	a5 62       	ori	r26, 0x25	; 37
    1784:	a9 90       	ld	r10, Y+
    1786:	0e 90       	ld	r0, -X
    1788:	03 c4       	rjmp	.+2054   	; 0x1f90 <key_scan+0x42>
    178a:	44 a2       	std	Z+36, r4	; 0x24
    178c:	44 24       	eor	r4, r4
    178e:	23 01       	movw	r4, r6
    1790:	04 e1       	ldi	r16, 0x14	; 20
    1792:	16 d8       	rcall	.-4052   	; 0x7c0 <__stack+0x2c1>
    1794:	92 d3       	rcall	.+1828   	; 0x1eba <init_display+0x16>
    1796:	38 84       	ldd	r3, Y+8	; 0x08
    1798:	a5 62       	ori	r26, 0x25	; 37
    179a:	a9 90       	ld	r10, Y+
    179c:	0e 90       	ld	r0, -X
    179e:	03 c4       	rjmp	.+2054   	; 0x1fa6 <key_scan+0x58>
    17a0:	44 a2       	std	Z+36, r4	; 0x24
    17a2:	44 24       	eor	r4, r4
    17a4:	23 01       	movw	r4, r6
    17a6:	04 e2       	ldi	r16, 0x24	; 36
    17a8:	13 f8       	bld	r1, 3
    17aa:	12 d4       	rcall	.+2084   	; 0x1fd0 <key_scan+0x82>
    17ac:	38 c4       	rjmp	.+2160   	; 0x201e <key_scan+0xd0>
    17ae:	21 42       	sbci	r18, 0x21	; 33
    17b0:	de 4a       	sbci	r29, 0xAE	; 174
    17b2:	96 c3       	rjmp	.+1836   	; 0x1ee0 <show_logo+0x16>
    17b4:	c4 54       	subi	r28, 0x44	; 68
    17b6:	23 32       	cpi	r18, 0x23	; 35
    17b8:	0a 04       	cpc	r0, r10
    17ba:	e3 11       	cpse	r30, r3
    17bc:	a8 12       	cpse	r10, r24
    17be:	d4 38       	cpi	r29, 0x84	; 132
    17c0:	c4 21       	and	r28, r4
    17c2:	42 b6       	in	r4, 0x32	; 50
    17c4:	92 45       	sbci	r25, 0x52	; 82
    17c6:	62 aa       	std	Z+50, r6	; 0x32
    17c8:	11 05       	cpc	r17, r1
    17ca:	04 e4       	ldi	r16, 0x44	; 68
    17cc:	13 f8       	bld	r1, 3
    17ce:	12 d4       	rcall	.+2084   	; 0x1ff4 <key_scan+0xa6>
    17d0:	11 69       	ori	r17, 0x91	; 145
    17d2:	07 09       	sbc	r16, r7
    17d4:	b9 95       	.word	0x95b9	; ????
    17d6:	2c 87       	std	Y+12, r18	; 0x0c
    17d8:	89 a9       	ldd	r24, Y+49	; 0x31
    17da:	46 64       	ori	r20, 0x46	; 70
    17dc:	14 04       	cpc	r1, r4
    17de:	e5 11       	cpse	r30, r5
    17e0:	b8 12       	cpse	r11, r24
    17e2:	d4 11       	cpse	r29, r4
    17e4:	69 07       	cpc	r22, r25
    17e6:	09 d9       	rcall	.-3566   	; 0x9fa <__stack+0x4fb>
    17e8:	4a 16       	cp	r4, r26
    17ea:	89 a9       	ldd	r24, Y+49	; 0x31
    17ec:	46 14       	cp	r4, r6
    17ee:	04 e6       	ldi	r16, 0x64	; 100
    17f0:	13 f8       	bld	r1, 3
    17f2:	12 d4       	rcall	.+2084   	; 0x2018 <key_scan+0xca>
    17f4:	11 69       	ori	r17, 0x91	; 145
    17f6:	07 d2       	rcall	.+1038   	; 0x1c06 <__stack+0x1707>
    17f8:	44 12       	cpse	r4, r20
    17fa:	21 7f       	andi	r18, 0xF1	; 241
    17fc:	94 88       	ldd	r9, Z+20	; 0x14
    17fe:	64 24       	eor	r6, r4
    1800:	00 04       	cpc	r0, r0
    1802:	e7 12       	cpse	r14, r23
    1804:	b8 12       	cpse	r11, r24
    1806:	d4 11       	cpse	r29, r4
    1808:	69 07       	cpc	r22, r25
    180a:	d2 44       	sbci	r29, 0x42	; 66
    180c:	12 21       	and	r17, r2
    180e:	47 89       	ldd	r20, Z+23	; 0x17
    1810:	48 46       	sbci	r20, 0x68	; 104
    1812:	02 04       	cpc	r0, r2
    1814:	e8 12       	cpse	r14, r24
    1816:	d8 12       	cpse	r13, r24
    1818:	d4 a2       	std	Z+36, r13	; 0x24
    181a:	89 24       	eor	r8, r9
    181c:	42 8e       	std	Z+26, r4	; 0x1a
    181e:	87 22       	and	r8, r23
    1820:	47 89       	ldd	r20, Z+23	; 0x17
    1822:	48 46       	sbci	r20, 0x68	; 104
    1824:	02 04       	cpc	r0, r2
    1826:	e9 11       	cpse	r30, r9
    1828:	88 12       	cpse	r8, r24
    182a:	d4 a2       	std	Z+36, r13	; 0x24
    182c:	89 24       	eor	r8, r9
    182e:	c2 43       	sbci	r28, 0x32	; 50
    1830:	91 28       	or	r9, r1
    1832:	11 c9       	rjmp	.-3550   	; 0xa56 <__stack+0x557>
    1834:	48 00       	.word	0x0048	; ????
    1836:	04 ea       	ldi	r16, 0xA4	; 164
    1838:	15 f8       	bld	r1, 5
    183a:	12 d4       	rcall	.+2084   	; 0x2060 <key_scan+0x112>
    183c:	11 69       	ori	r17, 0x91	; 145
    183e:	07 d2       	rcall	.+1038   	; 0x1c4e <__stack+0x174f>
    1840:	44 12       	cpse	r4, r20
    1842:	21 e3       	ldi	r18, 0x31	; 49
    1844:	a1 c8       	rjmp	.-3774   	; 0x988 <__stack+0x489>
    1846:	51 22       	and	r5, r17
    1848:	92 91       	ld	r25, -Z
    184a:	00 04       	cpc	r0, r0
    184c:	eb 14       	cp	r14, r11
    184e:	b8 12       	cpse	r11, r24
    1850:	d4 11       	cpse	r29, r4
    1852:	69 07       	cpc	r22, r25
    1854:	d2 44       	sbci	r29, 0x42	; 66
    1856:	12 e1       	ldi	r17, 0x12	; 18
    1858:	a1 48       	sbci	r26, 0x81	; 129
    185a:	94 88       	ldd	r9, Z+20	; 0x14
    185c:	64 24       	eor	r6, r4
    185e:	00 04       	cpc	r0, r0
    1860:	ec 16       	cp	r14, r28
    1862:	f8 12       	cpse	r15, r24
    1864:	d4 11       	cpse	r29, r4
    1866:	69 07       	cpc	r22, r25
    1868:	d2 44       	sbci	r29, 0x42	; 66
    186a:	12 a1       	ldd	r17, Z+34	; 0x22
    186c:	58 e5       	ldi	r21, 0x58	; 88
    186e:	ac 4c       	sbci	r26, 0xCC	; 204
    1870:	94 88       	ldd	r9, Z+20	; 0x14
    1872:	64 24       	eor	r6, r4
    1874:	00 04       	cpc	r0, r0
    1876:	ed 12       	cpse	r14, r29
    1878:	b8 12       	cpse	r11, r24
    187a:	d4 11       	cpse	r29, r4
    187c:	69 87       	std	Y+9, r22	; 0x09
    187e:	59 84       	ldd	r5, Y+9	; 0x09
    1880:	62 91       	ld	r22, -Z
    1882:	59 4c       	sbci	r21, 0xC9	; 201
    1884:	94 58       	subi	r25, 0x84	; 132
    1886:	00 04       	cpc	r0, r0
    1888:	ee 12       	cpse	r14, r30
    188a:	f8 12       	cpse	r15, r24
    188c:	d4 38       	cpi	r29, 0x84	; 132
    188e:	c4 21       	and	r28, r4
    1890:	42 3e       	cpi	r20, 0xE2	; 226
    1892:	4a ce       	rjmp	.-876    	; 0x1528 <__stack+0x1029>
    1894:	9a 89       	ldd	r25, Y+18	; 0x12
    1896:	12 0b       	sbc	r17, r18
    1898:	00 04       	cpc	r0, r0
    189a:	ef 14       	cp	r14, r15
    189c:	e8 92       	.word	0x92e8	; ????
    189e:	d3 38       	cpi	r29, 0x83	; 131
    18a0:	c4 21       	and	r28, r4
    18a2:	42 3e       	cpi	r20, 0xE2	; 226
    18a4:	4a 44       	sbci	r20, 0x4A	; 74
    18a6:	2b 62       	ori	r18, 0x2B	; 43
    18a8:	a2 44       	sbci	r26, 0x42	; 66
    18aa:	24 23       	and	r18, r20
    18ac:	01 04       	cpc	r0, r1
    18ae:	f0 12       	cpse	r15, r16
    18b0:	08 f3       	brcs	.-62     	; 0x1874 <__stack+0x1375>
    18b2:	d3 11       	cpse	r29, r3
    18b4:	69 07       	cpc	r22, r25
    18b6:	09 f9       	.word	0xf909	; ????
    18b8:	28 39       	cpi	r18, 0x98	; 152
    18ba:	6b 26       	eor	r6, r27
    18bc:	4a 2c       	mov	r4, r10
    18be:	00 04       	cpc	r0, r0
    18c0:	f1 14       	cp	r15, r1
    18c2:	f8 92       	.word	0x92f8	; ????
    18c4:	d3 11       	cpse	r29, r3
    18c6:	69 07       	cpc	r22, r25
    18c8:	09 f9       	.word	0xf909	; ????
    18ca:	28 11       	cpse	r18, r8
    18cc:	ad 88       	ldd	r10, Y+21	; 0x15
    18ce:	89 12       	cpse	r8, r25
    18d0:	91 8c       	ldd	r9, Z+25	; 0x19
    18d2:	04 04       	cpc	r0, r4
    18d4:	f2 13       	cpse	r31, r18
    18d6:	08 13       	cpse	r16, r24
    18d8:	d4 52       	subi	r29, 0x24	; 36
    18da:	11 c9       	rjmp	.-3550   	; 0xafe <__stack+0x5ff>
    18dc:	41 42       	sbci	r20, 0x21	; 33
    18de:	3e 4a       	sbci	r19, 0xAE	; 174
    18e0:	ce 9a       	sbi	0x19, 6	; 25
    18e2:	89 12       	cpse	r8, r25
    18e4:	0b 00       	.word	0x000b	; ????
    18e6:	04 f3       	brlt	.-64     	; 0x18a8 <__stack+0x13a9>
    18e8:	15 f8       	bld	r1, 5
    18ea:	92 d3       	rcall	.+1828   	; 0x2010 <key_scan+0xc2>
    18ec:	52 11       	cpse	r21, r2
    18ee:	c9 41       	sbci	r28, 0x19	; 25
    18f0:	42 3e       	cpi	r20, 0xE2	; 226
    18f2:	4a 44       	sbci	r20, 0x4A	; 74
    18f4:	2b 62       	ori	r18, 0x2B	; 43
    18f6:	a2 44       	sbci	r26, 0x42	; 66
    18f8:	24 23       	and	r18, r20
    18fa:	01 04       	cpc	r0, r1
    18fc:	f4 0f       	add	r31, r20
    18fe:	f8 12       	cpse	r15, r24
    1900:	d4 11       	cpse	r29, r4
    1902:	69 07       	cpc	r22, r25
    1904:	09 f9       	.word	0xf909	; ????
    1906:	28 39       	cpi	r18, 0x98	; 152
    1908:	eb 01       	movw	r28, r22
    190a:	04 f5       	brge	.+64     	; 0x194c <__stack+0x144d>
    190c:	0e b8       	out	0x0e, r0	; 14
    190e:	12 d4       	rcall	.+2084   	; 0x2134 <u8g2_send_buffer+0x2e>
    1910:	11 69       	ori	r17, 0x91	; 145
    1912:	07 09       	sbc	r16, r7
    1914:	39 4a       	sbci	r19, 0xA9	; 169
    1916:	ce 1a       	sub	r12, r30
    1918:	04 f6       	brge	.-128    	; 0x189a <__stack+0x139b>
    191a:	0d f8       	.word	0xf80d	; ????
    191c:	d2 d3       	rcall	.+1956   	; 0x20c2 <key_scan+0x174>
    191e:	38 8c       	ldd	r3, Y+24	; 0x18
    1920:	f5 9f       	mul	r31, r21
    1922:	c7 aa       	std	Z+55, r12	; 0x37
    1924:	00 04       	cpc	r0, r0
    1926:	f7 0c       	add	r15, r7
    1928:	a8 d2       	rcall	.+1360   	; 0x1e7a <u8x8_gpio_and_delay+0xca>
    192a:	d3 38       	cpi	r29, 0x83	; 131
    192c:	8c f5       	brge	.+98     	; 0x1990 <__stack+0x1491>
    192e:	3c 56       	subi	r19, 0x6C	; 108
    1930:	05 04       	cpc	r0, r5
    1932:	f8 17       	cp	r31, r24
    1934:	f8 12       	cpse	r15, r24
    1936:	d4 11       	cpse	r29, r4
    1938:	69 07       	cpc	r22, r25
    193a:	09 79       	andi	r16, 0x99	; 153
    193c:	34 51       	subi	r19, 0x14	; 20
    193e:	24 14       	cp	r2, r4
    1940:	09 45       	sbci	r16, 0x59	; 89
    1942:	42 91       	ld	r20, -Z
    1944:	50 24       	eor	r5, r0
    1946:	26 01       	movw	r4, r12
    1948:	04 f9       	bld	r16, 4
    194a:	15 b8       	out	0x05, r1	; 5
    194c:	12 d4       	rcall	.+2084   	; 0x2172 <u8g2_send_buffer+0x6c>
    194e:	11 69       	ori	r17, 0x91	; 145
    1950:	07 09       	sbc	r16, r7
    1952:	89 26       	eor	r8, r25
    1954:	8a 84       	ldd	r8, Y+10	; 0x0a
    1956:	22 a1       	ldd	r18, Z+34	; 0x22
    1958:	48 28       	or	r4, r8
    195a:	12 93       	st	-Z, r17
    195c:	00 04       	cpc	r0, r0
    195e:	fa 1d       	adc	r31, r10
    1960:	f9 d0       	rcall	.+498    	; 0x1b54 <__stack+0x1655>
    1962:	d3 b3       	in	r29, 0x13	; 19
    1964:	c9 01       	movw	r24, r18
    1966:	72 80       	ldd	r7, Z+2	; 0x02
    1968:	1c 20       	and	r1, r12
    196a:	07 48       	sbci	r16, 0x87	; 135
    196c:	ad 72       	andi	r26, 0x2D	; 45
    196e:	80 1c       	adc	r8, r0
    1970:	20 07       	cpc	r18, r16
    1972:	c8 01       	movw	r24, r16
    1974:	72 80       	ldd	r7, Z+2	; 0x02
    1976:	1c 20       	and	r1, r12
    1978:	a4 02       	muls	r26, r20
    197a:	04 fb       	bst	r16, 4
    197c:	14 a9       	ldd	r17, Z+52	; 0x34
    197e:	d0 d3       	rcall	.+1952   	; 0x2120 <u8g2_send_buffer+0x1a>
    1980:	b3 c9       	rjmp	.-3226   	; 0xce8 <__stack+0x7e9>
    1982:	01 72       	andi	r16, 0x21	; 33
    1984:	80 f4       	brcc	.+32     	; 0x19a6 <__stack+0x14a7>
    1986:	28 07       	cpc	r18, r24
    1988:	c8 01       	movw	r24, r16
    198a:	72 80       	ldd	r7, Z+2	; 0x02
    198c:	90 0a       	sbc	r9, r16
    198e:	04 fc       	sbrc	r0, 4
    1990:	17 f8       	bld	r1, 7
    1992:	d2 d3       	rcall	.+1956   	; 0x2138 <u8g2_send_buffer+0x32>
    1994:	10 12       	cpse	r1, r16
    1996:	25 22       	and	r2, r21
    1998:	6d 44       	sbci	r22, 0x4D	; 77
    199a:	aa 94       	dec	r10
    199c:	48 13       	cpse	r20, r24
    199e:	69 11       	cpse	r22, r9
    19a0:	12 c5       	rjmp	.+2596   	; 0x23c6 <u8g2_font_setup_decode+0x22>
    19a2:	a2 0a       	sbc	r10, r18
    19a4:	00 04       	cpc	r0, r0
    19a6:	fd 14       	cp	r15, r13
    19a8:	a8 d2       	rcall	.+1360   	; 0x1efa <print_key+0xa>
    19aa:	d3 10       	cpse	r13, r3
    19ac:	4a 44       	sbci	r20, 0x4A	; 74
    19ae:	32 aa       	std	Z+50, r3	; 0x32
    19b0:	58 4a       	sbci	r21, 0xA8	; 168
    19b2:	13 49       	sbci	r17, 0x93	; 147
    19b4:	84 62       	ori	r24, 0x24	; 36
    19b6:	51 05       	cpc	r21, r1
    19b8:	00 04       	cpc	r0, r0
    19ba:	fe 15       	cp	r31, r14
    19bc:	d8 12       	cpse	r13, r24
    19be:	d4 10       	cpse	r13, r4
    19c0:	12 25       	eor	r17, r2
    19c2:	22 6d       	ori	r18, 0xD2	; 210
    19c4:	44 d2       	rcall	.+1160   	; 0x1e4e <u8x8_gpio_and_delay+0x9e>
    19c6:	21 44       	sbci	r18, 0x41	; 65
    19c8:	a4 89       	ldd	r26, Z+20	; 0x14
    19ca:	b4 08       	sbc	r11, r4
    19cc:	89 02       	muls	r24, r25
    19ce:	04 ff       	sbrs	r16, 4
    19d0:	12 88       	ldd	r1, Z+18	; 0x12
    19d2:	12 d4       	rcall	.+2084   	; 0x21f8 <u8g2_Setup_mt12232_122x32_f+0x12>
    19d4:	10 4a       	sbci	r17, 0xA0	; 160
    19d6:	44 32       	cpi	r20, 0x24	; 36
    19d8:	aa ec       	ldi	r26, 0xCA	; 202
    19da:	10 a2       	std	Z+32, r1	; 0x20
    19dc:	89 24       	eor	r8, r9
    19de:	42 01       	movw	r8, r4
    19e0:	05 00       	.word	0x0005	; ????
    19e2:	0f d8       	rcall	.-4066   	; 0xa02 <__stack+0x503>
    19e4:	12 d4       	rcall	.+2084   	; 0x220a <u8g2_Setup_mt12232_122x32_f+0x24>
    19e6:	d6 c9       	rjmp	.-3156   	; 0xd94 <__stack+0x895>
    19e8:	22 23       	and	r18, r18
    19ea:	f2 28       	or	r15, r2
    19ec:	91 89       	ldd	r25, Z+17	; 0x11
    19ee:	0c 05       	cpc	r16, r12
    19f0:	01 0f       	add	r16, r17
    19f2:	d8 12       	cpse	r13, r24
    19f4:	d4 d6       	rcall	.+3496   	; 0x279e <u8g2_font_get_glyph_data+0xfc>
    19f6:	d3 44       	sbci	r29, 0x43	; 67
    19f8:	a9 c8       	rjmp	.-3758   	; 0xb4c <__stack+0x64d>
    19fa:	51 22       	and	r5, r17
    19fc:	5a 11       	cpse	r21, r10
    19fe:	05 02       	muls	r16, r21
    1a00:	1b d9       	rcall	.-3530   	; 0xc38 <__stack+0x739>
    1a02:	10 d4       	rcall	.+2080   	; 0x2224 <u8g2_Setup_mt12232_122x32_f+0x3e>
    1a04:	94 03       	fmuls	r17, r20
    1a06:	e4 00       	.word	0x00e4	; ????
    1a08:	39 40       	sbci	r19, 0x09	; 9
    1a0a:	4a 94       	dec	r4
    1a0c:	c8 44       	sbci	r28, 0x48	; 72
    1a0e:	12 92       	st	-Z, r1
    1a10:	84 24       	eor	r8, r4
    1a12:	21 49       	sbci	r18, 0x91	; 145
    1a14:	48 12       	cpse	r4, r24
    1a16:	9d 2c       	mov	r9, r13
    1a18:	00 05       	cpc	r16, r0
    1a1a:	03 1d       	adc	r16, r3
    1a1c:	d9 10       	cpse	r13, r9
    1a1e:	d4 94       	.word	0x94d4	; ????
    1a20:	03 e4       	ldi	r16, 0x43	; 67
    1a22:	00 39       	cpi	r16, 0x90	; 144
    1a24:	40 0e       	add	r4, r16
    1a26:	90 46       	sbci	r25, 0x60	; 96
    1a28:	84 35       	cpi	r24, 0x54	; 84
    1a2a:	91 84       	ldd	r9, Z+9	; 0x09
    1a2c:	24 21       	and	r18, r4
    1a2e:	49 48       	sbci	r20, 0x89	; 137
    1a30:	12 49       	sbci	r17, 0x92	; 146
    1a32:	45 24       	eor	r4, r5
    1a34:	99 00       	.word	0x0099	; ????
    1a36:	05 04       	cpc	r0, r5
    1a38:	1b d9       	rcall	.-3530   	; 0xc70 <__stack+0x771>
    1a3a:	10 d4       	rcall	.+2080   	; 0x225c <u8g2_add_vector_y+0xc>
    1a3c:	99 4a       	sbci	r25, 0xA9	; 169
    1a3e:	84 22       	and	r8, r20
    1a40:	39 40       	sbci	r19, 0x09	; 9
    1a42:	0e 10       	cpse	r0, r14
    1a44:	4b 67       	ori	r20, 0x7B	; 123
    1a46:	4a 42       	sbci	r20, 0x2A	; 42
    1a48:	89 50       	subi	r24, 0x09	; 9
    1a4a:	22 94       	swap	r2
    1a4c:	08 25       	eor	r16, r8
    1a4e:	d2 09       	sbc	r29, r2
    1a50:	00 05       	cpc	r16, r0
    1a52:	05 13       	cpse	r16, r21
    1a54:	89 10       	cpse	r8, r9
    1a56:	d4 21       	and	r29, r4
    1a58:	8a e4       	ldi	r24, 0x4A	; 74
    1a5a:	00 e9       	ldi	r16, 0x90	; 144
    1a5c:	1c a2       	std	Y+36, r1	; 0x24
    1a5e:	28 11       	cpse	r18, r8
    1a60:	4a a4       	ldd	r4, Y+42	; 0x2a
    1a62:	13 00       	.word	0x0013	; ????
    1a64:	05 06       	cpc	r0, r21
    1a66:	1d 09       	sbc	r17, r13
    1a68:	b1 d3       	rcall	.+1890   	; 0x21cc <u8g2_SendBuffer+0x4>
    1a6a:	22 8a       	std	Z+18, r2	; 0x12
    1a6c:	14 25       	eor	r17, r4
    1a6e:	42 39       	cpi	r20, 0x92	; 146
    1a70:	40 2c       	mov	r4, r0
    1a72:	9d 43       	sbci	r25, 0x3D	; 61
    1a74:	e4 10       	cpse	r14, r4
    1a76:	39 40       	sbci	r19, 0x09	; 9
    1a78:	0e 90       	ld	r0, -X
    1a7a:	03 e4       	ldi	r16, 0x43	; 67
    1a7c:	80 39       	cpi	r24, 0x90	; 144
    1a7e:	40 ac       	ldd	r4, Z+56	; 0x38
    1a80:	04 05       	cpc	r16, r4
    1a82:	07 16       	cp	r0, r23
    1a84:	b9 b0       	in	r11, 0x09	; 9
    1a86:	d3 31       	cpi	r29, 0x13	; 19
    1a88:	09 e5       	ldi	r16, 0x59	; 89
    1a8a:	00 59       	subi	r16, 0x90	; 144
    1a8c:	1d 20       	and	r1, r13
    1a8e:	87 c8       	rjmp	.-3826   	; 0xb9e <__stack+0x69f>
    1a90:	01 72       	andi	r16, 0x21	; 33
    1a92:	c0 1c       	adc	r12, r0
    1a94:	20 56       	subi	r18, 0x60	; 96
    1a96:	02 05       	cpc	r16, r2
    1a98:	08 17       	cp	r16, r24
    1a9a:	d9 10       	cpse	r13, r9
    1a9c:	d4 29       	or	r29, r4
    1a9e:	4a 84       	ldd	r4, Y+10	; 0x0a
    1aa0:	12 a1       	ldd	r17, Z+34	; 0x22
    1aa2:	44 28       	or	r4, r4
    1aa4:	11 4a       	sbci	r17, 0xA1	; 161
    1aa6:	84 12       	cpse	r8, r20
    1aa8:	fd bf       	out	0x3d, r31	; 61
    1aaa:	54 6e       	ori	r21, 0xE4	; 228
    1aac:	13 00       	.word	0x0013	; ????
    1aae:	05 09       	sbc	r16, r5
    1ab0:	10 89       	ldd	r17, Z+16	; 0x10
    1ab2:	10 d4       	rcall	.+2080   	; 0x22d4 <u8g2_read_font_info+0x48>
    1ab4:	29 4a       	sbci	r18, 0xA9	; 169
    1ab6:	84 12       	cpse	r8, r20
    1ab8:	a1 44       	sbci	r26, 0x41	; 65
    1aba:	ff 85       	ldd	r31, Y+15	; 0x0f
    1abc:	36 01       	movw	r6, r12
    1abe:	05 0a       	sbc	r0, r21
    1ac0:	1d d8       	rcall	.-4038   	; 0xafc <__stack+0x5fd>
    1ac2:	12 d4       	rcall	.+2084   	; 0x22e8 <u8g2_read_font_info+0x5c>
    1ac4:	90 c8       	rjmp	.-3808   	; 0xbe6 <__stack+0x6e7>
    1ac6:	24 32       	cpi	r18, 0x24	; 36
    1ac8:	89 4c       	sbci	r24, 0xC9	; 201
    1aca:	22 93       	st	-Z, r18
    1acc:	c8 24       	eor	r12, r8
    1ace:	b2 0a       	sbc	r11, r18
    1ad0:	45 42       	sbci	r20, 0x25	; 37
    1ad2:	91 50       	subi	r25, 0x01	; 1
    1ad4:	24 14       	cp	r2, r4
    1ad6:	09 45       	sbci	r16, 0x59	; 89
    1ad8:	42 9a       	sbi	0x08, 2	; 8
    1ada:	00 05       	cpc	r16, r0
    1adc:	0b 14       	cp	r0, r11
    1ade:	88 12       	cpse	r8, r24
    1ae0:	d4 90       	lpm	r13, Z
    1ae2:	c8 24       	eor	r12, r8
    1ae4:	32 89       	ldd	r19, Z+18	; 0x12
    1ae6:	ac 42       	sbci	r26, 0x2C	; 44
    1ae8:	91 50       	subi	r25, 0x01	; 1
    1aea:	24 14       	cp	r2, r4
    1aec:	09 69       	ori	r16, 0x99	; 153
    1aee:	02 05       	cpc	r16, r2
    1af0:	0c 12       	cpse	r0, r28
    1af2:	d8 12       	cpse	r13, r24
    1af4:	d4 a2       	std	Z+36, r13	; 0x24
    1af6:	89 24       	eor	r8, r9
    1af8:	42 b2       	in	r4, 0x12	; 18
    1afa:	26 23       	and	r18, r22
    1afc:	47 89       	ldd	r20, Z+23	; 0x17
    1afe:	48 46       	sbci	r20, 0x68	; 104
    1b00:	02 05       	cpc	r16, r2
    1b02:	0d 11       	cpse	r16, r13
    1b04:	88 12       	cpse	r8, r24
    1b06:	d4 a2       	std	Z+36, r13	; 0x24
    1b08:	89 24       	eor	r8, r9
    1b0a:	42 b2       	in	r4, 0x12	; 18
    1b0c:	c8 28       	or	r12, r8
    1b0e:	11 c9       	rjmp	.-3550   	; 0xd32 <__stack+0x833>
    1b10:	48 00       	.word	0x0048	; ????
    1b12:	05 0e       	add	r0, r21
    1b14:	16 d8       	rcall	.-4052   	; 0xb42 <__stack+0x643>
    1b16:	12 d4       	rcall	.+2084   	; 0x233c <u8g2_read_font_info+0xb0>
    1b18:	38 c4       	rjmp	.+2160   	; 0x238a <u8g2_font_decode_get_unsigned_bits+0x46>
    1b1a:	c4 7a       	andi	r28, 0xA4	; 164
    1b1c:	91 49       	sbci	r25, 0x91	; 145
    1b1e:	64 12       	cpse	r6, r20
    1b20:	99 44       	sbci	r25, 0x49	; 73
    1b22:	26 91       	elpm	r18, Z
    1b24:	49 84       	ldd	r4, Y+9	; 0x09
    1b26:	13 00       	.word	0x0013	; ????
    1b28:	05 0f       	add	r16, r21
    1b2a:	12 88       	ldd	r1, Z+18	; 0x12
    1b2c:	12 d4       	rcall	.+2084   	; 0x2352 <u8g2_font_decode_get_unsigned_bits+0xe>
    1b2e:	38 c4       	rjmp	.+2160   	; 0x23a0 <u8g2_font_decode_get_unsigned_bits+0x5c>
    1b30:	c4 2a       	or	r12, r20
    1b32:	32 89       	ldd	r19, Z+18	; 0x12
    1b34:	4c 22       	and	r4, r28
    1b36:	93 08       	sbc	r9, r3
    1b38:	27 00       	.word	0x0027	; ????
    1b3a:	05 10       	cpse	r0, r5
    1b3c:	16 d8       	rcall	.-4052   	; 0xb6a <__stack+0x66b>
    1b3e:	12 d4       	rcall	.+2084   	; 0x2364 <u8g2_font_decode_get_unsigned_bits+0x20>
    1b40:	a2 89       	ldd	r26, Z+18	; 0x12
    1b42:	24 42       	sbci	r18, 0x24	; 36
    1b44:	76 80       	ldd	r7, Z+6	; 0x06
    1b46:	1c 30       	cpi	r17, 0x0C	; 12
    1b48:	94 8a       	std	Z+20, r9	; 0x14
    1b4a:	85 44       	sbci	r24, 0x45	; 69
    1b4c:	89 48       	sbci	r24, 0x89	; 137
    1b4e:	46 02       	muls	r20, r22
    1b50:	05 11       	cpse	r16, r5
    1b52:	10 88       	ldd	r1, Z+16	; 0x10
    1b54:	12 d4       	rcall	.+2084   	; 0x237a <u8g2_font_decode_get_unsigned_bits+0x36>
    1b56:	b1 08       	sbc	r11, r1
    1b58:	e9 80       	ldd	r14, Y+1	; 0x01
    1b5a:	9a 54       	subi	r25, 0x4A	; 74
    1b5c:	2c 94 58 00 	jmp	0x800b0	; 0x800b0 <__TEXT_REGION_LENGTH__+0x600b0>
    1b60:	05 12       	cpse	r0, r21
    1b62:	1c f8       	.word	0xf81c	; ????
    1b64:	d2 d3       	rcall	.+1956   	; 0x230a <u8g2_read_font_info+0x7e>
    1b66:	2b a9       	ldd	r18, Y+51	; 0x33
    1b68:	c8 24       	eor	r12, r8
    1b6a:	32 89       	ldd	r19, Z+18	; 0x12
    1b6c:	4c 22       	and	r4, r28
    1b6e:	93 c8       	rjmp	.-3802   	; 0xc96 <__stack+0x797>
    1b70:	24 32       	cpi	r18, 0x24	; 36
    1b72:	89 4c       	sbci	r24, 0xC9	; 201
    1b74:	22 93       	st	-Z, r18
    1b76:	c8 6a       	ori	r28, 0xA8	; 168
    1b78:	44 b1       	in	r20, 0x04	; 4
    1b7a:	a8 02       	muls	r26, r24
    1b7c:	05 13       	cpse	r16, r21
    1b7e:	15 a8       	ldd	r1, Z+53	; 0x35
    1b80:	d2 d3       	rcall	.+1956   	; 0x2326 <u8g2_read_font_info+0x9a>
    1b82:	2b a9       	ldd	r18, Y+51	; 0x33
    1b84:	c8 24       	eor	r12, r8
    1b86:	32 89       	ldd	r19, Z+18	; 0x12
    1b88:	4c 22       	and	r4, r28
    1b8a:	93 c8       	rjmp	.-3802   	; 0xcb2 <__stack+0x7b3>
    1b8c:	88 62       	ori	r24, 0x28	; 40
    1b8e:	51 05       	cpc	r21, r1
    1b90:	00 05       	cpc	r16, r0
    1b92:	14 12       	cpse	r1, r20
    1b94:	d9 10       	cpse	r13, r9
    1b96:	d4 b0       	in	r13, 0x04	; 4
    1b98:	e8 ff       	.word	0xffe8	; ????
    1b9a:	9f 46       	sbci	r25, 0x6F	; 111
    1b9c:	12 fd       	sbrc	r17, 2
    1b9e:	97 8a       	std	Z+23, r9	; 0x17
    1ba0:	84 24       	eor	r8, r4
    1ba2:	11 05       	cpc	r17, r1
    1ba4:	15 12       	cpse	r1, r21
    1ba6:	89 10       	cpse	r8, r9
    1ba8:	d4 b0       	in	r13, 0x04	; 4
    1baa:	e8 4f       	sbci	r30, 0xF8	; 248
    1bac:	23 d1       	rcall	.+582    	; 0x1df4 <u8x8_gpio_and_delay+0x44>
    1bae:	48 22       	and	r4, r24
    1bb0:	a9 48       	sbci	r26, 0x89	; 137
    1bb2:	48 12       	cpse	r4, r24
    1bb4:	01 05       	cpc	r16, r1
    1bb6:	16 17       	cp	r17, r22
    1bb8:	d9 12       	cpse	r13, r25
    1bba:	d4 a0       	ldd	r13, Z+36	; 0x24
    1bbc:	51 44       	sbci	r21, 0x41	; 65
    1bbe:	24 09       	sbc	r18, r4
    1bc0:	49 42       	sbci	r20, 0x29	; 41
    1bc2:	92 90       	ld	r9, -Z
    1bc4:	28 12       	cpse	r2, r24
    1bc6:	12 49       	sbci	r17, 0x92	; 146
    1bc8:	22 e5       	ldi	r18, 0x52	; 82
    1bca:	55 00       	.word	0x0055	; ????
    1bcc:	05 17       	cp	r16, r21
    1bce:	1b c9       	rjmp	.-3530   	; 0xe06 <__stack+0x907>
    1bd0:	92 d3       	rcall	.+1828   	; 0x22f6 <u8g2_read_font_info+0x6a>
    1bd2:	90 88       	ldd	r9, Z+16	; 0x10
    1bd4:	2a 12       	cpse	r2, r26
    1bd6:	92 84       	ldd	r9, Z+10	; 0x0a
    1bd8:	44 11       	cpse	r20, r4
    1bda:	51 44       	sbci	r21, 0x41	; 65
    1bdc:	92 8a       	std	Z+18, r9	; 0x12
    1bde:	84 22       	and	r8, r20
    1be0:	a2 03       	fmuls	r18, r18
    1be2:	e4 00       	.word	0x00e4	; ????
    1be4:	39 40       	sbci	r19, 0x09	; 9
    1be6:	0e 05       	cpc	r16, r14
    1be8:	18 12       	cpse	r1, r24
    1bea:	d8 12       	cpse	r13, r24
    1bec:	d4 b2       	in	r13, 0x14	; 20
    1bee:	28 e9       	ldi	r18, 0x98	; 152
    1bf0:	6f 12       	cpse	r6, r31
    1bf2:	a1 45       	sbci	r26, 0x51	; 81
    1bf4:	4d 22       	and	r4, r29
    1bf6:	d2 13       	cpse	r29, r18
    1bf8:	01 05       	cpc	r16, r1
    1bfa:	19 13       	cpse	r17, r25
    1bfc:	88 12       	cpse	r8, r24
    1bfe:	d4 b1       	in	r29, 0x04	; 4
    1c00:	a8 50       	subi	r26, 0x08	; 8
    1c02:	24 87       	std	Z+12, r18	; 0x0c
    1c04:	09 4d       	sbci	r16, 0xD9	; 217
    1c06:	22 93       	st	-Z, r18
    1c08:	48 48       	sbci	r20, 0x88	; 136
    1c0a:	13 00       	.word	0x0013	; ????
    1c0c:	05 1a       	sub	r0, r21
    1c0e:	13 e8       	ldi	r17, 0x83	; 131
    1c10:	f2 d3       	rcall	.+2020   	; 0x23f6 <u8g2_font_setup_decode+0x52>
    1c12:	a2 89       	ldd	r26, Z+18	; 0x12
    1c14:	24 42       	sbci	r18, 0x24	; 36
    1c16:	fe 22       	and	r15, r30
    1c18:	21 51       	subi	r18, 0x11	; 17
    1c1a:	44 b2       	in	r4, 0x14	; 20
    1c1c:	3a 40       	sbci	r19, 0x0A	; 10
    1c1e:	00 05       	cpc	r16, r0
    1c20:	1b 0f       	add	r17, r27
    1c22:	c8 92       	.word	0x92c8	; ????
    1c24:	d3 9a       	sbi	0x1a, 3	; 26
    1c26:	28 15       	cp	r18, r8
    1c28:	39 4a       	sbci	r19, 0xA9	; 169
    1c2a:	44 2b       	or	r20, r20
    1c2c:	62 1d       	adc	r22, r2
    1c2e:	05 1c       	adc	r0, r5
    1c30:	13 d8       	rcall	.-4058   	; 0xc58 <__stack+0x759>
    1c32:	12 d4       	rcall	.+2084   	; 0x2458 <u8g2_font_decode_len+0x3e>
    1c34:	10 f2       	brcs	.-124    	; 0x1bba <__stack+0x16bb>
    1c36:	45 42       	sbci	r20, 0x25	; 37
    1c38:	91 50       	subi	r25, 0x01	; 1
    1c3a:	24 14       	cp	r2, r4
    1c3c:	49 c9       	rjmp	.-3438   	; 0xed0 <__stack+0x9d1>
    1c3e:	54 24       	eor	r5, r4
    1c40:	0a 05       	cpc	r16, r10
    1c42:	1d 11       	cpse	r17, r13
    1c44:	88 12       	cpse	r8, r24
    1c46:	d4 10       	cpse	r13, r4
    1c48:	72 91       	ld	r23, -Z
    1c4a:	50 24       	eor	r5, r0
    1c4c:	14 c9       	rjmp	.-3544   	; 0xe76 <__stack+0x977>
    1c4e:	61 22       	and	r6, r17
    1c50:	92 00       	.word	0x0092	; ????
    1c52:	05 1e       	adc	r0, r21
    1c54:	18 d8       	rcall	.-4048   	; 0xc86 <__stack+0x787>
    1c56:	12 d4       	rcall	.+2084   	; 0x247c <u8g2_font_decode_len+0x62>
    1c58:	10 92 22 34 	sts	0x3422, r1	; 0x803422 <__bss_end+0x3077>
    1c5c:	89 4c       	sbci	r24, 0xC9	; 201
    1c5e:	22 92       	st	-Z, r2
    1c60:	8c 44       	sbci	r24, 0x4C	; 76
    1c62:	35 91       	lpm	r19, Z+
    1c64:	6e 12       	cpse	r6, r30
    1c66:	99 44       	sbci	r25, 0x49	; 73
    1c68:	48 14       	cp	r4, r8
    1c6a:	05 1f       	adc	r16, r21
    1c6c:	12 88       	ldd	r1, Z+18	; 0x12
    1c6e:	12 d4       	rcall	.+2084   	; 0x2494 <u8g2_font_decode_len+0x7a>
    1c70:	10 45       	sbci	r17, 0x50	; 80
    1c72:	68 12       	cpse	r6, r24
    1c74:	d1 a4       	ldd	r13, Z+41	; 0x29
    1c76:	64 13       	cpse	r22, r20
    1c78:	a9 49       	sbci	r26, 0x99	; 153
    1c7a:	84 02       	muls	r24, r20
    1c7c:	05 20       	and	r0, r5
    1c7e:	1c f9       	.word	0xf91c	; ????
    1c80:	d0 d3       	rcall	.+1952   	; 0x2422 <u8g2_font_decode_len+0x8>
    1c82:	9b 12       	cpse	r9, r27
    1c84:	25 42       	sbci	r18, 0x25	; 37
    1c86:	89 50       	subi	r24, 0x09	; 9
    1c88:	22 94       	swap	r2
    1c8a:	08 25       	eor	r16, r8
    1c8c:	24 89       	ldd	r18, Z+20	; 0x14
    1c8e:	fe 4b       	sbci	r31, 0xBE	; 190
    1c90:	45 42       	sbci	r20, 0x25	; 37
    1c92:	92 c8       	rjmp	.-3804   	; 0xdb8 <__stack+0x8b9>
    1c94:	01 b2       	in	r0, 0x11	; 17
    1c96:	0a 00       	.word	0x000a	; ????
    1c98:	05 21       	and	r16, r5
    1c9a:	14 a9       	ldd	r17, Z+52	; 0x34
    1c9c:	d0 d3       	rcall	.+1952   	; 0x243e <u8g2_font_decode_len+0x24>
    1c9e:	9b 12       	cpse	r9, r27
    1ca0:	25 42       	sbci	r18, 0x25	; 37
    1ca2:	09 49       	sbci	r16, 0x99	; 153
    1ca4:	a2 5f       	subi	r26, 0xF2	; 242
    1ca6:	48 12       	cpse	r4, r24
    1ca8:	39 40       	sbci	r19, 0x09	; 9
    1caa:	56 01       	movw	r10, r12
    1cac:	05 22       	and	r0, r21
    1cae:	1e f8       	.word	0xf81e	; ????
    1cb0:	d2 d3       	rcall	.+1956   	; 0x2456 <u8g2_font_decode_len+0x3c>
    1cb2:	90 c8       	rjmp	.-3808   	; 0xdd4 <__stack+0x8d5>
    1cb4:	24 32       	cpi	r18, 0x24	; 36
    1cb6:	89 4c       	sbci	r24, 0xC9	; 201
    1cb8:	22 93       	st	-Z, r18
    1cba:	c8 24       	eor	r12, r8
    1cbc:	b2 8b       	std	Z+18, r27	; 0x12
    1cbe:	0a 45       	sbci	r16, 0x5A	; 90
    1cc0:	42 91       	ld	r20, -Z
    1cc2:	50 24       	eor	r5, r0
    1cc4:	14 09       	sbc	r17, r4
    1cc6:	45 59       	subi	r20, 0x95	; 149
    1cc8:	54 01       	movw	r10, r8
    1cca:	05 23       	and	r16, r21
    1ccc:	16 a8       	ldd	r1, Z+54	; 0x36
    1cce:	d2 d3       	rcall	.+1956   	; 0x2474 <u8g2_font_decode_len+0x5a>
    1cd0:	90 c8       	rjmp	.-3808   	; 0xdf2 <__stack+0x8f3>
    1cd2:	24 32       	cpi	r18, 0x24	; 36
    1cd4:	89 ec       	ldi	r24, 0xC9	; 201
    1cd6:	a2 42       	sbci	r26, 0x22	; 34
    1cd8:	91 50       	subi	r25, 0x01	; 1
    1cda:	24 14       	cp	r2, r4
    1cdc:	65 51       	subi	r22, 0x15	; 21
    1cde:	05 00       	.word	0x0005	; ????
	...

00001ce2 <__ctors_end>:
    1ce2:	11 24       	eor	r1, r1
    1ce4:	1f be       	out	0x3f, r1	; 63
    1ce6:	cf ef       	ldi	r28, 0xFF	; 255
    1ce8:	d4 e0       	ldi	r29, 0x04	; 4
    1cea:	de bf       	out	0x3e, r29	; 62
    1cec:	cd bf       	out	0x3d, r28	; 61

00001cee <__do_copy_data>:
    1cee:	11 e0       	ldi	r17, 0x01	; 1
    1cf0:	a0 e0       	ldi	r26, 0x00	; 0
    1cf2:	b1 e0       	ldi	r27, 0x01	; 1
    1cf4:	ee e4       	ldi	r30, 0x4E	; 78
    1cf6:	f4 e3       	ldi	r31, 0x34	; 52
    1cf8:	02 c0       	rjmp	.+4      	; 0x1cfe <__do_copy_data+0x10>
    1cfa:	05 90       	lpm	r0, Z+
    1cfc:	0d 92       	st	X+, r0
    1cfe:	a4 34       	cpi	r26, 0x44	; 68
    1d00:	b1 07       	cpc	r27, r17
    1d02:	d9 f7       	brne	.-10     	; 0x1cfa <__do_copy_data+0xc>

00001d04 <__do_clear_bss>:
    1d04:	23 e0       	ldi	r18, 0x03	; 3
    1d06:	a4 e4       	ldi	r26, 0x44	; 68
    1d08:	b1 e0       	ldi	r27, 0x01	; 1
    1d0a:	01 c0       	rjmp	.+2      	; 0x1d0e <.do_clear_bss_start>

00001d0c <.do_clear_bss_loop>:
    1d0c:	1d 92       	st	X+, r1

00001d0e <.do_clear_bss_start>:
    1d0e:	ab 3a       	cpi	r26, 0xAB	; 171
    1d10:	b2 07       	cpc	r27, r18
    1d12:	e1 f7       	brne	.-8      	; 0x1d0c <.do_clear_bss_loop>
    1d14:	f1 d1       	rcall	.+994    	; 0x20f8 <main>
    1d16:	0c 94 25 1a 	jmp	0x344a	; 0x344a <_exit>

00001d1a <__bad_interrupt>:
    1d1a:	0c 94 00 00 	jmp	0	; 0x0 <__vectors>

00001d1e <u8x8_avr_delay>:

uint8_t u8x8_avr_delay(u8x8_t *u8x8, uint8_t msg, uint8_t arg_int, void *arg_ptr)
{
	uint8_t cycles;

	switch(msg)
    1d1e:	6a 32       	cpi	r22, 0x2A	; 42
    1d20:	51 f0       	breq	.+20     	; 0x1d36 <u8x8_avr_delay+0x18>
    1d22:	18 f4       	brcc	.+6      	; 0x1d2a <u8x8_avr_delay+0xc>
    1d24:	69 32       	cpi	r22, 0x29	; 41
    1d26:	69 f0       	breq	.+26     	; 0x1d42 <u8x8_avr_delay+0x24>
    1d28:	3f c0       	rjmp	.+126    	; 0x1da8 <u8x8_avr_delay+0x8a>
    1d2a:	6b 32       	cpi	r22, 0x2B	; 43
    1d2c:	81 f0       	breq	.+32     	; 0x1d4e <u8x8_avr_delay+0x30>
    1d2e:	6c 32       	cpi	r22, 0x2C	; 44
    1d30:	d9 f5       	brne	.+118    	; 0x1da8 <u8x8_avr_delay+0x8a>
		_delay_ms(1);
		break;
		default:
		return 0;
	}
	return 1;
    1d32:	81 e0       	ldi	r24, 0x01	; 1
    1d34:	08 95       	ret
		"1: sbiw %0,1" "\n\t" // 2 cycles
		"brne 1b" : "=w" (cycles) : "0" (cycles) // 2 cycles
		);
		break;
		case U8X8_MSG_DELAY_10MICRO:    // delay arg_int * 10 micro seconds
		for(int i=0 ; i < arg_int ; i++)
    1d36:	50 e0       	ldi	r21, 0x00	; 0
    1d38:	14 16       	cp	r1, r20
    1d3a:	15 06       	cpc	r1, r21
    1d3c:	dc f0       	brlt	.+54     	; 0x1d74 <u8x8_avr_delay+0x56>
		_delay_ms(1);
		break;
		default:
		return 0;
	}
	return 1;
    1d3e:	81 e0       	ldi	r24, 0x01	; 1
    1d40:	08 95       	ret
		case U8X8_MSG_DELAY_10MICRO:    // delay arg_int * 10 micro seconds
		for(int i=0 ; i < arg_int ; i++)
		_delay_us(10);
		break;
		case U8X8_MSG_DELAY_MILLI:      // delay arg_int * 1 milli second
		for(int i=0 ; i < arg_int ; i++)
    1d42:	50 e0       	ldi	r21, 0x00	; 0
    1d44:	14 16       	cp	r1, r20
    1d46:	15 06       	cpc	r1, r21
    1d48:	0c f1       	brlt	.+66     	; 0x1d8c <u8x8_avr_delay+0x6e>
		_delay_ms(1);
		break;
		default:
		return 0;
	}
	return 1;
    1d4a:	81 e0       	ldi	r24, 0x01	; 1
    1d4c:	08 95       	ret
		#define CALL_CYCLES 26UL
		#define CALC_CYCLES 4UL
		#define RETURN_CYCLES 4UL
		#define CYCLES_PER_LOOP 4UL

		cycles = (100UL * arg_int) / (P_CPU_NS * CYCLES_PER_LOOP);
    1d4e:	24 2f       	mov	r18, r20
    1d50:	30 e0       	ldi	r19, 0x00	; 0
    1d52:	a4 e6       	ldi	r26, 0x64	; 100
    1d54:	b0 e0       	ldi	r27, 0x00	; 0
    1d56:	0e 94 0f 1a 	call	0x341e	; 0x341e <__umulhisi3>
    1d5a:	24 ef       	ldi	r18, 0xF4	; 244
    1d5c:	31 e0       	ldi	r19, 0x01	; 1
    1d5e:	40 e0       	ldi	r20, 0x00	; 0
    1d60:	50 e0       	ldi	r21, 0x00	; 0
    1d62:	0e 94 e7 19 	call	0x33ce	; 0x33ce <__udivmodsi4>

		if(cycles > CALL_CYCLES + RETURN_CYCLES + CALC_CYCLES)
    1d66:	23 32       	cpi	r18, 0x23	; 35
    1d68:	08 f5       	brcc	.+66     	; 0x1dac <u8x8_avr_delay+0x8e>
		break;

		__asm__ __volatile__ (
    1d6a:	82 2f       	mov	r24, r18
    1d6c:	01 97       	sbiw	r24, 0x01	; 1
    1d6e:	f1 f7       	brne	.-4      	; 0x1d6c <u8x8_avr_delay+0x4e>
		_delay_ms(1);
		break;
		default:
		return 0;
	}
	return 1;
    1d70:	81 e0       	ldi	r24, 0x01	; 1

		__asm__ __volatile__ (
		"1: sbiw %0,1" "\n\t" // 2 cycles
		"brne 1b" : "=w" (cycles) : "0" (cycles) // 2 cycles
		);
		break;
    1d72:	08 95       	ret
		case U8X8_MSG_DELAY_10MICRO:    // delay arg_int * 10 micro seconds
		for(int i=0 ; i < arg_int ; i++)
    1d74:	80 e0       	ldi	r24, 0x00	; 0
    1d76:	90 e0       	ldi	r25, 0x00	; 0
	#else
		//round up by default
		__ticks_dc = (uint32_t)(ceil(fabs(__tmp)));
	#endif

	__builtin_avr_delay_cycles(__ticks_dc);
    1d78:	2a e1       	ldi	r18, 0x1A	; 26
    1d7a:	2a 95       	dec	r18
    1d7c:	f1 f7       	brne	.-4      	; 0x1d7a <u8x8_avr_delay+0x5c>
    1d7e:	00 c0       	rjmp	.+0      	; 0x1d80 <u8x8_avr_delay+0x62>
    1d80:	01 96       	adiw	r24, 0x01	; 1
    1d82:	84 17       	cp	r24, r20
    1d84:	95 07       	cpc	r25, r21
    1d86:	c1 f7       	brne	.-16     	; 0x1d78 <u8x8_avr_delay+0x5a>
		_delay_ms(1);
		break;
		default:
		return 0;
	}
	return 1;
    1d88:	81 e0       	ldi	r24, 0x01	; 1
    1d8a:	08 95       	ret
		case U8X8_MSG_DELAY_10MICRO:    // delay arg_int * 10 micro seconds
		for(int i=0 ; i < arg_int ; i++)
		_delay_us(10);
		break;
		case U8X8_MSG_DELAY_MILLI:      // delay arg_int * 1 milli second
		for(int i=0 ; i < arg_int ; i++)
    1d8c:	80 e0       	ldi	r24, 0x00	; 0
    1d8e:	90 e0       	ldi	r25, 0x00	; 0
	#else
		//round up by default
		__ticks_dc = (uint32_t)(ceil(fabs(__tmp)));
	#endif

	__builtin_avr_delay_cycles(__ticks_dc);
    1d90:	ef ec       	ldi	r30, 0xCF	; 207
    1d92:	f7 e0       	ldi	r31, 0x07	; 7
    1d94:	31 97       	sbiw	r30, 0x01	; 1
    1d96:	f1 f7       	brne	.-4      	; 0x1d94 <u8x8_avr_delay+0x76>
    1d98:	00 c0       	rjmp	.+0      	; 0x1d9a <u8x8_avr_delay+0x7c>
    1d9a:	00 00       	nop
    1d9c:	01 96       	adiw	r24, 0x01	; 1
    1d9e:	84 17       	cp	r24, r20
    1da0:	95 07       	cpc	r25, r21
    1da2:	b1 f7       	brne	.-20     	; 0x1d90 <u8x8_avr_delay+0x72>
		_delay_ms(1);
		break;
		default:
		return 0;
	}
	return 1;
    1da4:	81 e0       	ldi	r24, 0x01	; 1
    1da6:	08 95       	ret
		case U8X8_MSG_DELAY_MILLI:      // delay arg_int * 1 milli second
		for(int i=0 ; i < arg_int ; i++)
		_delay_ms(1);
		break;
		default:
		return 0;
    1da8:	80 e0       	ldi	r24, 0x00	; 0
    1daa:	08 95       	ret
	}
	return 1;
    1dac:	81 e0       	ldi	r24, 0x01	; 1
}
    1dae:	08 95       	ret

00001db0 <u8x8_gpio_and_delay>:
*/



uint8_t u8x8_gpio_and_delay(u8x8_t *u8x8, uint8_t msg, uint8_t arg_int, void *arg_ptr)
{
    1db0:	0f 93       	push	r16
    1db2:	1f 93       	push	r17
    1db4:	cf 93       	push	r28
    1db6:	df 93       	push	r29
    1db8:	d9 01       	movw	r26, r18
	switch(msg)
    1dba:	06 2f       	mov	r16, r22
    1dbc:	10 e0       	ldi	r17, 0x00	; 0
    1dbe:	f8 01       	movw	r30, r16
    1dc0:	b8 97       	sbiw	r30, 0x28	; 40
    1dc2:	e4 32       	cpi	r30, 0x24	; 36
    1dc4:	f1 05       	cpc	r31, r1
    1dc6:	08 f0       	brcs	.+2      	; 0x1dca <u8x8_gpio_and_delay+0x1a>
    1dc8:	60 c0       	rjmp	.+192    	; 0x1e8a <u8x8_gpio_and_delay+0xda>
    1dca:	e8 5c       	subi	r30, 0xC8	; 200
    1dcc:	ff 4f       	sbci	r31, 0xFF	; 255
    1dce:	0c 94 09 1a 	jmp	0x3412	; 0x3412 <__tablejump2__>
	{

		case U8X8_MSG_GPIO_AND_DELAY_INIT:	// called once during init phase of u8g2/u8x8
		PIN_OUT(LCD_D0);
    1dd2:	d5 9a       	sbi	0x1a, 5	; 26
		PIN_OUT(LCD_D1);
    1dd4:	d4 9a       	sbi	0x1a, 4	; 26
		PIN_OUT(LCD_D2);
    1dd6:	d3 9a       	sbi	0x1a, 3	; 26
		PIN_OUT(LCD_D3);
    1dd8:	d2 9a       	sbi	0x1a, 2	; 26
		PIN_OUT(LCD_D4);
    1dda:	bc 9a       	sbi	0x17, 4	; 23
		PIN_OUT(LCD_D5);
    1ddc:	bb 9a       	sbi	0x17, 3	; 23
		PIN_OUT(LCD_D6);
    1dde:	ba 9a       	sbi	0x17, 2	; 23
		PIN_OUT(LCD_D7);
    1de0:	b9 9a       	sbi	0x17, 1	; 23
		PIN_OUT(LCD_CS);
    1de2:	d7 9a       	sbi	0x1a, 7	; 26
		PIN_OUT(LCD_A0);
    1de4:	b8 9a       	sbi	0x17, 0	; 23
		PIN_OUT(LCD_RESET);
    1de6:	d6 9a       	sbi	0x1a, 6	; 26
		PIN_OUT(LCD_E);
    1de8:	d1 9a       	sbi	0x1a, 1	; 26
		PIN_OUT(LCD_RW);
    1dea:	d0 9a       	sbi	0x1a, 0	; 26

		SET(LCD_E);
    1dec:	d9 9a       	sbi	0x1b, 1	; 27
		SET(LCD_RESET);
    1dee:	de 9a       	sbi	0x1b, 6	; 27
		break;
    1df0:	53 c0       	rjmp	.+166    	; 0x1e98 <u8x8_gpio_and_delay+0xe8>
		case U8X8_MSG_DELAY_I2C:				// arg_int is the I2C speed in 100KHz, e.g. 4 = 400 KHz
		break;							// arg_int=1: delay by 5us, arg_int = 4: delay by 1.25us
		*/
		case U8X8_MSG_GPIO_D0:				// D0 or SPI clock pin: Output level in arg_int
		//case U8X8_MSG_GPIO_SPI_CLOCK:
		if (arg_int){
    1df2:	44 23       	and	r20, r20
    1df4:	11 f0       	breq	.+4      	; 0x1dfa <u8x8_gpio_and_delay+0x4a>
			SET(LCD_D0);
    1df6:	dd 9a       	sbi	0x1b, 5	; 27
    1df8:	4f c0       	rjmp	.+158    	; 0x1e98 <u8x8_gpio_and_delay+0xe8>
			}else{
			CLR(LCD_D0);
    1dfa:	dd 98       	cbi	0x1b, 5	; 27
    1dfc:	4d c0       	rjmp	.+154    	; 0x1e98 <u8x8_gpio_and_delay+0xe8>
		}
		break;
		case U8X8_MSG_GPIO_D1:				// D1 or SPI data pin: Output level in arg_int
		//case U8X8_MSG_GPIO_SPI_DATA:
		if (arg_int){
    1dfe:	44 23       	and	r20, r20
    1e00:	11 f0       	breq	.+4      	; 0x1e06 <u8x8_gpio_and_delay+0x56>
			SET(LCD_D1);
    1e02:	dc 9a       	sbi	0x1b, 4	; 27
    1e04:	49 c0       	rjmp	.+146    	; 0x1e98 <u8x8_gpio_and_delay+0xe8>
			}else{
			CLR(LCD_D1);
    1e06:	dc 98       	cbi	0x1b, 4	; 27
    1e08:	47 c0       	rjmp	.+142    	; 0x1e98 <u8x8_gpio_and_delay+0xe8>
		}
		break;
		case U8X8_MSG_GPIO_D2:				// D2 pin: Output level in arg_int
		if (arg_int){
    1e0a:	44 23       	and	r20, r20
    1e0c:	11 f0       	breq	.+4      	; 0x1e12 <u8x8_gpio_and_delay+0x62>
			SET(LCD_D2);
    1e0e:	db 9a       	sbi	0x1b, 3	; 27
    1e10:	43 c0       	rjmp	.+134    	; 0x1e98 <u8x8_gpio_and_delay+0xe8>
			}else{
			CLR(LCD_D2);
    1e12:	db 98       	cbi	0x1b, 3	; 27
    1e14:	41 c0       	rjmp	.+130    	; 0x1e98 <u8x8_gpio_and_delay+0xe8>
		}
		break;
		case U8X8_MSG_GPIO_D3:				// D3 pin: Output level in arg_int
		if(arg_int){
    1e16:	44 23       	and	r20, r20
    1e18:	11 f0       	breq	.+4      	; 0x1e1e <u8x8_gpio_and_delay+0x6e>
			SET(LCD_D3);
    1e1a:	da 9a       	sbi	0x1b, 2	; 27
    1e1c:	3d c0       	rjmp	.+122    	; 0x1e98 <u8x8_gpio_and_delay+0xe8>
			}else{
			CLR(LCD_D3);
    1e1e:	da 98       	cbi	0x1b, 2	; 27
    1e20:	3b c0       	rjmp	.+118    	; 0x1e98 <u8x8_gpio_and_delay+0xe8>
		}
		break;
		case U8X8_MSG_GPIO_D4:				// D4 pin: Output level in arg_int
		if (arg_int){
    1e22:	44 23       	and	r20, r20
    1e24:	11 f0       	breq	.+4      	; 0x1e2a <u8x8_gpio_and_delay+0x7a>
			SET(LCD_D4);
    1e26:	c4 9a       	sbi	0x18, 4	; 24
    1e28:	37 c0       	rjmp	.+110    	; 0x1e98 <u8x8_gpio_and_delay+0xe8>
			}else{
			CLR(LCD_D4);
    1e2a:	c4 98       	cbi	0x18, 4	; 24
    1e2c:	35 c0       	rjmp	.+106    	; 0x1e98 <u8x8_gpio_and_delay+0xe8>
		}
		break;
		case U8X8_MSG_GPIO_D5:				// D5 pin: Output level in arg_int
		if(arg_int){
    1e2e:	44 23       	and	r20, r20
    1e30:	11 f0       	breq	.+4      	; 0x1e36 <u8x8_gpio_and_delay+0x86>
			SET(LCD_D5);
    1e32:	c3 9a       	sbi	0x18, 3	; 24
    1e34:	31 c0       	rjmp	.+98     	; 0x1e98 <u8x8_gpio_and_delay+0xe8>
			}else{
			CLR(LCD_D5);
    1e36:	c3 98       	cbi	0x18, 3	; 24
    1e38:	2f c0       	rjmp	.+94     	; 0x1e98 <u8x8_gpio_and_delay+0xe8>
		}
		break;
		case U8X8_MSG_GPIO_D6:				// D6 pin: Output level in arg_int
		if (arg_int){
    1e3a:	44 23       	and	r20, r20
    1e3c:	11 f0       	breq	.+4      	; 0x1e42 <u8x8_gpio_and_delay+0x92>
			SET(LCD_D6);
    1e3e:	c2 9a       	sbi	0x18, 2	; 24
    1e40:	2b c0       	rjmp	.+86     	; 0x1e98 <u8x8_gpio_and_delay+0xe8>
			}else{
			CLR(LCD_D6);
    1e42:	c2 98       	cbi	0x18, 2	; 24
    1e44:	29 c0       	rjmp	.+82     	; 0x1e98 <u8x8_gpio_and_delay+0xe8>
		}
		break;
		case U8X8_MSG_GPIO_D7:				// D7 pin: Output level in arg_int
		if(arg_int){
    1e46:	44 23       	and	r20, r20
    1e48:	11 f0       	breq	.+4      	; 0x1e4e <u8x8_gpio_and_delay+0x9e>
			SET(LCD_D7);
    1e4a:	c1 9a       	sbi	0x18, 1	; 24
    1e4c:	25 c0       	rjmp	.+74     	; 0x1e98 <u8x8_gpio_and_delay+0xe8>
			}else{
			CLR(LCD_D7);
    1e4e:	c1 98       	cbi	0x18, 1	; 24
    1e50:	23 c0       	rjmp	.+70     	; 0x1e98 <u8x8_gpio_and_delay+0xe8>
		}
		break;
		
		case U8X8_MSG_GPIO_E:				// E/WR pin: Output level in arg_int
		SET(LCD_CS);
    1e52:	df 9a       	sbi	0x1b, 7	; 27
		if(arg_int){
    1e54:	44 23       	and	r20, r20
    1e56:	11 f0       	breq	.+4      	; 0x1e5c <u8x8_gpio_and_delay+0xac>
			SET(LCD_E);
    1e58:	d9 9a       	sbi	0x1b, 1	; 27
    1e5a:	1e c0       	rjmp	.+60     	; 0x1e98 <u8x8_gpio_and_delay+0xe8>
			}else{
			CLR(LCD_E);
    1e5c:	d9 98       	cbi	0x1b, 1	; 27
    1e5e:	1c c0       	rjmp	.+56     	; 0x1e98 <u8x8_gpio_and_delay+0xe8>
			//CLR(LCD_CS);
			//set_cs = 0;
			(!set_cs1)?(SET(LCD_CS)):(CLR(LCD_CS));
		}
		*/
		CLR(LCD_CS);
    1e60:	df 98       	cbi	0x1b, 7	; 27
		if(arg_int){
    1e62:	44 23       	and	r20, r20
    1e64:	19 f0       	breq	.+6      	; 0x1e6c <u8x8_gpio_and_delay+0xbc>
			SET(LCD_E);
    1e66:	d9 9a       	sbi	0x1b, 1	; 27
			}else{
			CLR(LCD_E);
		}
		if(arg_int){
			SET(LCD_E);
    1e68:	d9 9a       	sbi	0x1b, 1	; 27
    1e6a:	16 c0       	rjmp	.+44     	; 0x1e98 <u8x8_gpio_and_delay+0xe8>
		*/
		CLR(LCD_CS);
		if(arg_int){
			SET(LCD_E);
			}else{
			CLR(LCD_E);
    1e6c:	d9 98       	cbi	0x1b, 1	; 27
		}
		if(arg_int){
			SET(LCD_E);
			}else{
			CLR(LCD_E);
    1e6e:	d9 98       	cbi	0x1b, 1	; 27
    1e70:	13 c0       	rjmp	.+38     	; 0x1e98 <u8x8_gpio_and_delay+0xe8>
		}
		break;
		
		case U8X8_MSG_GPIO_DC:				// DC (data/cmd, A0, register select) pin: Output level in arg_int
		if(arg_int){
    1e72:	44 23       	and	r20, r20
    1e74:	11 f0       	breq	.+4      	; 0x1e7a <u8x8_gpio_and_delay+0xca>
			SET(LCD_A0);
    1e76:	c0 9a       	sbi	0x18, 0	; 24
    1e78:	0f c0       	rjmp	.+30     	; 0x1e98 <u8x8_gpio_and_delay+0xe8>
			}else{
			CLR(LCD_A0);
    1e7a:	c0 98       	cbi	0x18, 0	; 24
    1e7c:	0d c0       	rjmp	.+26     	; 0x1e98 <u8x8_gpio_and_delay+0xe8>
		}
		break;
		case U8X8_MSG_GPIO_RESET:			// Reset pin: Output level in arg_int
		if(arg_int){
    1e7e:	44 23       	and	r20, r20
    1e80:	11 f0       	breq	.+4      	; 0x1e86 <u8x8_gpio_and_delay+0xd6>
			SET(LCD_RESET);
    1e82:	de 9a       	sbi	0x1b, 6	; 27
    1e84:	09 c0       	rjmp	.+18     	; 0x1e98 <u8x8_gpio_and_delay+0xe8>
			}else{
			CLR(LCD_RESET);
    1e86:	de 98       	cbi	0x1b, 6	; 27
    1e88:	07 c0       	rjmp	.+14     	; 0x1e98 <u8x8_gpio_and_delay+0xe8>
    1e8a:	9d 01       	movw	r18, r26
    1e8c:	ec 01       	movw	r28, r24
			//set_cs2 = 0;
		}
		break;
		*/
		default:
		if (u8x8_avr_delay(u8x8, msg, arg_int, arg_ptr))	// check for any delay msgs
    1e8e:	47 df       	rcall	.-370    	; 0x1d1e <u8x8_avr_delay>
    1e90:	81 11       	cpse	r24, r1
    1e92:	02 c0       	rjmp	.+4      	; 0x1e98 <u8x8_gpio_and_delay+0xe8>
		return 1;
		u8x8_SetGPIOResult(u8x8, 1);			// default return value
    1e94:	81 e0       	ldi	r24, 0x01	; 1
    1e96:	8a 8f       	std	Y+26, r24	; 0x1a
		break;
	}
	return 1;
}
    1e98:	81 e0       	ldi	r24, 0x01	; 1
    1e9a:	df 91       	pop	r29
    1e9c:	cf 91       	pop	r28
    1e9e:	1f 91       	pop	r17
    1ea0:	0f 91       	pop	r16
    1ea2:	08 95       	ret

00001ea4 <init_display>:

void init_display(void){
	u8g2_Setup_mt12232_122x32_f(&u8g2, U8G2_R0, u8x8_byte_sed1520, u8x8_gpio_and_delay);
    1ea4:	28 ed       	ldi	r18, 0xD8	; 216
    1ea6:	3e e0       	ldi	r19, 0x0E	; 14
    1ea8:	45 e1       	ldi	r20, 0x15	; 21
    1eaa:	57 e1       	ldi	r21, 0x17	; 23
    1eac:	6e e0       	ldi	r22, 0x0E	; 14
    1eae:	71 e0       	ldi	r23, 0x01	; 1
    1eb0:	85 e4       	ldi	r24, 0x45	; 69
    1eb2:	93 e0       	ldi	r25, 0x03	; 3
    1eb4:	98 d1       	rcall	.+816    	; 0x21e6 <u8g2_Setup_mt12232_122x32_f>
	u8g2_InitDisplay(&u8g2);
    1eb6:	85 e4       	ldi	r24, 0x45	; 69
    1eb8:	93 e0       	ldi	r25, 0x03	; 3
    1eba:	0e 94 a2 18 	call	0x3144	; 0x3144 <u8x8_InitDisplay>
	//u8g2.u8x8.cad_cb(&u8g2, U8X8_MSG_CAD_START_TRANSFER, 0, NULL);
	//u8x8_cad_SendCmd(&u8g2, 0xA1);
	//u8g2.u8x8.cad_cb(&u8g2, U8X8_MSG_CAD_END_TRANSFER, 0, NULL);
	//u8g2.u8x8.x_offset = 40;
	//u8g2.clip_x0=10;
	u8g2_SetPowerSave(&u8g2, 0);
    1ebe:	60 e0       	ldi	r22, 0x00	; 0
    1ec0:	85 e4       	ldi	r24, 0x45	; 69
    1ec2:	93 e0       	ldi	r25, 0x03	; 3
    1ec4:	0c 94 ad 18 	jmp	0x315a	; 0x315a <u8x8_SetPowerSave>
    1ec8:	08 95       	ret

00001eca <show_logo>:
};

void show_logo (void){
	//u8g2_SetFont(&u8g2, u8g2_font_robot_de_niro_tf);
	//u8g2_font_5x8_t_cyrillic
	u8g2_SetFont(&u8g2, /*u8g2_font_cu12_t_cyrillic*/ u8g2_font_10x20_t_cyrillic );
    1eca:	68 eb       	ldi	r22, 0xB8	; 184
    1ecc:	70 e0       	ldi	r23, 0x00	; 0
    1ece:	85 e4       	ldi	r24, 0x45	; 69
    1ed0:	93 e0       	ldi	r25, 0x03	; 3
    1ed2:	52 d5       	rcall	.+2724   	; 0x2978 <u8g2_SetFont>
	//u8g2_DrawXBMP(&u8g2,0,0,64,32,logo);
	u8g2_ClearBuffer(&u8g2);
    1ed4:	85 e4       	ldi	r24, 0x45	; 69
    1ed6:	93 e0       	ldi	r25, 0x03	; 3
    1ed8:	61 d1       	rcall	.+706    	; 0x219c <u8g2_ClearBuffer>
	
	u8g2_DrawUTF8(&u8g2, 6, 31, "!");
    1eda:	20 e0       	ldi	r18, 0x00	; 0
    1edc:	31 e0       	ldi	r19, 0x01	; 1
    1ede:	4f e1       	ldi	r20, 0x1F	; 31
    1ee0:	66 e0       	ldi	r22, 0x06	; 6
    1ee2:	85 e4       	ldi	r24, 0x45	; 69
    1ee4:	93 e0       	ldi	r25, 0x03	; 3
    1ee6:	f6 d4       	rcall	.+2540   	; 0x28d4 <u8g2_DrawUTF8>
	//u8g2_DrawXBMP(&u8g2,6,3,64,9,logo);
	//u8x8_DrawUTF8(&u8g2, 1, 30,"Fuck U!");

	u8g2_SendBuffer(&u8g2);
    1ee8:	85 e4       	ldi	r24, 0x45	; 69
    1eea:	93 e0       	ldi	r25, 0x03	; 3
    1eec:	6d c1       	rjmp	.+730    	; 0x21c8 <u8g2_SendBuffer>
    1eee:	08 95       	ret

00001ef0 <print_key>:
    1ef0:	cf 93       	push	r28
}

void print_key(char key){
    1ef2:	df 93       	push	r29
    1ef4:	1f 92       	push	r1
    1ef6:	cd b7       	in	r28, 0x3d	; 61
    1ef8:	de b7       	in	r29, 0x3e	; 62
    1efa:	89 83       	std	Y+1, r24	; 0x01
	u8g2_ClearBuffer(&u8g2);
    1efc:	85 e4       	ldi	r24, 0x45	; 69
    1efe:	93 e0       	ldi	r25, 0x03	; 3
    1f00:	4d d1       	rcall	.+666    	; 0x219c <u8g2_ClearBuffer>
	u8g2_DrawUTF8(&u8g2,6,21, &key);
    1f02:	9e 01       	movw	r18, r28
    1f04:	2f 5f       	subi	r18, 0xFF	; 255
    1f06:	3f 4f       	sbci	r19, 0xFF	; 255
    1f08:	45 e1       	ldi	r20, 0x15	; 21
    1f0a:	66 e0       	ldi	r22, 0x06	; 6
    1f0c:	85 e4       	ldi	r24, 0x45	; 69
    1f0e:	93 e0       	ldi	r25, 0x03	; 3
    1f10:	e1 d4       	rcall	.+2498   	; 0x28d4 <u8g2_DrawUTF8>
	u8g2_SendBuffer(&u8g2);
    1f12:	85 e4       	ldi	r24, 0x45	; 69
    1f14:	93 e0       	ldi	r25, 0x03	; 3
    1f16:	58 d1       	rcall	.+688    	; 0x21c8 <u8g2_SendBuffer>
    1f18:	0f 90       	pop	r0
    1f1a:	df 91       	pop	r29
    1f1c:	cf 91       	pop	r28
    1f1e:	08 95       	ret

00001f20 <init>:



void init(void){
	//   - ,  0
	PIN_OUT(keyRow1);
    1f20:	8f 9a       	sbi	0x11, 7	; 17
	PIN_OUT(keyRow2);
    1f22:	8e 9a       	sbi	0x11, 6	; 17
	PIN_OUT(keyRow3);
    1f24:	8d 9a       	sbi	0x11, 5	; 17
	SET(keyRow1);
    1f26:	97 9a       	sbi	0x12, 7	; 18
	SET(keyRow2);
    1f28:	96 9a       	sbi	0x12, 6	; 18
	SET(keyRow3);
    1f2a:	95 9a       	sbi	0x12, 5	; 18
	//  -   , 1 -  
	PIN_IN(keyCol1);
    1f2c:	a0 98       	cbi	0x14, 0	; 20
	PIN_IN(keyCol2);
    1f2e:	a1 98       	cbi	0x14, 1	; 20
	PIN_IN(keyCol3);
    1f30:	a2 98       	cbi	0x14, 2	; 20
	PIN_IN(keyCol4);
    1f32:	a3 98       	cbi	0x14, 3	; 20
	SET(keyCol1);
    1f34:	a8 9a       	sbi	0x15, 0	; 21
	SET(keyCol2);
    1f36:	a9 9a       	sbi	0x15, 1	; 21
	SET(keyCol3);
    1f38:	aa 9a       	sbi	0x15, 2	; 21
	SET(keyCol4);
    1f3a:	ab 9a       	sbi	0x15, 3	; 21

	//
	PIN_OUT(LED1);
    1f3c:	31 9a       	sbi	0x06, 1	; 6
	PIN_OUT(LED2);
    1f3e:	30 9a       	sbi	0x06, 0	; 6
	PIN_OUT(LED3);
    1f40:	8a 9a       	sbi	0x11, 2	; 17
	PIN_OUT(LED4);
    1f42:	8b 9a       	sbi	0x11, 3	; 17

	PIN_OUT(LCD_LED);
    1f44:	8c 9a       	sbi	0x11, 4	; 17
	SET(LCD_LED);
    1f46:	94 9a       	sbi	0x12, 4	; 18

	init_display();
    1f48:	ad df       	rcall	.-166    	; 0x1ea4 <init_display>
	show_logo();
    1f4a:	bf cf       	rjmp	.-130    	; 0x1eca <show_logo>
    1f4c:	08 95       	ret

00001f4e <key_scan>:
    1f4e:	97 9a       	sbi	0x12, 7	; 18
	unsigned char key_bitsR1,key_bitsR2,key_bitsR3;
	unsigned short key_bits;
	//memset(key_buf,0,key_buf_len);
	/// row1
	SET(keyRow1);
	SET(keyRow2);
    1f50:	96 9a       	sbi	0x12, 6	; 18
	CLR(keyRow3);
    1f52:	95 98       	cbi	0x12, 5	; 18
    1f54:	af e1       	ldi	r26, 0x1F	; 31
    1f56:	be e4       	ldi	r27, 0x4E	; 78
    1f58:	11 97       	sbiw	r26, 0x01	; 1
    1f5a:	f1 f7       	brne	.-4      	; 0x1f58 <key_scan+0xa>
    1f5c:	00 c0       	rjmp	.+0      	; 0x1f5e <key_scan+0x10>
    1f5e:	00 00       	nop
	_delay_ms(10);
	key_bits |= !GET(keyCol4);
    1f60:	21 e0       	ldi	r18, 0x01	; 1
    1f62:	30 e0       	ldi	r19, 0x00	; 0
    1f64:	9b 9b       	sbis	0x13, 3	; 19
    1f66:	02 c0       	rjmp	.+4      	; 0x1f6c <key_scan+0x1e>
    1f68:	20 e0       	ldi	r18, 0x00	; 0
    1f6a:	30 e0       	ldi	r19, 0x00	; 0
	key_bits<<=1;
    1f6c:	22 0f       	add	r18, r18
    1f6e:	33 1f       	adc	r19, r19
	key_bits |= !GET(keyCol3);
    1f70:	61 e0       	ldi	r22, 0x01	; 1
    1f72:	70 e0       	ldi	r23, 0x00	; 0
    1f74:	9a 9b       	sbis	0x13, 2	; 19
    1f76:	02 c0       	rjmp	.+4      	; 0x1f7c <key_scan+0x2e>
    1f78:	60 e0       	ldi	r22, 0x00	; 0
    1f7a:	70 e0       	ldi	r23, 0x00	; 0
    1f7c:	26 2b       	or	r18, r22
    1f7e:	37 2b       	or	r19, r23
	key_bits<<=1;
    1f80:	22 0f       	add	r18, r18
    1f82:	33 1f       	adc	r19, r19
	key_bits |= !GET(keyCol2);
    1f84:	61 e0       	ldi	r22, 0x01	; 1
    1f86:	70 e0       	ldi	r23, 0x00	; 0
    1f88:	99 9b       	sbis	0x13, 1	; 19
    1f8a:	02 c0       	rjmp	.+4      	; 0x1f90 <key_scan+0x42>
    1f8c:	60 e0       	ldi	r22, 0x00	; 0
    1f8e:	70 e0       	ldi	r23, 0x00	; 0
    1f90:	62 2b       	or	r22, r18
    1f92:	73 2b       	or	r23, r19
	key_bits<<=1;
    1f94:	66 0f       	add	r22, r22
    1f96:	77 1f       	adc	r23, r23
	key_bits |= !GET(keyCol1);
    1f98:	23 b3       	in	r18, 0x13	; 19
    1f9a:	31 e0       	ldi	r19, 0x01	; 1
    1f9c:	32 27       	eor	r19, r18
    1f9e:	e3 2f       	mov	r30, r19
    1fa0:	e1 70       	andi	r30, 0x01	; 1
    1fa2:	f0 e0       	ldi	r31, 0x00	; 0
    1fa4:	6e 2b       	or	r22, r30
    1fa6:	7f 2b       	or	r23, r31
	key_bits<<=1;
    1fa8:	66 0f       	add	r22, r22
    1faa:	77 1f       	adc	r23, r23
	/// row2
	SET(keyRow1);
    1fac:	97 9a       	sbi	0x12, 7	; 18
	CLR(keyRow2);
    1fae:	96 98       	cbi	0x12, 6	; 18
	SET(keyRow3);
    1fb0:	95 9a       	sbi	0x12, 5	; 18
    1fb2:	ef e1       	ldi	r30, 0x1F	; 31
    1fb4:	fe e4       	ldi	r31, 0x4E	; 78
    1fb6:	31 97       	sbiw	r30, 0x01	; 1
    1fb8:	f1 f7       	brne	.-4      	; 0x1fb6 <key_scan+0x68>
    1fba:	00 c0       	rjmp	.+0      	; 0x1fbc <key_scan+0x6e>
    1fbc:	00 00       	nop
	_delay_ms(10);
	key_bits |= !GET(keyCol4);
    1fbe:	21 e0       	ldi	r18, 0x01	; 1
    1fc0:	30 e0       	ldi	r19, 0x00	; 0
    1fc2:	9b 9b       	sbis	0x13, 3	; 19
    1fc4:	02 c0       	rjmp	.+4      	; 0x1fca <key_scan+0x7c>
    1fc6:	20 e0       	ldi	r18, 0x00	; 0
    1fc8:	30 e0       	ldi	r19, 0x00	; 0
    1fca:	62 2b       	or	r22, r18
    1fcc:	73 2b       	or	r23, r19
	key_bits<<=1;
    1fce:	66 0f       	add	r22, r22
    1fd0:	77 1f       	adc	r23, r23
	key_bits |= !GET(keyCol3);
    1fd2:	21 e0       	ldi	r18, 0x01	; 1
    1fd4:	30 e0       	ldi	r19, 0x00	; 0
    1fd6:	9a 9b       	sbis	0x13, 2	; 19
    1fd8:	02 c0       	rjmp	.+4      	; 0x1fde <key_scan+0x90>
    1fda:	20 e0       	ldi	r18, 0x00	; 0
    1fdc:	30 e0       	ldi	r19, 0x00	; 0
    1fde:	62 2b       	or	r22, r18
    1fe0:	73 2b       	or	r23, r19
	key_bits<<=1;
    1fe2:	66 0f       	add	r22, r22
    1fe4:	77 1f       	adc	r23, r23
	key_bits |= !GET(keyCol2);
    1fe6:	21 e0       	ldi	r18, 0x01	; 1
    1fe8:	30 e0       	ldi	r19, 0x00	; 0
    1fea:	99 9b       	sbis	0x13, 1	; 19
    1fec:	02 c0       	rjmp	.+4      	; 0x1ff2 <key_scan+0xa4>
    1fee:	20 e0       	ldi	r18, 0x00	; 0
    1ff0:	30 e0       	ldi	r19, 0x00	; 0
    1ff2:	26 2b       	or	r18, r22
    1ff4:	37 2b       	or	r19, r23
	key_bits<<=1;
    1ff6:	22 0f       	add	r18, r18
    1ff8:	33 1f       	adc	r19, r19
	key_bits |= !GET(keyCol1);
    1ffa:	73 b3       	in	r23, 0x13	; 19
    1ffc:	61 e0       	ldi	r22, 0x01	; 1
    1ffe:	67 27       	eor	r22, r23
    2000:	86 2f       	mov	r24, r22
    2002:	81 70       	andi	r24, 0x01	; 1
    2004:	90 e0       	ldi	r25, 0x00	; 0
    2006:	28 2b       	or	r18, r24
    2008:	39 2b       	or	r19, r25
	key_bits<<=1;
    200a:	22 0f       	add	r18, r18
    200c:	33 1f       	adc	r19, r19
	/// row3
	CLR(keyRow1);
    200e:	97 98       	cbi	0x12, 7	; 18
	SET(keyRow2);
    2010:	96 9a       	sbi	0x12, 6	; 18
	SET(keyRow3);
    2012:	95 9a       	sbi	0x12, 5	; 18
    2014:	8f e1       	ldi	r24, 0x1F	; 31
    2016:	9e e4       	ldi	r25, 0x4E	; 78
    2018:	01 97       	sbiw	r24, 0x01	; 1
    201a:	f1 f7       	brne	.-4      	; 0x2018 <key_scan+0xca>
    201c:	00 c0       	rjmp	.+0      	; 0x201e <key_scan+0xd0>
    201e:	00 00       	nop
	_delay_ms(10);
	key_bits |= !GET(keyCol4);
    2020:	81 e0       	ldi	r24, 0x01	; 1
    2022:	90 e0       	ldi	r25, 0x00	; 0
    2024:	9b 9b       	sbis	0x13, 3	; 19
    2026:	02 c0       	rjmp	.+4      	; 0x202c <key_scan+0xde>
    2028:	80 e0       	ldi	r24, 0x00	; 0
    202a:	90 e0       	ldi	r25, 0x00	; 0
    202c:	28 2b       	or	r18, r24
    202e:	39 2b       	or	r19, r25
	key_bits<<=1;
    2030:	22 0f       	add	r18, r18
    2032:	33 1f       	adc	r19, r19
	key_bits |= !GET(keyCol3);
    2034:	81 e0       	ldi	r24, 0x01	; 1
    2036:	90 e0       	ldi	r25, 0x00	; 0
    2038:	9a 9b       	sbis	0x13, 2	; 19
    203a:	02 c0       	rjmp	.+4      	; 0x2040 <key_scan+0xf2>
    203c:	80 e0       	ldi	r24, 0x00	; 0
    203e:	90 e0       	ldi	r25, 0x00	; 0
    2040:	28 2b       	or	r18, r24
    2042:	39 2b       	or	r19, r25
	key_bits<<=1;
    2044:	22 0f       	add	r18, r18
    2046:	33 1f       	adc	r19, r19
	key_bits |= !GET(keyCol2);
    2048:	81 e0       	ldi	r24, 0x01	; 1
    204a:	90 e0       	ldi	r25, 0x00	; 0
    204c:	99 9b       	sbis	0x13, 1	; 19
    204e:	02 c0       	rjmp	.+4      	; 0x2054 <key_scan+0x106>
    2050:	80 e0       	ldi	r24, 0x00	; 0
    2052:	90 e0       	ldi	r25, 0x00	; 0
    2054:	82 2b       	or	r24, r18
    2056:	93 2b       	or	r25, r19
	key_bits<<=1;
    2058:	88 0f       	add	r24, r24
    205a:	99 1f       	adc	r25, r25
	key_bits |= !GET(keyCol1);
    205c:	33 b3       	in	r19, 0x13	; 19
	//key_bits<<=1;
	
	//     
	switch(key_bits){
    205e:	21 e0       	ldi	r18, 0x01	; 1
    2060:	23 27       	eor	r18, r19
    2062:	42 2f       	mov	r20, r18
    2064:	41 70       	andi	r20, 0x01	; 1
    2066:	50 e0       	ldi	r21, 0x00	; 0
    2068:	84 2b       	or	r24, r20
    206a:	95 2b       	or	r25, r21
    206c:	80 32       	cpi	r24, 0x20	; 32
    206e:	91 05       	cpc	r25, r1
    2070:	89 f1       	breq	.+98     	; 0x20d4 <key_scan+0x186>
    2072:	80 f4       	brcc	.+32     	; 0x2094 <key_scan+0x146>
    2074:	84 30       	cpi	r24, 0x04	; 4
    2076:	91 05       	cpc	r25, r1
    2078:	39 f1       	breq	.+78     	; 0x20c8 <key_scan+0x17a>
    207a:	30 f4       	brcc	.+12     	; 0x2088 <key_scan+0x13a>
    207c:	81 30       	cpi	r24, 0x01	; 1
    207e:	91 05       	cpc	r25, r1
    2080:	c9 f1       	breq	.+114    	; 0x20f4 <key_scan+0x1a6>
    2082:	02 97       	sbiw	r24, 0x02	; 2
    2084:	f9 f0       	breq	.+62     	; 0x20c4 <key_scan+0x176>
    2086:	34 c0       	rjmp	.+104    	; 0x20f0 <key_scan+0x1a2>
    2088:	88 30       	cpi	r24, 0x08	; 8
    208a:	91 05       	cpc	r25, r1
    208c:	f9 f0       	breq	.+62     	; 0x20cc <key_scan+0x17e>
    208e:	40 97       	sbiw	r24, 0x10	; 16
    2090:	f9 f0       	breq	.+62     	; 0x20d0 <key_scan+0x182>
    2092:	2e c0       	rjmp	.+92     	; 0x20f0 <key_scan+0x1a2>
    2094:	81 15       	cp	r24, r1
    2096:	a1 e0       	ldi	r26, 0x01	; 1
    2098:	9a 07       	cpc	r25, r26
    209a:	11 f1       	breq	.+68     	; 0x20e0 <key_scan+0x192>
    209c:	38 f4       	brcc	.+14     	; 0x20ac <key_scan+0x15e>
    209e:	80 34       	cpi	r24, 0x40	; 64
    20a0:	91 05       	cpc	r25, r1
    20a2:	d1 f0       	breq	.+52     	; 0x20d8 <key_scan+0x18a>
    20a4:	80 38       	cpi	r24, 0x80	; 128
    20a6:	91 05       	cpc	r25, r1
    20a8:	c9 f0       	breq	.+50     	; 0x20dc <key_scan+0x18e>
    20aa:	22 c0       	rjmp	.+68     	; 0x20f0 <key_scan+0x1a2>
    20ac:	81 15       	cp	r24, r1
    20ae:	e4 e0       	ldi	r30, 0x04	; 4
    20b0:	9e 07       	cpc	r25, r30
    20b2:	d1 f0       	breq	.+52     	; 0x20e8 <key_scan+0x19a>
    20b4:	81 15       	cp	r24, r1
    20b6:	f8 e0       	ldi	r31, 0x08	; 8
    20b8:	9f 07       	cpc	r25, r31
    20ba:	c1 f0       	breq	.+48     	; 0x20ec <key_scan+0x19e>
    20bc:	81 15       	cp	r24, r1
    20be:	92 40       	sbci	r25, 0x02	; 2
    20c0:	b9 f4       	brne	.+46     	; 0x20f0 <key_scan+0x1a2>
    20c2:	10 c0       	rjmp	.+32     	; 0x20e4 <key_scan+0x196>
		case 0x01:
			return '1';
		case 0x02:
			return '2';
    20c4:	82 e3       	ldi	r24, 0x32	; 50
    20c6:	08 95       	ret
		case 0x04:
			return '3';
    20c8:	83 e3       	ldi	r24, 0x33	; 51
    20ca:	08 95       	ret
		case 0x08:
			return 'M';
    20cc:	8d e4       	ldi	r24, 0x4D	; 77
    20ce:	08 95       	ret
		case 0x10:
			return '4';
    20d0:	84 e3       	ldi	r24, 0x34	; 52
    20d2:	08 95       	ret
		case 0x20:
			return '5';
    20d4:	85 e3       	ldi	r24, 0x35	; 53
    20d6:	08 95       	ret
		case 0x40:
			return '6';
    20d8:	86 e3       	ldi	r24, 0x36	; 54
    20da:	08 95       	ret
		case 0x80:
			return 'C';
    20dc:	83 e4       	ldi	r24, 0x43	; 67
    20de:	08 95       	ret
		case 0x100:
			return '7';
    20e0:	87 e3       	ldi	r24, 0x37	; 55
    20e2:	08 95       	ret
		case 0x200:
			return '8';
    20e4:	88 e3       	ldi	r24, 0x38	; 56
    20e6:	08 95       	ret
		case 0x400:
			return '9';
    20e8:	89 e3       	ldi	r24, 0x39	; 57
    20ea:	08 95       	ret
		case 0x800:
			return '0';
    20ec:	80 e3       	ldi	r24, 0x30	; 48
    20ee:	08 95       	ret
		default:
			return 0;
    20f0:	80 e0       	ldi	r24, 0x00	; 0
    20f2:	08 95       	ret
	//key_bits<<=1;
	
	//     
	switch(key_bits){
		case 0x01:
			return '1';
    20f4:	81 e3       	ldi	r24, 0x31	; 49
			return '0';
		default:
			return 0;

	}
}
    20f6:	08 95       	ret

000020f8 <main>:

int main (void){
	char key=0;
	init();
    20f8:	13 df       	rcall	.-474    	; 0x1f20 <init>
	SET(LED1);
	while(1){
		key = key_scan();
    20fa:	39 9a       	sbi	0x07, 1	; 7
		if (key){
    20fc:	28 df       	rcall	.-432    	; 0x1f4e <key_scan>
			///  
			print_key(key);
    20fe:	81 11       	cpse	r24, r1
    2100:	f7 de       	rcall	.-530    	; 0x1ef0 <print_key>
		CLR(LED1);
		_delay_ms(200);
		CLR(LED2);
		CLR(LED1);
		*/
		TGL(LED1);
    2102:	29 9a       	sbi	0x05, 1	; 5
	}
    2104:	fb cf       	rjmp	.-10     	; 0x20fc <main+0x4>

00002106 <u8g2_send_buffer>:
  For most displays, this will make the content visible to the user.
  Some displays (like the SSD1606) require a u8x8_RefreshDisplay()
*/
static void u8g2_send_buffer(u8g2_t *u8g2) U8X8_NOINLINE;
static void u8g2_send_buffer(u8g2_t *u8g2)
{
    2106:	af 92       	push	r10
    2108:	bf 92       	push	r11
    210a:	cf 92       	push	r12
    210c:	df 92       	push	r13
    210e:	ef 92       	push	r14
    2110:	ff 92       	push	r15
    2112:	0f 93       	push	r16
    2114:	1f 93       	push	r17
    2116:	cf 93       	push	r28
    2118:	df 93       	push	r29
    211a:	7c 01       	movw	r14, r24
  uint8_t src_max;
  uint8_t dest_row;
  uint8_t dest_max;

  src_row = 0;
  src_max = u8g2->tile_buf_height;
    211c:	dc 01       	movw	r26, r24
    211e:	95 96       	adiw	r26, 0x25	; 37
    2120:	bc 90       	ld	r11, X
    2122:	95 97       	sbiw	r26, 0x25	; 37
  dest_row = u8g2->tile_curr_row;
    2124:	96 96       	adiw	r26, 0x26	; 38
    2126:	dc 91       	ld	r29, X
    2128:	96 97       	sbiw	r26, 0x26	; 38
  dest_max = u8g2_GetU8x8(u8g2)->display_info->tile_height;
    212a:	ed 91       	ld	r30, X+
    212c:	fc 91       	ld	r31, X
    212e:	a1 88       	ldd	r10, Z+17	; 0x11
  uint8_t dest_row;
  uint8_t dest_max;

  src_row = 0;
  src_max = u8g2->tile_buf_height;
  dest_row = u8g2->tile_curr_row;
    2130:	cd 2f       	mov	r28, r29
  dest_max = u8g2_GetU8x8(u8g2)->display_info->tile_height;
    2132:	c1 2c       	mov	r12, r1
    2134:	d1 2c       	mov	r13, r1
{
  uint8_t *ptr;
  uint16_t offset;
  uint8_t w;
  
  w = u8g2_GetU8x8(u8g2)->display_info->tile_width;
    2136:	d7 01       	movw	r26, r14
    2138:	ed 91       	ld	r30, X+
    213a:	fc 91       	ld	r31, X
    213c:	11 97       	sbiw	r26, 0x01	; 1
    213e:	20 89       	ldd	r18, Z+16	; 0x10
  offset = src_tile_row;
  ptr = u8g2->tile_buf_ptr;
    2140:	93 96       	adiw	r26, 0x23	; 35
    2142:	0d 91       	ld	r16, X+
    2144:	1c 91       	ld	r17, X
    2146:	94 97       	sbiw	r26, 0x24	; 36
  offset *= w;
  offset *= 8;
  ptr += offset;
  u8x8_DrawTile(u8g2_GetU8x8(u8g2), 0, dest_tile_row, w, ptr);
    2148:	42 2f       	mov	r20, r18
    214a:	50 e0       	ldi	r21, 0x00	; 0
    214c:	44 0f       	add	r20, r20
    214e:	55 1f       	adc	r21, r21
    2150:	44 0f       	add	r20, r20
    2152:	55 1f       	adc	r21, r21
    2154:	44 0f       	add	r20, r20
    2156:	55 1f       	adc	r21, r21
    2158:	4c 9d       	mul	r20, r12
    215a:	c0 01       	movw	r24, r0
    215c:	4d 9d       	mul	r20, r13
    215e:	90 0d       	add	r25, r0
    2160:	5c 9d       	mul	r21, r12
    2162:	90 0d       	add	r25, r0
    2164:	11 24       	eor	r1, r1
    2166:	08 0f       	add	r16, r24
    2168:	19 1f       	adc	r17, r25
    216a:	4c 2f       	mov	r20, r28
    216c:	60 e0       	ldi	r22, 0x00	; 0
    216e:	c7 01       	movw	r24, r14
    2170:	bb d7       	rcall	.+3958   	; 0x30e8 <u8x8_DrawTile>
  
  do
  {
    u8g2_send_tile_row(u8g2, src_row, dest_row);
    src_row++;
    dest_row++;
    2172:	cf 5f       	subi	r28, 0xFF	; 255
  } while( src_row < src_max && dest_row < dest_max );
    2174:	8c 2f       	mov	r24, r28
    2176:	8d 1b       	sub	r24, r29
    2178:	8b 15       	cp	r24, r11
    217a:	28 f4       	brcc	.+10     	; 0x2186 <u8g2_send_buffer+0x80>
    217c:	bf ef       	ldi	r27, 0xFF	; 255
    217e:	cb 1a       	sub	r12, r27
    2180:	db 0a       	sbc	r13, r27
    2182:	ca 15       	cp	r28, r10
    2184:	c0 f2       	brcs	.-80     	; 0x2136 <u8g2_send_buffer+0x30>
}
    2186:	df 91       	pop	r29
    2188:	cf 91       	pop	r28
    218a:	1f 91       	pop	r17
    218c:	0f 91       	pop	r16
    218e:	ff 90       	pop	r15
    2190:	ef 90       	pop	r14
    2192:	df 90       	pop	r13
    2194:	cf 90       	pop	r12
    2196:	bf 90       	pop	r11
    2198:	af 90       	pop	r10
    219a:	08 95       	ret

0000219c <u8g2_ClearBuffer>:
#include "u8g2.h"
#include <string.h>

/*============================================*/
void u8g2_ClearBuffer(u8g2_t *u8g2)
{
    219c:	fc 01       	movw	r30, r24
  size_t cnt;
  cnt = u8g2_GetU8x8(u8g2)->display_info->tile_width;
    219e:	a0 81       	ld	r26, Z
    21a0:	b1 81       	ldd	r27, Z+1	; 0x01
    21a2:	50 96       	adiw	r26, 0x10	; 16
    21a4:	9c 91       	ld	r25, X
  cnt *= u8g2->tile_buf_height;
    21a6:	45 a1       	ldd	r20, Z+37	; 0x25
    21a8:	94 9f       	mul	r25, r20
    21aa:	a0 01       	movw	r20, r0
    21ac:	11 24       	eor	r1, r1
  cnt *= 8;
  memset(u8g2->tile_buf_ptr, 0, cnt);
    21ae:	44 0f       	add	r20, r20
    21b0:	55 1f       	adc	r21, r21
    21b2:	44 0f       	add	r20, r20
    21b4:	55 1f       	adc	r21, r21
    21b6:	44 0f       	add	r20, r20
    21b8:	55 1f       	adc	r21, r21
    21ba:	60 e0       	ldi	r22, 0x00	; 0
    21bc:	70 e0       	ldi	r23, 0x00	; 0
    21be:	83 a1       	ldd	r24, Z+35	; 0x23
    21c0:	94 a1       	ldd	r25, Z+36	; 0x24
    21c2:	0c 94 1e 1a 	jmp	0x343c	; 0x343c <memset>
    21c6:	08 95       	ret

000021c8 <u8g2_SendBuffer>:
  } while( src_row < src_max && dest_row < dest_max );
}

/* same as u8g2_send_buffer but also send the DISPLAY_REFRESH message (used by SSD1606) */
void u8g2_SendBuffer(u8g2_t *u8g2)
{
    21c8:	cf 93       	push	r28
    21ca:	df 93       	push	r29
    21cc:	ec 01       	movw	r28, r24
  u8g2_send_buffer(u8g2);
    21ce:	9b df       	rcall	.-202    	; 0x2106 <u8g2_send_buffer>
  u8x8_RefreshDisplay( u8g2_GetU8x8(u8g2) );  
    21d0:	ce 01       	movw	r24, r28
    21d2:	ce d7       	rcall	.+3996   	; 0x3170 <u8x8_RefreshDisplay>
}
    21d4:	df 91       	pop	r29
    21d6:	cf 91       	pop	r28
    21d8:	08 95       	ret

000021da <u8g2_m_16_4_f>:
  return buf;
}
uint8_t *u8g2_m_16_4_f(uint8_t *page_cnt)
{
  static uint8_t buf[512];
  *page_cnt = 4;
    21da:	24 e0       	ldi	r18, 0x04	; 4
    21dc:	fc 01       	movw	r30, r24
    21de:	20 83       	st	Z, r18
  return buf;
}
    21e0:	84 e4       	ldi	r24, 0x44	; 68
    21e2:	91 e0       	ldi	r25, 0x01	; 1
    21e4:	08 95       	ret

000021e6 <u8g2_Setup_mt12232_122x32_f>:
	buf = u8g2_m_16_4_2(&tile_buf_height);
	u8g2_SetupBuffer(u8g2, buf, tile_buf_height, u8g2_ll_hvline_vertical_top_lsb, rotation);
}
/* mt12232 f*/
void u8g2_Setup_mt12232_122x32_f(u8g2_t *u8g2, const u8g2_cb_t *rotation, u8x8_msg_cb byte_cb, u8x8_msg_cb gpio_and_delay_cb)
{
    21e6:	cf 92       	push	r12
    21e8:	df 92       	push	r13
    21ea:	ef 92       	push	r14
    21ec:	ff 92       	push	r15
    21ee:	0f 93       	push	r16
    21f0:	1f 93       	push	r17
    21f2:	cf 93       	push	r28
    21f4:	df 93       	push	r29
    21f6:	1f 92       	push	r1
    21f8:	cd b7       	in	r28, 0x3d	; 61
    21fa:	de b7       	in	r29, 0x3e	; 62
    21fc:	7c 01       	movw	r14, r24
    21fe:	6b 01       	movw	r12, r22
	uint8_t tile_buf_height;
	uint8_t *buf;
	u8g2_SetupDisplay(u8g2, u8x8_d_mt12232_122x32, u8x8_cad_001, byte_cb, gpio_and_delay_cb);
    2200:	89 01       	movw	r16, r18
    2202:	9a 01       	movw	r18, r20
    2204:	4f ef       	ldi	r20, 0xFF	; 255
    2206:	57 e1       	ldi	r21, 0x17	; 23
    2208:	63 ec       	ldi	r22, 0xC3	; 195
    220a:	78 e1       	ldi	r23, 0x18	; 24
    220c:	0e 94 c3 19 	call	0x3386	; 0x3386 <u8x8_Setup>
	buf = u8g2_m_16_4_f(&tile_buf_height);
    2210:	ce 01       	movw	r24, r28
    2212:	01 96       	adiw	r24, 0x01	; 1
    2214:	e2 df       	rcall	.-60     	; 0x21da <u8g2_m_16_4_f>
	u8g2_SetupBuffer(u8g2, buf, tile_buf_height, u8g2_ll_hvline_vertical_top_lsb, rotation);
    2216:	86 01       	movw	r16, r12
    2218:	28 e7       	ldi	r18, 0x78	; 120
    221a:	35 e1       	ldi	r19, 0x15	; 21
    221c:	49 81       	ldd	r20, Y+1	; 0x01
    221e:	bc 01       	movw	r22, r24
    2220:	c7 01       	movw	r24, r14
    2222:	59 d5       	rcall	.+2738   	; 0x2cd6 <u8g2_SetupBuffer>
}
    2224:	0f 90       	pop	r0
    2226:	df 91       	pop	r29
    2228:	cf 91       	pop	r28
    222a:	1f 91       	pop	r17
    222c:	0f 91       	pop	r16
    222e:	ff 90       	pop	r15
    2230:	ef 90       	pop	r14
    2232:	df 90       	pop	r13
    2234:	cf 90       	pop	r12
    2236:	08 95       	ret

00002238 <u8g2_font_get_word>:
  return tmp;
}

void u8g2_SetFontPosCenter(u8g2_t *u8g2)
{
  u8g2->font_calc_vref = u8g2_font_calc_vref_center;
    2238:	fc 01       	movw	r30, r24
    223a:	e6 0f       	add	r30, r22
    223c:	f1 1d       	adc	r31, r1
    223e:	84 91       	lpm	r24, Z
    2240:	90 e0       	ldi	r25, 0x00	; 0
    2242:	98 2f       	mov	r25, r24
    2244:	88 27       	eor	r24, r24
    2246:	31 96       	adiw	r30, 0x01	; 1
    2248:	e4 91       	lpm	r30, Z
    224a:	8e 0f       	add	r24, r30
    224c:	91 1d       	adc	r25, r1
    224e:	08 95       	ret

00002250 <u8g2_add_vector_y>:
    2250:	21 30       	cpi	r18, 0x01	; 1
    2252:	31 f0       	breq	.+12     	; 0x2260 <u8g2_add_vector_y+0x10>
    2254:	18 f0       	brcs	.+6      	; 0x225c <u8g2_add_vector_y+0xc>
    2256:	22 30       	cpi	r18, 0x02	; 2
    2258:	29 f0       	breq	.+10     	; 0x2264 <u8g2_add_vector_y+0x14>
    225a:	06 c0       	rjmp	.+12     	; 0x2268 <u8g2_add_vector_y+0x18>
    225c:	84 0f       	add	r24, r20
    225e:	08 95       	ret
    2260:	86 0f       	add	r24, r22
    2262:	08 95       	ret
    2264:	84 1b       	sub	r24, r20
    2266:	08 95       	ret
    2268:	86 1b       	sub	r24, r22
    226a:	08 95       	ret

0000226c <u8g2_add_vector_x>:
    226c:	21 30       	cpi	r18, 0x01	; 1
    226e:	31 f0       	breq	.+12     	; 0x227c <u8g2_add_vector_x+0x10>
    2270:	18 f0       	brcs	.+6      	; 0x2278 <u8g2_add_vector_x+0xc>
    2272:	22 30       	cpi	r18, 0x02	; 2
    2274:	29 f0       	breq	.+10     	; 0x2280 <u8g2_add_vector_x+0x14>
    2276:	06 c0       	rjmp	.+12     	; 0x2284 <u8g2_add_vector_x+0x18>
    2278:	86 0f       	add	r24, r22
    227a:	08 95       	ret
    227c:	84 1b       	sub	r24, r20
    227e:	08 95       	ret
    2280:	86 1b       	sub	r24, r22
    2282:	08 95       	ret
    2284:	84 0f       	add	r24, r20
    2286:	08 95       	ret

00002288 <u8g2_font_calc_vref_font>:
    2288:	80 e0       	ldi	r24, 0x00	; 0
    228a:	08 95       	ret

0000228c <u8g2_read_font_info>:
    228c:	0f 93       	push	r16
    228e:	1f 93       	push	r17
    2290:	cf 93       	push	r28
    2292:	df 93       	push	r29
    2294:	ec 01       	movw	r28, r24
    2296:	8b 01       	movw	r16, r22
    2298:	fb 01       	movw	r30, r22
    229a:	84 91       	lpm	r24, Z
    229c:	88 83       	st	Y, r24
    229e:	31 96       	adiw	r30, 0x01	; 1
    22a0:	e4 91       	lpm	r30, Z
    22a2:	e9 83       	std	Y+1, r30	; 0x01
    22a4:	fb 01       	movw	r30, r22
    22a6:	32 96       	adiw	r30, 0x02	; 2
    22a8:	e4 91       	lpm	r30, Z
    22aa:	ea 83       	std	Y+2, r30	; 0x02
    22ac:	fb 01       	movw	r30, r22
    22ae:	33 96       	adiw	r30, 0x03	; 3
    22b0:	e4 91       	lpm	r30, Z
    22b2:	eb 83       	std	Y+3, r30	; 0x03
    22b4:	fb 01       	movw	r30, r22
    22b6:	34 96       	adiw	r30, 0x04	; 4
    22b8:	e4 91       	lpm	r30, Z
    22ba:	ec 83       	std	Y+4, r30	; 0x04
    22bc:	fb 01       	movw	r30, r22
    22be:	35 96       	adiw	r30, 0x05	; 5
    22c0:	e4 91       	lpm	r30, Z
    22c2:	ed 83       	std	Y+5, r30	; 0x05
    22c4:	fb 01       	movw	r30, r22
    22c6:	36 96       	adiw	r30, 0x06	; 6
    22c8:	e4 91       	lpm	r30, Z
    22ca:	ee 83       	std	Y+6, r30	; 0x06
    22cc:	fb 01       	movw	r30, r22
    22ce:	37 96       	adiw	r30, 0x07	; 7
    22d0:	e4 91       	lpm	r30, Z
    22d2:	ef 83       	std	Y+7, r30	; 0x07
    22d4:	fb 01       	movw	r30, r22
    22d6:	38 96       	adiw	r30, 0x08	; 8
    22d8:	e4 91       	lpm	r30, Z
    22da:	e8 87       	std	Y+8, r30	; 0x08
    22dc:	fb 01       	movw	r30, r22
    22de:	39 96       	adiw	r30, 0x09	; 9
    22e0:	e4 91       	lpm	r30, Z
    22e2:	e9 87       	std	Y+9, r30	; 0x09
    22e4:	fb 01       	movw	r30, r22
    22e6:	3a 96       	adiw	r30, 0x0a	; 10
    22e8:	e4 91       	lpm	r30, Z
    22ea:	ea 87       	std	Y+10, r30	; 0x0a
    22ec:	fb 01       	movw	r30, r22
    22ee:	3b 96       	adiw	r30, 0x0b	; 11
    22f0:	e4 91       	lpm	r30, Z
    22f2:	eb 87       	std	Y+11, r30	; 0x0b
    22f4:	fb 01       	movw	r30, r22
    22f6:	3c 96       	adiw	r30, 0x0c	; 12
    22f8:	e4 91       	lpm	r30, Z
    22fa:	ec 87       	std	Y+12, r30	; 0x0c
    22fc:	fb 01       	movw	r30, r22
    22fe:	3d 96       	adiw	r30, 0x0d	; 13
    2300:	e4 91       	lpm	r30, Z
    2302:	ed 87       	std	Y+13, r30	; 0x0d
    2304:	fb 01       	movw	r30, r22
    2306:	3e 96       	adiw	r30, 0x0e	; 14
    2308:	e4 91       	lpm	r30, Z
    230a:	ee 87       	std	Y+14, r30	; 0x0e
    230c:	fb 01       	movw	r30, r22
    230e:	3f 96       	adiw	r30, 0x0f	; 15
    2310:	e4 91       	lpm	r30, Z
    2312:	ef 87       	std	Y+15, r30	; 0x0f
    2314:	fb 01       	movw	r30, r22
    2316:	70 96       	adiw	r30, 0x10	; 16
    2318:	e4 91       	lpm	r30, Z
    231a:	e8 8b       	std	Y+16, r30	; 0x10
    231c:	61 e1       	ldi	r22, 0x11	; 17
    231e:	c8 01       	movw	r24, r16
    2320:	8b df       	rcall	.-234    	; 0x2238 <u8g2_font_get_word>
    2322:	9a 8b       	std	Y+18, r25	; 0x12
    2324:	89 8b       	std	Y+17, r24	; 0x11
    2326:	63 e1       	ldi	r22, 0x13	; 19
    2328:	c8 01       	movw	r24, r16
    232a:	86 df       	rcall	.-244    	; 0x2238 <u8g2_font_get_word>
    232c:	9c 8b       	std	Y+20, r25	; 0x14
    232e:	8b 8b       	std	Y+19, r24	; 0x13
    2330:	65 e1       	ldi	r22, 0x15	; 21
    2332:	c8 01       	movw	r24, r16
    2334:	81 df       	rcall	.-254    	; 0x2238 <u8g2_font_get_word>
    2336:	9e 8b       	std	Y+22, r25	; 0x16
    2338:	8d 8b       	std	Y+21, r24	; 0x15
    233a:	df 91       	pop	r29
    233c:	cf 91       	pop	r28
    233e:	1f 91       	pop	r17
    2340:	0f 91       	pop	r16
    2342:	08 95       	ret

00002344 <u8g2_font_decode_get_unsigned_bits>:
    2344:	dc 01       	movw	r26, r24
    2346:	18 96       	adiw	r26, 0x08	; 8
    2348:	9c 91       	ld	r25, X
    234a:	18 97       	sbiw	r26, 0x08	; 8
    234c:	ed 91       	ld	r30, X+
    234e:	fc 91       	ld	r31, X
    2350:	11 97       	sbiw	r26, 0x01	; 1
    2352:	24 91       	lpm	r18, Z
    2354:	30 e0       	ldi	r19, 0x00	; 0
    2356:	09 2e       	mov	r0, r25
    2358:	02 c0       	rjmp	.+4      	; 0x235e <u8g2_font_decode_get_unsigned_bits+0x1a>
    235a:	35 95       	asr	r19
    235c:	27 95       	ror	r18
    235e:	0a 94       	dec	r0
    2360:	e2 f7       	brpl	.-8      	; 0x235a <u8g2_font_decode_get_unsigned_bits+0x16>
    2362:	89 2f       	mov	r24, r25
    2364:	86 0f       	add	r24, r22
    2366:	88 30       	cpi	r24, 0x08	; 8
    2368:	10 f4       	brcc	.+4      	; 0x236e <u8g2_font_decode_get_unsigned_bits+0x2a>
    236a:	e2 2f       	mov	r30, r18
    236c:	0f c0       	rjmp	.+30     	; 0x238c <u8g2_font_decode_get_unsigned_bits+0x48>
    236e:	31 96       	adiw	r30, 0x01	; 1
    2370:	11 96       	adiw	r26, 0x01	; 1
    2372:	fc 93       	st	X, r31
    2374:	ee 93       	st	-X, r30
    2376:	e4 91       	lpm	r30, Z
    2378:	f0 e0       	ldi	r31, 0x00	; 0
    237a:	38 e0       	ldi	r19, 0x08	; 8
    237c:	39 1b       	sub	r19, r25
    237e:	02 c0       	rjmp	.+4      	; 0x2384 <u8g2_font_decode_get_unsigned_bits+0x40>
    2380:	ee 0f       	add	r30, r30
    2382:	ff 1f       	adc	r31, r31
    2384:	3a 95       	dec	r19
    2386:	e2 f7       	brpl	.-8      	; 0x2380 <u8g2_font_decode_get_unsigned_bits+0x3c>
    2388:	e2 2b       	or	r30, r18
    238a:	88 50       	subi	r24, 0x08	; 8
    238c:	18 96       	adiw	r26, 0x08	; 8
    238e:	8c 93       	st	X, r24
    2390:	81 e0       	ldi	r24, 0x01	; 1
    2392:	90 e0       	ldi	r25, 0x00	; 0
    2394:	02 c0       	rjmp	.+4      	; 0x239a <u8g2_font_decode_get_unsigned_bits+0x56>
    2396:	88 0f       	add	r24, r24
    2398:	99 1f       	adc	r25, r25
    239a:	6a 95       	dec	r22
    239c:	e2 f7       	brpl	.-8      	; 0x2396 <u8g2_font_decode_get_unsigned_bits+0x52>
    239e:	81 50       	subi	r24, 0x01	; 1
    23a0:	8e 23       	and	r24, r30
    23a2:	08 95       	ret

000023a4 <u8g2_font_setup_decode>:
    23a4:	0f 93       	push	r16
    23a6:	1f 93       	push	r17
    23a8:	cf 93       	push	r28
    23aa:	df 93       	push	r29
    23ac:	ec 01       	movw	r28, r24
    23ae:	8c 01       	movw	r16, r24
    23b0:	06 5c       	subi	r16, 0xC6	; 198
    23b2:	1f 4f       	sbci	r17, 0xFF	; 255
    23b4:	7b af       	std	Y+59, r23	; 0x3b
    23b6:	6a af       	std	Y+58, r22	; 0x3a
    23b8:	fc 01       	movw	r30, r24
    23ba:	ee 5b       	subi	r30, 0xBE	; 190
    23bc:	ff 4f       	sbci	r31, 0xFF	; 255
    23be:	10 82       	st	Z, r1
    23c0:	39 96       	adiw	r30, 0x09	; 9
    23c2:	60 81       	ld	r22, Z
    23c4:	c8 01       	movw	r24, r16
    23c6:	be df       	rcall	.-132    	; 0x2344 <u8g2_font_decode_get_unsigned_bits>
    23c8:	fe 01       	movw	r30, r28
    23ca:	e0 5c       	subi	r30, 0xC0	; 192
    23cc:	ff 4f       	sbci	r31, 0xFF	; 255
    23ce:	80 83       	st	Z, r24
    23d0:	3c 96       	adiw	r30, 0x0c	; 12
    23d2:	60 81       	ld	r22, Z
    23d4:	c8 01       	movw	r24, r16
    23d6:	b6 df       	rcall	.-148    	; 0x2344 <u8g2_font_decode_get_unsigned_bits>
    23d8:	fe 01       	movw	r30, r28
    23da:	ef 5b       	subi	r30, 0xBF	; 191
    23dc:	ff 4f       	sbci	r31, 0xFF	; 255
    23de:	80 83       	st	Z, r24
    23e0:	b3 96       	adiw	r30, 0x23	; 35
    23e2:	80 81       	ld	r24, Z
    23e4:	b0 97       	sbiw	r30, 0x20	; 32
    23e6:	80 83       	st	Z, r24
    23e8:	cb 5b       	subi	r28, 0xBB	; 187
    23ea:	df 4f       	sbci	r29, 0xFF	; 255
    23ec:	91 e0       	ldi	r25, 0x01	; 1
    23ee:	81 11       	cpse	r24, r1
    23f0:	90 e0       	ldi	r25, 0x00	; 0
    23f2:	98 83       	st	Y, r25
    23f4:	df 91       	pop	r29
    23f6:	cf 91       	pop	r28
    23f8:	1f 91       	pop	r17
    23fa:	0f 91       	pop	r16
    23fc:	08 95       	ret

000023fe <u8g2_font_decode_get_signed_bits>:
    23fe:	cf 93       	push	r28
    2400:	c6 2f       	mov	r28, r22
    2402:	a0 df       	rcall	.-192    	; 0x2344 <u8g2_font_decode_get_unsigned_bits>
    2404:	c1 50       	subi	r28, 0x01	; 1
    2406:	21 e0       	ldi	r18, 0x01	; 1
    2408:	30 e0       	ldi	r19, 0x00	; 0
    240a:	02 c0       	rjmp	.+4      	; 0x2410 <u8g2_font_decode_get_signed_bits+0x12>
    240c:	22 0f       	add	r18, r18
    240e:	33 1f       	adc	r19, r19
    2410:	ca 95       	dec	r28
    2412:	e2 f7       	brpl	.-8      	; 0x240c <u8g2_font_decode_get_signed_bits+0xe>
    2414:	82 1b       	sub	r24, r18
    2416:	cf 91       	pop	r28
    2418:	08 95       	ret

0000241a <u8g2_font_decode_len>:
    241a:	2f 92       	push	r2
    241c:	3f 92       	push	r3
    241e:	4f 92       	push	r4
    2420:	5f 92       	push	r5
    2422:	6f 92       	push	r6
    2424:	7f 92       	push	r7
    2426:	8f 92       	push	r8
    2428:	9f 92       	push	r9
    242a:	af 92       	push	r10
    242c:	bf 92       	push	r11
    242e:	cf 92       	push	r12
    2430:	df 92       	push	r13
    2432:	ef 92       	push	r14
    2434:	ff 92       	push	r15
    2436:	0f 93       	push	r16
    2438:	1f 93       	push	r17
    243a:	cf 93       	push	r28
    243c:	df 93       	push	r29
    243e:	cd b7       	in	r28, 0x3d	; 61
    2440:	de b7       	in	r29, 0x3e	; 62
    2442:	28 97       	sbiw	r28, 0x08	; 8
    2444:	0f b6       	in	r0, 0x3f	; 63
    2446:	f8 94       	cli
    2448:	de bf       	out	0x3e, r29	; 62
    244a:	0f be       	out	0x3f, r0	; 63
    244c:	cd bf       	out	0x3d, r28	; 61
    244e:	7c 01       	movw	r14, r24
    2450:	68 87       	std	Y+8, r22	; 0x08
    2452:	34 2e       	mov	r3, r20
    2454:	fc 01       	movw	r30, r24
    2456:	76 ac       	ldd	r7, Z+62	; 0x3e
    2458:	17 ad       	ldd	r17, Z+63	; 0x3f
    245a:	5c 01       	movw	r10, r24
    245c:	f0 e4       	ldi	r31, 0x40	; 64
    245e:	af 0e       	add	r10, r31
    2460:	b1 1c       	adc	r11, r1
    2462:	6c 01       	movw	r12, r24
    2464:	86 e4       	ldi	r24, 0x46	; 70
    2466:	c8 0e       	add	r12, r24
    2468:	d1 1c       	adc	r13, r1
    246a:	47 01       	movw	r8, r14
    246c:	93 e4       	ldi	r25, 0x43	; 67
    246e:	89 0e       	add	r8, r25
    2470:	91 1c       	adc	r9, r1
    2472:	f7 01       	movw	r30, r14
    2474:	ec 59       	subi	r30, 0x9C	; 156
    2476:	ff 4f       	sbci	r31, 0xFF	; 255
    2478:	fa 83       	std	Y+2, r31	; 0x02
    247a:	e9 83       	std	Y+1, r30	; 0x01
    247c:	c7 01       	movw	r24, r14
    247e:	8b 5b       	subi	r24, 0xBB	; 187
    2480:	9f 4f       	sbci	r25, 0xFF	; 255
    2482:	9e 83       	std	Y+6, r25	; 0x06
    2484:	8d 83       	std	Y+5, r24	; 0x05
    2486:	b0 97       	sbiw	r30, 0x20	; 32
    2488:	fc 83       	std	Y+4, r31	; 0x04
    248a:	eb 83       	std	Y+3, r30	; 0x03
    248c:	f5 01       	movw	r30, r10
    248e:	f0 81       	ld	r31, Z
    2490:	f7 19       	sub	r31, r7
    2492:	ff 83       	std	Y+7, r31	; 0x07
    2494:	58 84       	ldd	r5, Y+8	; 0x08
    2496:	f5 15       	cp	r31, r5
    2498:	08 f4       	brcc	.+2      	; 0x249c <u8g2_font_decode_len+0x82>
    249a:	5f 2e       	mov	r5, r31
    249c:	f7 01       	movw	r30, r14
    249e:	65 ac       	ldd	r6, Z+61	; 0x3d
    24a0:	f6 01       	movw	r30, r12
    24a2:	00 81       	ld	r16, Z
    24a4:	21 2e       	mov	r2, r17
    24a6:	20 2f       	mov	r18, r16
    24a8:	41 2f       	mov	r20, r17
    24aa:	67 2d       	mov	r22, r7
    24ac:	f7 01       	movw	r30, r14
    24ae:	84 ad       	ldd	r24, Z+60	; 0x3c
    24b0:	dd de       	rcall	.-582    	; 0x226c <u8g2_add_vector_x>
    24b2:	48 2e       	mov	r4, r24
    24b4:	20 2f       	mov	r18, r16
    24b6:	41 2f       	mov	r20, r17
    24b8:	67 2d       	mov	r22, r7
    24ba:	86 2d       	mov	r24, r6
    24bc:	c9 de       	rcall	.-622    	; 0x2250 <u8g2_add_vector_y>
    24be:	33 20       	and	r3, r3
    24c0:	61 f0       	breq	.+24     	; 0x24da <u8g2_font_decode_len+0xc0>
    24c2:	eb 81       	ldd	r30, Y+3	; 0x03
    24c4:	fc 81       	ldd	r31, Y+4	; 0x04
    24c6:	90 81       	ld	r25, Z
    24c8:	e9 81       	ldd	r30, Y+1	; 0x01
    24ca:	fa 81       	ldd	r31, Y+2	; 0x02
    24cc:	90 83       	st	Z, r25
    24ce:	25 2d       	mov	r18, r5
    24d0:	48 2f       	mov	r20, r24
    24d2:	64 2d       	mov	r22, r4
    24d4:	c7 01       	movw	r24, r14
    24d6:	70 d2       	rcall	.+1248   	; 0x29b8 <u8g2_DrawHVLine>
    24d8:	0f c0       	rjmp	.+30     	; 0x24f8 <u8g2_font_decode_len+0xde>
    24da:	f4 01       	movw	r30, r8
    24dc:	90 81       	ld	r25, Z
    24de:	91 11       	cpse	r25, r1
    24e0:	0b c0       	rjmp	.+22     	; 0x24f8 <u8g2_font_decode_len+0xde>
    24e2:	ed 81       	ldd	r30, Y+5	; 0x05
    24e4:	fe 81       	ldd	r31, Y+6	; 0x06
    24e6:	90 81       	ld	r25, Z
    24e8:	e9 81       	ldd	r30, Y+1	; 0x01
    24ea:	fa 81       	ldd	r31, Y+2	; 0x02
    24ec:	90 83       	st	Z, r25
    24ee:	25 2d       	mov	r18, r5
    24f0:	48 2f       	mov	r20, r24
    24f2:	64 2d       	mov	r22, r4
    24f4:	c7 01       	movw	r24, r14
    24f6:	60 d2       	rcall	.+1216   	; 0x29b8 <u8g2_DrawHVLine>
    24f8:	f8 85       	ldd	r31, Y+8	; 0x08
    24fa:	8f 81       	ldd	r24, Y+7	; 0x07
    24fc:	f8 17       	cp	r31, r24
    24fe:	28 f0       	brcs	.+10     	; 0x250a <u8g2_font_decode_len+0xf0>
    2500:	f8 1b       	sub	r31, r24
    2502:	f8 87       	std	Y+8, r31	; 0x08
    2504:	1f 5f       	subi	r17, 0xFF	; 255
    2506:	71 2c       	mov	r7, r1
    2508:	c1 cf       	rjmp	.-126    	; 0x248c <u8g2_font_decode_len+0x72>
    250a:	88 85       	ldd	r24, Y+8	; 0x08
    250c:	87 0d       	add	r24, r7
    250e:	f7 01       	movw	r30, r14
    2510:	86 af       	std	Z+62, r24	; 0x3e
    2512:	27 ae       	std	Z+63, r2	; 0x3f
    2514:	28 96       	adiw	r28, 0x08	; 8
    2516:	0f b6       	in	r0, 0x3f	; 63
    2518:	f8 94       	cli
    251a:	de bf       	out	0x3e, r29	; 62
    251c:	0f be       	out	0x3f, r0	; 63
    251e:	cd bf       	out	0x3d, r28	; 61
    2520:	df 91       	pop	r29
    2522:	cf 91       	pop	r28
    2524:	1f 91       	pop	r17
    2526:	0f 91       	pop	r16
    2528:	ff 90       	pop	r15
    252a:	ef 90       	pop	r14
    252c:	df 90       	pop	r13
    252e:	cf 90       	pop	r12
    2530:	bf 90       	pop	r11
    2532:	af 90       	pop	r10
    2534:	9f 90       	pop	r9
    2536:	8f 90       	pop	r8
    2538:	7f 90       	pop	r7
    253a:	6f 90       	pop	r6
    253c:	5f 90       	pop	r5
    253e:	4f 90       	pop	r4
    2540:	3f 90       	pop	r3
    2542:	2f 90       	pop	r2
    2544:	08 95       	ret

00002546 <u8g2_font_decode_glyph>:
    2546:	8f 92       	push	r8
    2548:	9f 92       	push	r9
    254a:	af 92       	push	r10
    254c:	bf 92       	push	r11
    254e:	cf 92       	push	r12
    2550:	df 92       	push	r13
    2552:	ef 92       	push	r14
    2554:	ff 92       	push	r15
    2556:	0f 93       	push	r16
    2558:	1f 93       	push	r17
    255a:	cf 93       	push	r28
    255c:	df 93       	push	r29
    255e:	ec 01       	movw	r28, r24
    2560:	7c 01       	movw	r14, r24
    2562:	8a e3       	ldi	r24, 0x3A	; 58
    2564:	e8 0e       	add	r14, r24
    2566:	f1 1c       	adc	r15, r1
    2568:	ce 01       	movw	r24, r28
    256a:	1c df       	rcall	.-456    	; 0x23a4 <u8g2_font_setup_decode>
    256c:	fe 01       	movw	r30, r28
    256e:	ef 5b       	subi	r30, 0xBF	; 191
    2570:	ff 4f       	sbci	r31, 0xFF	; 255
    2572:	90 80       	ld	r9, Z
    2574:	3c 96       	adiw	r30, 0x0c	; 12
    2576:	60 81       	ld	r22, Z
    2578:	c7 01       	movw	r24, r14
    257a:	41 df       	rcall	.-382    	; 0x23fe <u8g2_font_decode_get_signed_bits>
    257c:	b8 2e       	mov	r11, r24
    257e:	fe 01       	movw	r30, r28
    2580:	e2 5b       	subi	r30, 0xB2	; 178
    2582:	ff 4f       	sbci	r31, 0xFF	; 255
    2584:	60 81       	ld	r22, Z
    2586:	c7 01       	movw	r24, r14
    2588:	3a df       	rcall	.-396    	; 0x23fe <u8g2_font_decode_get_signed_bits>
    258a:	18 2f       	mov	r17, r24
    258c:	fe 01       	movw	r30, r28
    258e:	e1 5b       	subi	r30, 0xB1	; 177
    2590:	ff 4f       	sbci	r31, 0xFF	; 255
    2592:	60 81       	ld	r22, Z
    2594:	c7 01       	movw	r24, r14
    2596:	33 df       	rcall	.-410    	; 0x23fe <u8g2_font_decode_get_signed_bits>
    2598:	88 2e       	mov	r8, r24
    259a:	fe 01       	movw	r30, r28
    259c:	e0 5c       	subi	r30, 0xC0	; 192
    259e:	ff 4f       	sbci	r31, 0xFF	; 255
    25a0:	d0 80       	ld	r13, Z
    25a2:	1d 14       	cp	r1, r13
    25a4:	0c f0       	brlt	.+2      	; 0x25a8 <u8g2_font_decode_glyph+0x62>
    25a6:	6f c0       	rjmp	.+222    	; 0x2686 <u8g2_font_decode_glyph+0x140>
    25a8:	36 96       	adiw	r30, 0x06	; 6
    25aa:	00 81       	ld	r16, Z
    25ac:	19 0d       	add	r17, r9
    25ae:	11 95       	neg	r17
    25b0:	20 2f       	mov	r18, r16
    25b2:	41 2f       	mov	r20, r17
    25b4:	6b 2d       	mov	r22, r11
    25b6:	8c ad       	ldd	r24, Y+60	; 0x3c
    25b8:	59 de       	rcall	.-846    	; 0x226c <u8g2_add_vector_x>
    25ba:	c8 2e       	mov	r12, r24
    25bc:	8c af       	std	Y+60, r24	; 0x3c
    25be:	20 2f       	mov	r18, r16
    25c0:	41 2f       	mov	r20, r17
    25c2:	6b 2d       	mov	r22, r11
    25c4:	8d ad       	ldd	r24, Y+61	; 0x3d
    25c6:	44 de       	rcall	.-888    	; 0x2250 <u8g2_add_vector_y>
    25c8:	8d af       	std	Y+61, r24	; 0x3d
    25ca:	01 30       	cpi	r16, 0x01	; 1
    25cc:	59 f0       	breq	.+22     	; 0x25e4 <u8g2_font_decode_glyph+0x9e>
    25ce:	28 f0       	brcs	.+10     	; 0x25da <u8g2_font_decode_glyph+0x94>
    25d0:	02 30       	cpi	r16, 0x02	; 2
    25d2:	91 f0       	breq	.+36     	; 0x25f8 <u8g2_font_decode_glyph+0xb2>
    25d4:	03 30       	cpi	r16, 0x03	; 3
    25d6:	d9 f0       	breq	.+54     	; 0x260e <u8g2_font_decode_glyph+0xc8>
    25d8:	23 c0       	rjmp	.+70     	; 0x2620 <u8g2_font_decode_glyph+0xda>
    25da:	2d 2d       	mov	r18, r13
    25dc:	2c 0d       	add	r18, r12
    25de:	09 2d       	mov	r16, r9
    25e0:	08 0f       	add	r16, r24
    25e2:	20 c0       	rjmp	.+64     	; 0x2624 <u8g2_font_decode_glyph+0xde>
    25e4:	9c 2d       	mov	r25, r12
    25e6:	99 19       	sub	r25, r9
    25e8:	21 e0       	ldi	r18, 0x01	; 1
    25ea:	2c 0d       	add	r18, r12
    25ec:	0d 2d       	mov	r16, r13
    25ee:	08 0f       	add	r16, r24
    25f0:	cc 24       	eor	r12, r12
    25f2:	c3 94       	inc	r12
    25f4:	c9 0e       	add	r12, r25
    25f6:	16 c0       	rjmp	.+44     	; 0x2624 <u8g2_font_decode_glyph+0xde>
    25f8:	91 e0       	ldi	r25, 0x01	; 1
    25fa:	39 2f       	mov	r19, r25
    25fc:	3d 19       	sub	r19, r13
    25fe:	21 e0       	ldi	r18, 0x01	; 1
    2600:	2c 0d       	add	r18, r12
    2602:	99 19       	sub	r25, r9
    2604:	01 e0       	ldi	r16, 0x01	; 1
    2606:	08 0f       	add	r16, r24
    2608:	89 0f       	add	r24, r25
    260a:	c3 0e       	add	r12, r19
    260c:	0b c0       	rjmp	.+22     	; 0x2624 <u8g2_font_decode_glyph+0xde>
    260e:	29 2d       	mov	r18, r9
    2610:	2c 0d       	add	r18, r12
    2612:	98 2f       	mov	r25, r24
    2614:	9d 19       	sub	r25, r13
    2616:	01 e0       	ldi	r16, 0x01	; 1
    2618:	08 0f       	add	r16, r24
    261a:	81 e0       	ldi	r24, 0x01	; 1
    261c:	89 0f       	add	r24, r25
    261e:	02 c0       	rjmp	.+4      	; 0x2624 <u8g2_font_decode_glyph+0xde>
    2620:	08 2f       	mov	r16, r24
    2622:	2c 2d       	mov	r18, r12
    2624:	48 2f       	mov	r20, r24
    2626:	6c 2d       	mov	r22, r12
    2628:	ce 01       	movw	r24, r28
    262a:	49 d2       	rcall	.+1170   	; 0x2abe <u8g2_IsIntersection>
    262c:	88 23       	and	r24, r24
    262e:	59 f1       	breq	.+86     	; 0x2686 <u8g2_font_decode_glyph+0x140>
    2630:	1e ae       	std	Y+62, r1	; 0x3e
    2632:	1f ae       	std	Y+63, r1	; 0x3f
    2634:	5e 01       	movw	r10, r28
    2636:	e9 e4       	ldi	r30, 0x49	; 73
    2638:	ae 0e       	add	r10, r30
    263a:	b1 1c       	adc	r11, r1
    263c:	6e 01       	movw	r12, r28
    263e:	fa e4       	ldi	r31, 0x4A	; 74
    2640:	cf 0e       	add	r12, r31
    2642:	d1 1c       	adc	r13, r1
    2644:	f5 01       	movw	r30, r10
    2646:	60 81       	ld	r22, Z
    2648:	c7 01       	movw	r24, r14
    264a:	7c de       	rcall	.-776    	; 0x2344 <u8g2_font_decode_get_unsigned_bits>
    264c:	08 2f       	mov	r16, r24
    264e:	f6 01       	movw	r30, r12
    2650:	60 81       	ld	r22, Z
    2652:	c7 01       	movw	r24, r14
    2654:	77 de       	rcall	.-786    	; 0x2344 <u8g2_font_decode_get_unsigned_bits>
    2656:	18 2f       	mov	r17, r24
    2658:	40 e0       	ldi	r20, 0x00	; 0
    265a:	60 2f       	mov	r22, r16
    265c:	ce 01       	movw	r24, r28
    265e:	dd de       	rcall	.-582    	; 0x241a <u8g2_font_decode_len>
    2660:	41 e0       	ldi	r20, 0x01	; 1
    2662:	61 2f       	mov	r22, r17
    2664:	ce 01       	movw	r24, r28
    2666:	d9 de       	rcall	.-590    	; 0x241a <u8g2_font_decode_len>
    2668:	61 e0       	ldi	r22, 0x01	; 1
    266a:	c7 01       	movw	r24, r14
    266c:	6b de       	rcall	.-810    	; 0x2344 <u8g2_font_decode_get_unsigned_bits>
    266e:	81 11       	cpse	r24, r1
    2670:	f3 cf       	rjmp	.-26     	; 0x2658 <u8g2_font_decode_glyph+0x112>
    2672:	8f ad       	ldd	r24, Y+63	; 0x3f
    2674:	89 15       	cp	r24, r9
    2676:	34 f3       	brlt	.-52     	; 0x2644 <u8g2_font_decode_glyph+0xfe>
    2678:	fe 01       	movw	r30, r28
    267a:	ec 59       	subi	r30, 0x9C	; 156
    267c:	ff 4f       	sbci	r31, 0xFF	; 255
    267e:	cc 5b       	subi	r28, 0xBC	; 188
    2680:	df 4f       	sbci	r29, 0xFF	; 255
    2682:	88 81       	ld	r24, Y
    2684:	80 83       	st	Z, r24
    2686:	88 2d       	mov	r24, r8
    2688:	df 91       	pop	r29
    268a:	cf 91       	pop	r28
    268c:	1f 91       	pop	r17
    268e:	0f 91       	pop	r16
    2690:	ff 90       	pop	r15
    2692:	ef 90       	pop	r14
    2694:	df 90       	pop	r13
    2696:	cf 90       	pop	r12
    2698:	bf 90       	pop	r11
    269a:	af 90       	pop	r10
    269c:	9f 90       	pop	r9
    269e:	8f 90       	pop	r8
    26a0:	08 95       	ret

000026a2 <u8g2_font_get_glyph_data>:
    26a2:	ef 92       	push	r14
    26a4:	ff 92       	push	r15
    26a6:	0f 93       	push	r16
    26a8:	1f 93       	push	r17
    26aa:	cf 93       	push	r28
    26ac:	df 93       	push	r29
    26ae:	fc 01       	movw	r30, r24
    26b0:	c6 a9       	ldd	r28, Z+54	; 0x36
    26b2:	d7 a9       	ldd	r29, Z+55	; 0x37
    26b4:	67 96       	adiw	r28, 0x17	; 23
    26b6:	6f 3f       	cpi	r22, 0xFF	; 255
    26b8:	71 05       	cpc	r23, r1
    26ba:	11 f0       	breq	.+4      	; 0x26c0 <u8g2_font_get_glyph_data+0x1e>
    26bc:	08 f0       	brcs	.+2      	; 0x26c0 <u8g2_font_get_glyph_data+0x1e>
    26be:	36 c0       	rjmp	.+108    	; 0x272c <u8g2_font_get_glyph_data+0x8a>
    26c0:	61 36       	cpi	r22, 0x61	; 97
    26c2:	71 05       	cpc	r23, r1
    26c4:	38 f0       	brcs	.+14     	; 0x26d4 <u8g2_font_get_glyph_data+0x32>
    26c6:	e6 5a       	subi	r30, 0xA6	; 166
    26c8:	ff 4f       	sbci	r31, 0xFF	; 255
    26ca:	80 81       	ld	r24, Z
    26cc:	91 81       	ldd	r25, Z+1	; 0x01
    26ce:	c8 0f       	add	r28, r24
    26d0:	d9 1f       	adc	r29, r25
    26d2:	0a c0       	rjmp	.+20     	; 0x26e8 <u8g2_font_get_glyph_data+0x46>
    26d4:	61 34       	cpi	r22, 0x41	; 65
    26d6:	71 05       	cpc	r23, r1
    26d8:	38 f0       	brcs	.+14     	; 0x26e8 <u8g2_font_get_glyph_data+0x46>
    26da:	fc 01       	movw	r30, r24
    26dc:	e8 5a       	subi	r30, 0xA8	; 168
    26de:	ff 4f       	sbci	r31, 0xFF	; 255
    26e0:	80 81       	ld	r24, Z
    26e2:	91 81       	ldd	r25, Z+1	; 0x01
    26e4:	c8 0f       	add	r28, r24
    26e6:	d9 1f       	adc	r29, r25
    26e8:	ce 01       	movw	r24, r28
    26ea:	01 96       	adiw	r24, 0x01	; 1
    26ec:	fc 01       	movw	r30, r24
    26ee:	24 91       	lpm	r18, Z
    26f0:	22 23       	and	r18, r18
    26f2:	09 f4       	brne	.+2      	; 0x26f6 <u8g2_font_get_glyph_data+0x54>
    26f4:	58 c0       	rjmp	.+176    	; 0x27a6 <u8g2_font_get_glyph_data+0x104>
    26f6:	fe 01       	movw	r30, r28
    26f8:	24 91       	lpm	r18, Z
    26fa:	30 e0       	ldi	r19, 0x00	; 0
    26fc:	62 17       	cp	r22, r18
    26fe:	73 07       	cpc	r23, r19
    2700:	51 f4       	brne	.+20     	; 0x2716 <u8g2_font_get_glyph_data+0x74>
    2702:	06 c0       	rjmp	.+12     	; 0x2710 <u8g2_font_get_glyph_data+0x6e>
    2704:	fe 01       	movw	r30, r28
    2706:	24 91       	lpm	r18, Z
    2708:	30 e0       	ldi	r19, 0x00	; 0
    270a:	62 17       	cp	r22, r18
    270c:	73 07       	cpc	r23, r19
    270e:	19 f4       	brne	.+6      	; 0x2716 <u8g2_font_get_glyph_data+0x74>
    2710:	ce 01       	movw	r24, r28
    2712:	02 96       	adiw	r24, 0x02	; 2
    2714:	50 c0       	rjmp	.+160    	; 0x27b6 <u8g2_font_get_glyph_data+0x114>
    2716:	fc 01       	movw	r30, r24
    2718:	84 91       	lpm	r24, Z
    271a:	c8 0f       	add	r28, r24
    271c:	d1 1d       	adc	r29, r1
    271e:	ce 01       	movw	r24, r28
    2720:	01 96       	adiw	r24, 0x01	; 1
    2722:	fc 01       	movw	r30, r24
    2724:	24 91       	lpm	r18, Z
    2726:	21 11       	cpse	r18, r1
    2728:	ed cf       	rjmp	.-38     	; 0x2704 <u8g2_font_get_glyph_data+0x62>
    272a:	40 c0       	rjmp	.+128    	; 0x27ac <u8g2_font_get_glyph_data+0x10a>
    272c:	8b 01       	movw	r16, r22
    272e:	fc 01       	movw	r30, r24
    2730:	e4 5a       	subi	r30, 0xA4	; 164
    2732:	ff 4f       	sbci	r31, 0xFF	; 255
    2734:	80 81       	ld	r24, Z
    2736:	91 81       	ldd	r25, Z+1	; 0x01
    2738:	c8 0f       	add	r28, r24
    273a:	d9 1f       	adc	r29, r25
    273c:	7e 01       	movw	r14, r28
    273e:	60 e0       	ldi	r22, 0x00	; 0
    2740:	c7 01       	movw	r24, r14
    2742:	7a dd       	rcall	.-1292   	; 0x2238 <u8g2_font_get_word>
    2744:	c8 0f       	add	r28, r24
    2746:	d9 1f       	adc	r29, r25
    2748:	62 e0       	ldi	r22, 0x02	; 2
    274a:	c7 01       	movw	r24, r14
    274c:	75 dd       	rcall	.-1302   	; 0x2238 <u8g2_font_get_word>
    274e:	f4 e0       	ldi	r31, 0x04	; 4
    2750:	ef 0e       	add	r14, r31
    2752:	f1 1c       	adc	r15, r1
    2754:	80 17       	cp	r24, r16
    2756:	91 07       	cpc	r25, r17
    2758:	90 f3       	brcs	.-28     	; 0x273e <u8g2_font_get_glyph_data+0x9c>
    275a:	fe 01       	movw	r30, r28
    275c:	84 91       	lpm	r24, Z
    275e:	90 e0       	ldi	r25, 0x00	; 0
    2760:	98 2f       	mov	r25, r24
    2762:	88 27       	eor	r24, r24
    2764:	31 96       	adiw	r30, 0x01	; 1
    2766:	e4 91       	lpm	r30, Z
    2768:	8e 2b       	or	r24, r30
    276a:	00 97       	sbiw	r24, 0x00	; 0
    276c:	11 f1       	breq	.+68     	; 0x27b2 <u8g2_font_get_glyph_data+0x110>
    276e:	08 17       	cp	r16, r24
    2770:	19 07       	cpc	r17, r25
    2772:	39 f4       	brne	.+14     	; 0x2782 <u8g2_font_get_glyph_data+0xe0>
    2774:	03 c0       	rjmp	.+6      	; 0x277c <u8g2_font_get_glyph_data+0xda>
    2776:	08 17       	cp	r16, r24
    2778:	19 07       	cpc	r17, r25
    277a:	19 f4       	brne	.+6      	; 0x2782 <u8g2_font_get_glyph_data+0xe0>
    277c:	ce 01       	movw	r24, r28
    277e:	03 96       	adiw	r24, 0x03	; 3
    2780:	1a c0       	rjmp	.+52     	; 0x27b6 <u8g2_font_get_glyph_data+0x114>
    2782:	fe 01       	movw	r30, r28
    2784:	32 96       	adiw	r30, 0x02	; 2
    2786:	e4 91       	lpm	r30, Z
    2788:	ce 0f       	add	r28, r30
    278a:	d1 1d       	adc	r29, r1
    278c:	fe 01       	movw	r30, r28
    278e:	84 91       	lpm	r24, Z
    2790:	90 e0       	ldi	r25, 0x00	; 0
    2792:	98 2f       	mov	r25, r24
    2794:	88 27       	eor	r24, r24
    2796:	31 96       	adiw	r30, 0x01	; 1
    2798:	e4 91       	lpm	r30, Z
    279a:	8e 2b       	or	r24, r30
    279c:	00 97       	sbiw	r24, 0x00	; 0
    279e:	59 f7       	brne	.-42     	; 0x2776 <u8g2_font_get_glyph_data+0xd4>
    27a0:	80 e0       	ldi	r24, 0x00	; 0
    27a2:	90 e0       	ldi	r25, 0x00	; 0
    27a4:	08 c0       	rjmp	.+16     	; 0x27b6 <u8g2_font_get_glyph_data+0x114>
    27a6:	80 e0       	ldi	r24, 0x00	; 0
    27a8:	90 e0       	ldi	r25, 0x00	; 0
    27aa:	05 c0       	rjmp	.+10     	; 0x27b6 <u8g2_font_get_glyph_data+0x114>
    27ac:	80 e0       	ldi	r24, 0x00	; 0
    27ae:	90 e0       	ldi	r25, 0x00	; 0
    27b0:	02 c0       	rjmp	.+4      	; 0x27b6 <u8g2_font_get_glyph_data+0x114>
    27b2:	80 e0       	ldi	r24, 0x00	; 0
    27b4:	90 e0       	ldi	r25, 0x00	; 0
    27b6:	df 91       	pop	r29
    27b8:	cf 91       	pop	r28
    27ba:	1f 91       	pop	r17
    27bc:	0f 91       	pop	r16
    27be:	ff 90       	pop	r15
    27c0:	ef 90       	pop	r14
    27c2:	08 95       	ret

000027c4 <u8g2_DrawGlyph>:
    27c4:	ef 92       	push	r14
    27c6:	ff 92       	push	r15
    27c8:	0f 93       	push	r16
    27ca:	1f 93       	push	r17
    27cc:	cf 93       	push	r28
    27ce:	df 93       	push	r29
    27d0:	ec 01       	movw	r28, r24
    27d2:	06 2f       	mov	r16, r22
    27d4:	14 2f       	mov	r17, r20
    27d6:	79 01       	movw	r14, r18
    27d8:	fc 01       	movw	r30, r24
    27da:	ea 5b       	subi	r30, 0xBA	; 186
    27dc:	ff 4f       	sbci	r31, 0xFF	; 255
    27de:	80 81       	ld	r24, Z
    27e0:	81 30       	cpi	r24, 0x01	; 1
    27e2:	61 f0       	breq	.+24     	; 0x27fc <u8g2_DrawGlyph+0x38>
    27e4:	28 f0       	brcs	.+10     	; 0x27f0 <u8g2_DrawGlyph+0x2c>
    27e6:	82 30       	cpi	r24, 0x02	; 2
    27e8:	79 f0       	breq	.+30     	; 0x2808 <u8g2_DrawGlyph+0x44>
    27ea:	83 30       	cpi	r24, 0x03	; 3
    27ec:	99 f0       	breq	.+38     	; 0x2814 <u8g2_DrawGlyph+0x50>
    27ee:	17 c0       	rjmp	.+46     	; 0x281e <u8g2_DrawGlyph+0x5a>
    27f0:	e8 ad       	ldd	r30, Y+56	; 0x38
    27f2:	f9 ad       	ldd	r31, Y+57	; 0x39
    27f4:	ce 01       	movw	r24, r28
    27f6:	09 95       	icall
    27f8:	18 0f       	add	r17, r24
    27fa:	11 c0       	rjmp	.+34     	; 0x281e <u8g2_DrawGlyph+0x5a>
    27fc:	e8 ad       	ldd	r30, Y+56	; 0x38
    27fe:	f9 ad       	ldd	r31, Y+57	; 0x39
    2800:	ce 01       	movw	r24, r28
    2802:	09 95       	icall
    2804:	08 1b       	sub	r16, r24
    2806:	0b c0       	rjmp	.+22     	; 0x281e <u8g2_DrawGlyph+0x5a>
    2808:	e8 ad       	ldd	r30, Y+56	; 0x38
    280a:	f9 ad       	ldd	r31, Y+57	; 0x39
    280c:	ce 01       	movw	r24, r28
    280e:	09 95       	icall
    2810:	18 1b       	sub	r17, r24
    2812:	05 c0       	rjmp	.+10     	; 0x281e <u8g2_DrawGlyph+0x5a>
    2814:	e8 ad       	ldd	r30, Y+56	; 0x38
    2816:	f9 ad       	ldd	r31, Y+57	; 0x39
    2818:	ce 01       	movw	r24, r28
    281a:	09 95       	icall
    281c:	08 0f       	add	r16, r24
    281e:	0c af       	std	Y+60, r16	; 0x3c
    2820:	1d af       	std	Y+61, r17	; 0x3d
    2822:	b7 01       	movw	r22, r14
    2824:	ce 01       	movw	r24, r28
    2826:	3d df       	rcall	.-390    	; 0x26a2 <u8g2_font_get_glyph_data>
    2828:	00 97       	sbiw	r24, 0x00	; 0
    282a:	21 f0       	breq	.+8      	; 0x2834 <u8g2_DrawGlyph+0x70>
    282c:	bc 01       	movw	r22, r24
    282e:	ce 01       	movw	r24, r28
    2830:	8a de       	rcall	.-748    	; 0x2546 <u8g2_font_decode_glyph>
    2832:	01 c0       	rjmp	.+2      	; 0x2836 <u8g2_DrawGlyph+0x72>
    2834:	80 e0       	ldi	r24, 0x00	; 0
    2836:	df 91       	pop	r29
    2838:	cf 91       	pop	r28
    283a:	1f 91       	pop	r17
    283c:	0f 91       	pop	r16
    283e:	ff 90       	pop	r15
    2840:	ef 90       	pop	r14
    2842:	08 95       	ret

00002844 <u8g2_draw_string>:
    2844:	bf 92       	push	r11
    2846:	cf 92       	push	r12
    2848:	df 92       	push	r13
    284a:	ef 92       	push	r14
    284c:	ff 92       	push	r15
    284e:	0f 93       	push	r16
    2850:	1f 93       	push	r17
    2852:	cf 93       	push	r28
    2854:	df 93       	push	r29
    2856:	ec 01       	movw	r28, r24
    2858:	b6 2e       	mov	r11, r22
    285a:	c4 2e       	mov	r12, r20
    285c:	e2 2e       	mov	r14, r18
    285e:	f3 2e       	mov	r15, r19
    2860:	bd d2       	rcall	.+1402   	; 0x2ddc <u8x8_utf8_init>
    2862:	0e 2d       	mov	r16, r14
    2864:	1f 2d       	mov	r17, r15
    2866:	d1 2c       	mov	r13, r1
    2868:	7e 01       	movw	r14, r28
    286a:	26 e4       	ldi	r18, 0x46	; 70
    286c:	e2 0e       	add	r14, r18
    286e:	f1 1c       	adc	r15, r1
    2870:	f8 01       	movw	r30, r16
    2872:	61 91       	ld	r22, Z+
    2874:	8f 01       	movw	r16, r30
    2876:	ea 81       	ldd	r30, Y+2	; 0x02
    2878:	fb 81       	ldd	r31, Y+3	; 0x03
    287a:	ce 01       	movw	r24, r28
    287c:	09 95       	icall
    287e:	8f 3f       	cpi	r24, 0xFF	; 255
    2880:	ff ef       	ldi	r31, 0xFF	; 255
    2882:	9f 07       	cpc	r25, r31
    2884:	e1 f0       	breq	.+56     	; 0x28be <u8g2_draw_string+0x7a>
    2886:	8e 3f       	cpi	r24, 0xFE	; 254
    2888:	2f ef       	ldi	r18, 0xFF	; 255
    288a:	92 07       	cpc	r25, r18
    288c:	89 f3       	breq	.-30     	; 0x2870 <u8g2_draw_string+0x2c>
    288e:	9c 01       	movw	r18, r24
    2890:	4c 2d       	mov	r20, r12
    2892:	6b 2d       	mov	r22, r11
    2894:	ce 01       	movw	r24, r28
    2896:	96 df       	rcall	.-212    	; 0x27c4 <u8g2_DrawGlyph>
    2898:	f7 01       	movw	r30, r14
    289a:	90 81       	ld	r25, Z
    289c:	91 30       	cpi	r25, 0x01	; 1
    289e:	41 f0       	breq	.+16     	; 0x28b0 <u8g2_draw_string+0x6c>
    28a0:	28 f0       	brcs	.+10     	; 0x28ac <u8g2_draw_string+0x68>
    28a2:	92 30       	cpi	r25, 0x02	; 2
    28a4:	39 f0       	breq	.+14     	; 0x28b4 <u8g2_draw_string+0x70>
    28a6:	93 30       	cpi	r25, 0x03	; 3
    28a8:	39 f0       	breq	.+14     	; 0x28b8 <u8g2_draw_string+0x74>
    28aa:	07 c0       	rjmp	.+14     	; 0x28ba <u8g2_draw_string+0x76>
    28ac:	b8 0e       	add	r11, r24
    28ae:	05 c0       	rjmp	.+10     	; 0x28ba <u8g2_draw_string+0x76>
    28b0:	c8 0e       	add	r12, r24
    28b2:	03 c0       	rjmp	.+6      	; 0x28ba <u8g2_draw_string+0x76>
    28b4:	b8 1a       	sub	r11, r24
    28b6:	01 c0       	rjmp	.+2      	; 0x28ba <u8g2_draw_string+0x76>
    28b8:	c8 1a       	sub	r12, r24
    28ba:	d8 0e       	add	r13, r24
    28bc:	d9 cf       	rjmp	.-78     	; 0x2870 <u8g2_draw_string+0x2c>
    28be:	8d 2d       	mov	r24, r13
    28c0:	df 91       	pop	r29
    28c2:	cf 91       	pop	r28
    28c4:	1f 91       	pop	r17
    28c6:	0f 91       	pop	r16
    28c8:	ff 90       	pop	r15
    28ca:	ef 90       	pop	r14
    28cc:	df 90       	pop	r13
    28ce:	cf 90       	pop	r12
    28d0:	bf 90       	pop	r11
    28d2:	08 95       	ret

000028d4 <u8g2_DrawUTF8>:
    28d4:	e6 e9       	ldi	r30, 0x96	; 150
    28d6:	f6 e1       	ldi	r31, 0x16	; 22
    28d8:	dc 01       	movw	r26, r24
    28da:	13 96       	adiw	r26, 0x03	; 3
    28dc:	fc 93       	st	X, r31
    28de:	ee 93       	st	-X, r30
    28e0:	12 97       	sbiw	r26, 0x02	; 2
    28e2:	b0 cf       	rjmp	.-160    	; 0x2844 <u8g2_draw_string>
    28e4:	08 95       	ret

000028e6 <u8g2_UpdateRefHeight>:
    28e6:	fc 01       	movw	r30, r24
    28e8:	26 a9       	ldd	r18, Z+54	; 0x36
    28ea:	37 a9       	ldd	r19, Z+55	; 0x37
    28ec:	23 2b       	or	r18, r19
    28ee:	e9 f1       	breq	.+122    	; 0x296a <u8g2_UpdateRefHeight+0x84>
    28f0:	ec 5a       	subi	r30, 0xAC	; 172
    28f2:	ff 4f       	sbci	r31, 0xFF	; 255
    28f4:	20 81       	ld	r18, Z
    28f6:	3c 96       	adiw	r30, 0x0c	; 12
    28f8:	20 83       	st	Z, r18
    28fa:	3b 97       	sbiw	r30, 0x0b	; 11
    28fc:	40 81       	ld	r20, Z
    28fe:	3c 96       	adiw	r30, 0x0c	; 12
    2900:	40 83       	st	Z, r20
    2902:	32 97       	sbiw	r30, 0x02	; 2
    2904:	30 81       	ld	r19, Z
    2906:	33 23       	and	r19, r19
    2908:	81 f1       	breq	.+96     	; 0x296a <u8g2_UpdateRefHeight+0x84>
    290a:	31 30       	cpi	r19, 0x01	; 1
    290c:	79 f4       	brne	.+30     	; 0x292c <u8g2_UpdateRefHeight+0x46>
    290e:	39 97       	sbiw	r30, 0x09	; 9
    2910:	30 81       	ld	r19, Z
    2912:	23 17       	cp	r18, r19
    2914:	14 f4       	brge	.+4      	; 0x291a <u8g2_UpdateRefHeight+0x34>
    2916:	3a 96       	adiw	r30, 0x0a	; 10
    2918:	30 83       	st	Z, r19
    291a:	fc 01       	movw	r30, r24
    291c:	e9 5a       	subi	r30, 0xA9	; 169
    291e:	ff 4f       	sbci	r31, 0xFF	; 255
    2920:	20 81       	ld	r18, Z
    2922:	24 17       	cp	r18, r20
    2924:	14 f5       	brge	.+68     	; 0x296a <u8g2_UpdateRefHeight+0x84>
    2926:	3a 96       	adiw	r30, 0x0a	; 10
    2928:	20 83       	st	Z, r18
    292a:	08 95       	ret
    292c:	fc 01       	movw	r30, r24
    292e:	ef 5a       	subi	r30, 0xAF	; 175
    2930:	ff 4f       	sbci	r31, 0xFF	; 255
    2932:	e0 81       	ld	r30, Z
    2934:	dc 01       	movw	r26, r24
    2936:	ad 5a       	subi	r26, 0xAD	; 173
    2938:	bf 4f       	sbci	r27, 0xFF	; 255
    293a:	5c 91       	ld	r21, X
    293c:	02 2e       	mov	r0, r18
    293e:	00 0c       	add	r0, r0
    2940:	33 0b       	sbc	r19, r19
    2942:	65 2f       	mov	r22, r21
    2944:	05 2e       	mov	r0, r21
    2946:	00 0c       	add	r0, r0
    2948:	77 0b       	sbc	r23, r23
    294a:	6e 0f       	add	r22, r30
    294c:	71 1d       	adc	r23, r1
    294e:	e7 fd       	sbrc	r30, 7
    2950:	7a 95       	dec	r23
    2952:	26 17       	cp	r18, r22
    2954:	37 07       	cpc	r19, r23
    2956:	1c f4       	brge	.+6      	; 0x295e <u8g2_UpdateRefHeight+0x78>
    2958:	1d 96       	adiw	r26, 0x0d	; 13
    295a:	e5 0f       	add	r30, r21
    295c:	ec 93       	st	X, r30
    295e:	54 17       	cp	r21, r20
    2960:	24 f4       	brge	.+8      	; 0x296a <u8g2_UpdateRefHeight+0x84>
    2962:	fc 01       	movw	r30, r24
    2964:	ef 59       	subi	r30, 0x9F	; 159
    2966:	ff 4f       	sbci	r31, 0xFF	; 255
    2968:	50 83       	st	Z, r21
    296a:	08 95       	ret

0000296c <u8g2_SetFontPosBaseline>:
    296c:	24 e4       	ldi	r18, 0x44	; 68
    296e:	31 e1       	ldi	r19, 0x11	; 17
    2970:	fc 01       	movw	r30, r24
    2972:	31 af       	std	Z+57, r19	; 0x39
    2974:	20 af       	std	Z+56, r18	; 0x38
    2976:	08 95       	ret

00002978 <u8g2_SetFont>:
}

/*===============================================*/

void u8g2_SetFont(u8g2_t *u8g2, const uint8_t  *font)
{
    2978:	cf 93       	push	r28
    297a:	df 93       	push	r29
  if ( u8g2->font != font )
    297c:	fc 01       	movw	r30, r24
    297e:	26 a9       	ldd	r18, Z+54	; 0x36
    2980:	37 a9       	ldd	r19, Z+55	; 0x37
    2982:	26 17       	cp	r18, r22
    2984:	37 07       	cpc	r19, r23
    2986:	41 f0       	breq	.+16     	; 0x2998 <u8g2_SetFont+0x20>
    2988:	ec 01       	movw	r28, r24
  {
//#ifdef  __unix__
//	u8g2->last_font_data = NULL;
//	u8g2->last_unicode = 0x0ffff;
//#endif 
    u8g2->font = font;
    298a:	77 ab       	std	Z+55, r23	; 0x37
    298c:	66 ab       	std	Z+54, r22	; 0x36
    u8g2_read_font_info(&(u8g2->font_info), font);
    298e:	89 5b       	subi	r24, 0xB9	; 185
    2990:	9f 4f       	sbci	r25, 0xFF	; 255
    2992:	7c dc       	rcall	.-1800   	; 0x228c <u8g2_read_font_info>
    u8g2_UpdateRefHeight(u8g2);
    2994:	ce 01       	movw	r24, r28
    2996:	a7 df       	rcall	.-178    	; 0x28e6 <u8g2_UpdateRefHeight>
    /* u8g2_SetFontPosBaseline(u8g2); */ /* removed with issue 195 */
  }
}
    2998:	df 91       	pop	r29
    299a:	cf 91       	pop	r28
    299c:	08 95       	ret

0000299e <u8g2_draw_hv_line_2dir>:
  This function first adjusts the y position to the local buffer. Then it
  will clip the line and call u8g2_draw_low_level_hv_line()

*/
void u8g2_draw_hv_line_2dir(u8g2_t *u8g2, u8g2_uint_t x, u8g2_uint_t y, u8g2_uint_t len, uint8_t dir)
{
    299e:	0f 93       	push	r16
  /* clipping happens before the display rotation */

  /* transform to pixel buffer coordinates */
  y -= u8g2->pixel_curr_row;
  
  u8g2->ll_hvline(u8g2, x, y, len, dir);
    29a0:	dc 01       	movw	r26, r24
    29a2:	99 96       	adiw	r26, 0x29	; 41
    29a4:	3c 91       	ld	r19, X
    29a6:	99 97       	sbiw	r26, 0x29	; 41
    29a8:	43 1b       	sub	r20, r19
    29aa:	5f 96       	adiw	r26, 0x1f	; 31
    29ac:	ed 91       	ld	r30, X+
    29ae:	fc 91       	ld	r31, X
    29b0:	90 97       	sbiw	r26, 0x20	; 32
    29b2:	09 95       	icall
}
    29b4:	0f 91       	pop	r16
    29b6:	08 95       	ret

000029b8 <u8g2_DrawHVLine>:
  This function should be called by the user.
  
  "dir" may have 4 directions: 0 (left to right), 1, 2, 3 (down up)
*/
void u8g2_DrawHVLine(u8g2_t *u8g2, u8g2_uint_t x, u8g2_uint_t y, u8g2_uint_t len, uint8_t dir)
{
    29b8:	0f 93       	push	r16
  /* Make a call to the callback function (e.g. u8g2_draw_l90_r0). */
  /* The callback may rotate the hv line */
  /* after rotation this will call u8g2_draw_hv_line_4dir() */
  
#ifdef U8G2_WITH_CLIP_WINDOW_SUPPORT
  if ( u8g2->is_page_clip_window_intersection != 0 )
    29ba:	fc 01       	movw	r30, r24
    29bc:	e2 5a       	subi	r30, 0xA2	; 162
    29be:	ff 4f       	sbci	r31, 0xFF	; 255
    29c0:	30 81       	ld	r19, Z
    29c2:	33 23       	and	r19, r19
    29c4:	09 f4       	brne	.+2      	; 0x29c8 <u8g2_DrawHVLine+0x10>
    29c6:	65 c0       	rjmp	.+202    	; 0x2a92 <u8g2_DrawHVLine+0xda>
#endif /* U8G2_WITH_CLIP_WINDOW_SUPPORT */
    if ( len != 0 )
    29c8:	22 23       	and	r18, r18
    29ca:	09 f4       	brne	.+2      	; 0x29ce <u8g2_DrawHVLine+0x16>
    29cc:	62 c0       	rjmp	.+196    	; 0x2a92 <u8g2_DrawHVLine+0xda>
    {
    
      /* convert to two directions */    
      if ( len > 1 )
    29ce:	22 30       	cpi	r18, 0x02	; 2
    29d0:	58 f0       	brcs	.+22     	; 0x29e8 <u8g2_DrawHVLine+0x30>
      {
	if ( dir == 2 )
    29d2:	02 30       	cpi	r16, 0x02	; 2
    29d4:	19 f4       	brne	.+6      	; 0x29dc <u8g2_DrawHVLine+0x24>
    29d6:	6f 5f       	subi	r22, 0xFF	; 255
	{
	  x -= len;
	  x++;
    29d8:	62 1b       	sub	r22, r18
    29da:	0a c0       	rjmp	.+20     	; 0x29f0 <u8g2_DrawHVLine+0x38>
	}
	else if ( dir == 3 )
    29dc:	03 30       	cpi	r16, 0x03	; 3
    29de:	21 f4       	brne	.+8      	; 0x29e8 <u8g2_DrawHVLine+0x30>
    29e0:	4f 5f       	subi	r20, 0xFF	; 255
	{
	  y -= len;
	  y++;
    29e2:	42 1b       	sub	r20, r18
	}
      }
      dir &= 1;  
    29e4:	51 e0       	ldi	r21, 0x01	; 1
    29e6:	2d c0       	rjmp	.+90     	; 0x2a42 <u8g2_DrawHVLine+0x8a>
      
      /* clip against the user window */
      if ( dir == 0 )
    29e8:	50 2f       	mov	r21, r16
    29ea:	51 70       	andi	r21, 0x01	; 1
    29ec:	00 fd       	sbrc	r16, 0
    29ee:	29 c0       	rjmp	.+82     	; 0x2a42 <u8g2_DrawHVLine+0x8a>
      {
	if ( y < u8g2->user_y0 )
    29f0:	dc 01       	movw	r26, r24
    29f2:	d0 96       	adiw	r26, 0x30	; 48
    29f4:	3c 91       	ld	r19, X
    29f6:	d0 97       	sbiw	r26, 0x30	; 48
    29f8:	43 17       	cp	r20, r19
    29fa:	08 f4       	brcc	.+2      	; 0x29fe <u8g2_DrawHVLine+0x46>
    29fc:	4a c0       	rjmp	.+148    	; 0x2a92 <u8g2_DrawHVLine+0xda>
	  return;
	if ( y >= u8g2->user_y1 )
    29fe:	d1 96       	adiw	r26, 0x31	; 49
    2a00:	3c 91       	ld	r19, X
    2a02:	d1 97       	sbiw	r26, 0x31	; 49
    2a04:	43 17       	cp	r20, r19
    2a06:	08 f0       	brcs	.+2      	; 0x2a0a <u8g2_DrawHVLine+0x52>
    2a08:	44 c0       	rjmp	.+136    	; 0x2a92 <u8g2_DrawHVLine+0xda>
	  return;
	if ( u8g2_clip_intersection2(&x, &len, u8g2->user_x0, u8g2->user_x1) == 0 )
    2a0a:	9f 96       	adiw	r26, 0x2f	; 47
    2a0c:	3c 91       	ld	r19, X
    2a0e:	9f 97       	sbiw	r26, 0x2f	; 47
    2a10:	9e 96       	adiw	r26, 0x2e	; 46
    2a12:	5c 91       	ld	r21, X
static uint8_t u8g2_clip_intersection2(u8g2_uint_t *ap, u8g2_uint_t *len, u8g2_uint_t c, u8g2_uint_t d)
{
  u8g2_uint_t a = *ap;
  u8g2_uint_t b;
  b  = a;
  b += *len;
    2a14:	26 0f       	add	r18, r22
  /* be removed completly (be aware about memory curruption for wrong */
  /* arguments) or return 0 for a>b (will lead to skipped lines for wrong */
  /* arguments) */  
  
  /* removing the following if clause completly may lead to memory corruption of a>b */
  if ( a > b )
    2a16:	26 17       	cp	r18, r22
    2a18:	30 f4       	brcc	.+12     	; 0x2a26 <u8g2_DrawHVLine+0x6e>
  {    
    /* replacing this if with a simple "return 0;" will not handle the case with negative a */    
    if ( a < d )
    2a1a:	63 17       	cp	r22, r19
    2a1c:	18 f4       	brcc	.+6      	; 0x2a24 <u8g2_DrawHVLine+0x6c>
    {
      b = d;
      b--;
    2a1e:	2f ef       	ldi	r18, 0xFF	; 255
    2a20:	23 0f       	add	r18, r19
    2a22:	03 c0       	rjmp	.+6      	; 0x2a2a <u8g2_DrawHVLine+0x72>
    }
    else
    {
      a = c;
    2a24:	65 2f       	mov	r22, r21
    }
  }
  
  /* from now on, the asumption a <= b is ok */
  
  if ( a >= d )
    2a26:	63 17       	cp	r22, r19
    2a28:	a0 f5       	brcc	.+104    	; 0x2a92 <u8g2_DrawHVLine+0xda>
    return 0;
  if ( b <= c )
    2a2a:	52 17       	cp	r21, r18
    2a2c:	90 f5       	brcc	.+100    	; 0x2a92 <u8g2_DrawHVLine+0xda>
    2a2e:	65 17       	cp	r22, r21
    2a30:	08 f4       	brcc	.+2      	; 0x2a34 <u8g2_DrawHVLine+0x7c>
    2a32:	65 2f       	mov	r22, r21
    a = c;
  if ( b > d )
    b = d;
  
  *ap = a;
  b -= a;
    2a34:	23 17       	cp	r18, r19
    2a36:	08 f4       	brcc	.+2      	; 0x2a3a <u8g2_DrawHVLine+0x82>
    2a38:	32 2f       	mov	r19, r18
    2a3a:	23 2f       	mov	r18, r19
    2a3c:	26 1b       	sub	r18, r22
    2a3e:	50 e0       	ldi	r21, 0x00	; 0
    2a40:	1e c0       	rjmp	.+60     	; 0x2a7e <u8g2_DrawHVLine+0xc6>
	if ( u8g2_clip_intersection2(&x, &len, u8g2->user_x0, u8g2->user_x1) == 0 )
	  return;
      }
      else
      {
	if ( x < u8g2->user_x0 )
    2a42:	fc 01       	movw	r30, r24
    2a44:	36 a5       	ldd	r19, Z+46	; 0x2e
    2a46:	63 17       	cp	r22, r19
    2a48:	20 f1       	brcs	.+72     	; 0x2a92 <u8g2_DrawHVLine+0xda>
	  return;
	if ( x >= u8g2->user_x1 )
    2a4a:	37 a5       	ldd	r19, Z+47	; 0x2f
    2a4c:	63 17       	cp	r22, r19
    2a4e:	08 f5       	brcc	.+66     	; 0x2a92 <u8g2_DrawHVLine+0xda>
	  return;
	if ( u8g2_clip_intersection2(&y, &len, u8g2->user_y0, u8g2->user_y1) == 0 )
    2a50:	31 a9       	ldd	r19, Z+49	; 0x31
    2a52:	70 a9       	ldd	r23, Z+48	; 0x30
static uint8_t u8g2_clip_intersection2(u8g2_uint_t *ap, u8g2_uint_t *len, u8g2_uint_t c, u8g2_uint_t d)
{
  u8g2_uint_t a = *ap;
  u8g2_uint_t b;
  b  = a;
  b += *len;
    2a54:	24 0f       	add	r18, r20
  /* be removed completly (be aware about memory curruption for wrong */
  /* arguments) or return 0 for a>b (will lead to skipped lines for wrong */
  /* arguments) */  
  
  /* removing the following if clause completly may lead to memory corruption of a>b */
  if ( a > b )
    2a56:	24 17       	cp	r18, r20
    2a58:	30 f4       	brcc	.+12     	; 0x2a66 <u8g2_DrawHVLine+0xae>
  {    
    /* replacing this if with a simple "return 0;" will not handle the case with negative a */    
    if ( a < d )
    2a5a:	43 17       	cp	r20, r19
    2a5c:	18 f4       	brcc	.+6      	; 0x2a64 <u8g2_DrawHVLine+0xac>
    {
      b = d;
      b--;
    2a5e:	2f ef       	ldi	r18, 0xFF	; 255
    2a60:	23 0f       	add	r18, r19
    2a62:	03 c0       	rjmp	.+6      	; 0x2a6a <u8g2_DrawHVLine+0xb2>
    }
    else
    {
      a = c;
    2a64:	47 2f       	mov	r20, r23
    }
  }
  
  /* from now on, the asumption a <= b is ok */
  
  if ( a >= d )
    2a66:	43 17       	cp	r20, r19
    2a68:	a0 f4       	brcc	.+40     	; 0x2a92 <u8g2_DrawHVLine+0xda>
    return 0;
  if ( b <= c )
    2a6a:	72 17       	cp	r23, r18
    2a6c:	90 f4       	brcc	.+36     	; 0x2a92 <u8g2_DrawHVLine+0xda>
    2a6e:	47 17       	cp	r20, r23
    2a70:	08 f4       	brcc	.+2      	; 0x2a74 <u8g2_DrawHVLine+0xbc>
    2a72:	47 2f       	mov	r20, r23
    a = c;
  if ( b > d )
    b = d;
  
  *ap = a;
  b -= a;
    2a74:	23 17       	cp	r18, r19
    2a76:	08 f4       	brcc	.+2      	; 0x2a7a <u8g2_DrawHVLine+0xc2>
    2a78:	32 2f       	mov	r19, r18
    2a7a:	23 2f       	mov	r18, r19
    2a7c:	24 1b       	sub	r18, r20
	if ( u8g2_clip_intersection2(&y, &len, u8g2->user_y0, u8g2->user_y1) == 0 )
	  return;
      }
      
      
      u8g2->cb->draw_l90(u8g2, x, y, len, dir);
    2a7e:	dc 01       	movw	r26, r24
    2a80:	91 96       	adiw	r26, 0x21	; 33
    2a82:	ed 91       	ld	r30, X+
    2a84:	fc 91       	ld	r31, X
    2a86:	92 97       	sbiw	r26, 0x22	; 34
    2a88:	04 80       	ldd	r0, Z+4	; 0x04
    2a8a:	f5 81       	ldd	r31, Z+5	; 0x05
    2a8c:	e0 2d       	mov	r30, r0
    2a8e:	05 2f       	mov	r16, r21
    2a90:	09 95       	icall
    }
}
    2a92:	0f 91       	pop	r16
    2a94:	08 95       	ret

00002a96 <u8g2_is_intersection_decision_tree>:
  a1 and v1 are excluded
  v0 == v1 is not support end return 1
*/
uint8_t u8g2_is_intersection_decision_tree(u8g2_uint_t a0, u8g2_uint_t a1, u8g2_uint_t v0, u8g2_uint_t v1)
{
  if ( v0 < a1 )		// v0 <= a1
    2a96:	46 17       	cp	r20, r22
    2a98:	38 f4       	brcc	.+14     	; 0x2aa8 <u8g2_is_intersection_decision_tree+0x12>
  {
    if ( v1 > a0 )	// v1 >= a0
    2a9a:	82 17       	cp	r24, r18
    2a9c:	60 f0       	brcs	.+24     	; 0x2ab6 <u8g2_is_intersection_decision_tree+0x20>
    {
      return 1;
    2a9e:	81 e0       	ldi	r24, 0x01	; 1
    2aa0:	24 17       	cp	r18, r20
    2aa2:	60 f0       	brcs	.+24     	; 0x2abc <u8g2_is_intersection_decision_tree+0x26>
    2aa4:	80 e0       	ldi	r24, 0x00	; 0
    2aa6:	08 95       	ret
      }
    }
  }
  else
  {
    if ( v1 > a0 )	// v1 >= a0
    2aa8:	82 17       	cp	r24, r18
    2aaa:	38 f4       	brcc	.+14     	; 0x2aba <u8g2_is_intersection_decision_tree+0x24>
{
  if ( v0 < a1 )		// v0 <= a1
  {
    if ( v1 > a0 )	// v1 >= a0
    {
      return 1;
    2aac:	81 e0       	ldi	r24, 0x01	; 1
    2aae:	24 17       	cp	r18, r20
    2ab0:	28 f0       	brcs	.+10     	; 0x2abc <u8g2_is_intersection_decision_tree+0x26>
    2ab2:	80 e0       	ldi	r24, 0x00	; 0
    2ab4:	08 95       	ret
    2ab6:	81 e0       	ldi	r24, 0x01	; 1
    2ab8:	08 95       	ret
	return 0;
      }
    }
    else
    {
      return 0;
    2aba:	80 e0       	ldi	r24, 0x00	; 0
    }
  }
}
    2abc:	08 95       	ret

00002abe <u8g2_IsIntersection>:



/* upper limits are not included (asymetric boundaries) */
uint8_t u8g2_IsIntersection(u8g2_t *u8g2, u8g2_uint_t x0, u8g2_uint_t y0, u8g2_uint_t x1, u8g2_uint_t y1)
{
    2abe:	ff 92       	push	r15
    2ac0:	0f 93       	push	r16
    2ac2:	1f 93       	push	r17
    2ac4:	cf 93       	push	r28
    2ac6:	df 93       	push	r29
    2ac8:	ec 01       	movw	r28, r24
    2aca:	16 2f       	mov	r17, r22
    2acc:	f2 2e       	mov	r15, r18
    2ace:	20 2f       	mov	r18, r16
  if ( u8g2_is_intersection_decision_tree(u8g2->user_y0, u8g2->user_y1, y0, y1) == 0 )
    2ad0:	69 a9       	ldd	r22, Y+49	; 0x31
    2ad2:	88 a9       	ldd	r24, Y+48	; 0x30
    2ad4:	e0 df       	rcall	.-64     	; 0x2a96 <u8g2_is_intersection_decision_tree>
    2ad6:	88 23       	and	r24, r24
    2ad8:	29 f0       	breq	.+10     	; 0x2ae4 <u8g2_IsIntersection+0x26>
    return 0; 
  
  return u8g2_is_intersection_decision_tree(u8g2->user_x0, u8g2->user_x1, x0, x1);
    2ada:	2f 2d       	mov	r18, r15
    2adc:	41 2f       	mov	r20, r17
    2ade:	6f a5       	ldd	r22, Y+47	; 0x2f
    2ae0:	8e a5       	ldd	r24, Y+46	; 0x2e
    2ae2:	d9 df       	rcall	.-78     	; 0x2a96 <u8g2_is_intersection_decision_tree>
}
    2ae4:	df 91       	pop	r29
    2ae6:	cf 91       	pop	r28
    2ae8:	1f 91       	pop	r17
    2aea:	0f 91       	pop	r16
    2aec:	ff 90       	pop	r15
    2aee:	08 95       	ret

00002af0 <u8g2_ll_hvline_vertical_top_lsb>:
		1: vertical line (top to bottom)
  asumption: 
    all clipping done
*/
void u8g2_ll_hvline_vertical_top_lsb(u8g2_t *u8g2, u8g2_uint_t x, u8g2_uint_t y, u8g2_uint_t len, uint8_t dir)
{
    2af0:	ef 92       	push	r14
    2af2:	ff 92       	push	r15
    2af4:	0f 93       	push	r16
    2af6:	cf 93       	push	r28
    2af8:	df 93       	push	r29
    2afa:	7c 01       	movw	r14, r24
  //assert(y >= u8g2->buf_y0);
  //assert(y < u8g2_GetU8x8(u8g2)->display_info->tile_height*8);
  
  /* bytes are vertical, lsb on top (y=0), msb at bottom (y=7) */
  bit_pos = y;		/* overflow truncate is ok here... */
  bit_pos &= 7; 	/* ... because only the lowest 3 bits are needed */
    2afc:	34 2f       	mov	r19, r20
    2afe:	37 70       	andi	r19, 0x07	; 7
  mask = 1;
  mask <<= bit_pos;
    2b00:	81 e0       	ldi	r24, 0x01	; 1
    2b02:	90 e0       	ldi	r25, 0x00	; 0
    2b04:	03 2e       	mov	r0, r19
    2b06:	02 c0       	rjmp	.+4      	; 0x2b0c <u8g2_ll_hvline_vertical_top_lsb+0x1c>
    2b08:	88 0f       	add	r24, r24
    2b0a:	99 1f       	adc	r25, r25
    2b0c:	0a 94       	dec	r0
    2b0e:	e2 f7       	brpl	.-8      	; 0x2b08 <u8g2_ll_hvline_vertical_top_lsb+0x18>
    2b10:	c8 2f       	mov	r28, r24

  or_mask = 0;
  xor_mask = 0;
  if ( u8g2->draw_color <= 1 )
    2b12:	f7 01       	movw	r30, r14
    2b14:	ec 59       	subi	r30, 0x9C	; 156
    2b16:	ff 4f       	sbci	r31, 0xFF	; 255
    2b18:	50 81       	ld	r21, Z
    2b1a:	52 30       	cpi	r21, 0x02	; 2
    2b1c:	20 f4       	brcc	.+8      	; 0x2b26 <u8g2_ll_hvline_vertical_top_lsb+0x36>
    or_mask  = mask;
  if ( u8g2->draw_color != 1 )
    2b1e:	51 30       	cpi	r21, 0x01	; 1
    2b20:	21 f0       	breq	.+8      	; 0x2b2a <u8g2_ll_hvline_vertical_top_lsb+0x3a>
  mask <<= bit_pos;

  or_mask = 0;
  xor_mask = 0;
  if ( u8g2->draw_color <= 1 )
    or_mask  = mask;
    2b22:	78 2f       	mov	r23, r24
    2b24:	04 c0       	rjmp	.+8      	; 0x2b2e <u8g2_ll_hvline_vertical_top_lsb+0x3e>
  bit_pos = y;		/* overflow truncate is ok here... */
  bit_pos &= 7; 	/* ... because only the lowest 3 bits are needed */
  mask = 1;
  mask <<= bit_pos;

  or_mask = 0;
    2b26:	70 e0       	ldi	r23, 0x00	; 0
    2b28:	02 c0       	rjmp	.+4      	; 0x2b2e <u8g2_ll_hvline_vertical_top_lsb+0x3e>
  xor_mask = 0;
  if ( u8g2->draw_color <= 1 )
    or_mask  = mask;
    2b2a:	78 2f       	mov	r23, r24
  bit_pos &= 7; 	/* ... because only the lowest 3 bits are needed */
  mask = 1;
  mask <<= bit_pos;

  or_mask = 0;
  xor_mask = 0;
    2b2c:	c0 e0       	ldi	r28, 0x00	; 0
    or_mask  = mask;
  if ( u8g2->draw_color != 1 )
    xor_mask = mask;


  offset = y;		/* y might be 8 or 16 bit, but we need 16 bit, so use a 16 bit variable */
    2b2e:	50 e0       	ldi	r21, 0x00	; 0
  offset &= ~7;
    2b30:	48 7f       	andi	r20, 0xF8	; 248
  offset *= u8g2_GetU8x8(u8g2)->display_info->tile_width;
  ptr = u8g2->tile_buf_ptr;
    2b32:	d7 01       	movw	r26, r14
    2b34:	93 96       	adiw	r26, 0x23	; 35
    2b36:	8d 91       	ld	r24, X+
    2b38:	9c 91       	ld	r25, X
    2b3a:	94 97       	sbiw	r26, 0x24	; 36
    xor_mask = mask;


  offset = y;		/* y might be 8 or 16 bit, but we need 16 bit, so use a 16 bit variable */
  offset &= ~7;
  offset *= u8g2_GetU8x8(u8g2)->display_info->tile_width;
    2b3c:	ed 91       	ld	r30, X+
    2b3e:	fc 91       	ld	r31, X
  ptr = u8g2->tile_buf_ptr;
  ptr += offset;
  ptr += x;
    2b40:	d0 89       	ldd	r29, Z+16	; 0x10
    2b42:	d4 9f       	mul	r29, r20
    2b44:	f0 01       	movw	r30, r0
    2b46:	d5 9f       	mul	r29, r21
    2b48:	f0 0d       	add	r31, r0
    2b4a:	11 24       	eor	r1, r1
    2b4c:	e6 0f       	add	r30, r22
    2b4e:	f1 1d       	adc	r31, r1
    2b50:	e8 0f       	add	r30, r24
    2b52:	f9 1f       	adc	r31, r25
  
  if ( dir == 0 )
    2b54:	01 11       	cpse	r16, r1
    2b56:	07 c0       	rjmp	.+14     	; 0x2b66 <u8g2_ll_hvline_vertical_top_lsb+0x76>
      {
#ifdef __unix
	assert(ptr < max_ptr);
#endif
	*ptr |= or_mask;
	*ptr ^= xor_mask;
    2b58:	80 81       	ld	r24, Z
    2b5a:	87 2b       	or	r24, r23
    2b5c:	8c 27       	eor	r24, r28
    2b5e:	81 93       	st	Z+, r24
	ptr++;
	len--;
    2b60:	21 50       	subi	r18, 0x01	; 1
      } while( len != 0 );
    2b62:	d1 f7       	brne	.-12     	; 0x2b58 <u8g2_ll_hvline_vertical_top_lsb+0x68>
    2b64:	22 c0       	rjmp	.+68     	; 0x2baa <u8g2_ll_hvline_vertical_top_lsb+0xba>

      if ( bit_pos == 0 )
      {
	ptr+=u8g2->pixel_buf_width;	/* 6 Jan 17: Changed u8g2->width to u8g2->pixel_buf_width, issue #148 */
		
	if ( u8g2->draw_color <= 1 )
    2b66:	a7 01       	movw	r20, r14
    2b68:	4c 59       	subi	r20, 0x9C	; 156
    2b6a:	5f 4f       	sbci	r21, 0xFF	; 255
    {
#ifdef __unix
      assert(ptr < max_ptr);
#endif
      *ptr |= or_mask;
      *ptr ^= xor_mask;
    2b6c:	90 81       	ld	r25, Z
    2b6e:	97 2b       	or	r25, r23
    2b70:	9c 27       	eor	r25, r28
    2b72:	90 83       	st	Z, r25
      
      bit_pos++;
    2b74:	3f 5f       	subi	r19, 0xFF	; 255
      bit_pos &= 7;
    2b76:	37 70       	andi	r19, 0x07	; 7

      len--;
    2b78:	21 50       	subi	r18, 0x01	; 1

      if ( bit_pos == 0 )
    2b7a:	31 11       	cpse	r19, r1
    2b7c:	0e c0       	rjmp	.+28     	; 0x2b9a <u8g2_ll_hvline_vertical_top_lsb+0xaa>
      {
	ptr+=u8g2->pixel_buf_width;	/* 6 Jan 17: Changed u8g2->width to u8g2->pixel_buf_width, issue #148 */
    2b7e:	d7 01       	movw	r26, r14
    2b80:	97 96       	adiw	r26, 0x27	; 39
    2b82:	8c 91       	ld	r24, X
    2b84:	e8 0f       	add	r30, r24
    2b86:	f1 1d       	adc	r31, r1
		
	if ( u8g2->draw_color <= 1 )
    2b88:	da 01       	movw	r26, r20
    2b8a:	8c 91       	ld	r24, X
    2b8c:	82 30       	cpi	r24, 0x02	; 2
    2b8e:	40 f4       	brcc	.+16     	; 0x2ba0 <u8g2_ll_hvline_vertical_top_lsb+0xb0>
	  or_mask  = 1;
	if ( u8g2->draw_color != 1 )
    2b90:	81 30       	cpi	r24, 0x01	; 1
    2b92:	41 f0       	breq	.+16     	; 0x2ba4 <u8g2_ll_hvline_vertical_top_lsb+0xb4>
	  xor_mask = 1;
    2b94:	c1 e0       	ldi	r28, 0x01	; 1
      if ( bit_pos == 0 )
      {
	ptr+=u8g2->pixel_buf_width;	/* 6 Jan 17: Changed u8g2->width to u8g2->pixel_buf_width, issue #148 */
		
	if ( u8g2->draw_color <= 1 )
	  or_mask  = 1;
    2b96:	71 e0       	ldi	r23, 0x01	; 1
    2b98:	06 c0       	rjmp	.+12     	; 0x2ba6 <u8g2_ll_hvline_vertical_top_lsb+0xb6>
	if ( u8g2->draw_color != 1 )
	  xor_mask = 1;
      }
      else
      {
	or_mask <<= 1;
    2b9a:	77 0f       	add	r23, r23
	xor_mask <<= 1;
    2b9c:	cc 0f       	add	r28, r28
    2b9e:	03 c0       	rjmp	.+6      	; 0x2ba6 <u8g2_ll_hvline_vertical_top_lsb+0xb6>
	ptr+=u8g2->pixel_buf_width;	/* 6 Jan 17: Changed u8g2->width to u8g2->pixel_buf_width, issue #148 */
		
	if ( u8g2->draw_color <= 1 )
	  or_mask  = 1;
	if ( u8g2->draw_color != 1 )
	  xor_mask = 1;
    2ba0:	c1 e0       	ldi	r28, 0x01	; 1
    2ba2:	01 c0       	rjmp	.+2      	; 0x2ba6 <u8g2_ll_hvline_vertical_top_lsb+0xb6>
      if ( bit_pos == 0 )
      {
	ptr+=u8g2->pixel_buf_width;	/* 6 Jan 17: Changed u8g2->width to u8g2->pixel_buf_width, issue #148 */
		
	if ( u8g2->draw_color <= 1 )
	  or_mask  = 1;
    2ba4:	71 e0       	ldi	r23, 0x01	; 1
      else
      {
	or_mask <<= 1;
	xor_mask <<= 1;
      }
    } while( len != 0 );
    2ba6:	21 11       	cpse	r18, r1
    2ba8:	e1 cf       	rjmp	.-62     	; 0x2b6c <u8g2_ll_hvline_vertical_top_lsb+0x7c>
  }
}
    2baa:	df 91       	pop	r29
    2bac:	cf 91       	pop	r28
    2bae:	0f 91       	pop	r16
    2bb0:	ff 90       	pop	r15
    2bb2:	ef 90       	pop	r14
    2bb4:	08 95       	ret

00002bb6 <u8g2_update_dimension_common>:
  u8g2->clip_x0 = clip_x0;
  u8g2->clip_y0 = clip_y0;
  u8g2->clip_x1 = clip_x1;
  u8g2->clip_y1 = clip_y1;
  u8g2->cb->update_page_win(u8g2);
}
    2bb6:	fc 01       	movw	r30, r24
    2bb8:	a0 81       	ld	r26, Z
    2bba:	b1 81       	ldd	r27, Z+1	; 0x01
    2bbc:	85 a1       	ldd	r24, Z+37	; 0x25
    2bbe:	98 2f       	mov	r25, r24
    2bc0:	99 0f       	add	r25, r25
    2bc2:	99 0f       	add	r25, r25
    2bc4:	99 0f       	add	r25, r25
    2bc6:	90 a7       	std	Z+40, r25	; 0x28
    2bc8:	50 96       	adiw	r26, 0x10	; 16
    2bca:	9c 91       	ld	r25, X
    2bcc:	50 97       	sbiw	r26, 0x10	; 16
    2bce:	90 32       	cpi	r25, 0x20	; 32
    2bd0:	08 f0       	brcs	.+2      	; 0x2bd4 <u8g2_update_dimension_common+0x1e>
    2bd2:	9f e1       	ldi	r25, 0x1F	; 31
    2bd4:	99 0f       	add	r25, r25
    2bd6:	99 0f       	add	r25, r25
    2bd8:	99 0f       	add	r25, r25
    2bda:	97 a3       	std	Z+39, r25	; 0x27
    2bdc:	46 a1       	ldd	r20, Z+38	; 0x26
    2bde:	94 2f       	mov	r25, r20
    2be0:	99 0f       	add	r25, r25
    2be2:	99 0f       	add	r25, r25
    2be4:	99 0f       	add	r25, r25
    2be6:	91 a7       	std	Z+41, r25	; 0x29
    2be8:	51 96       	adiw	r26, 0x11	; 17
    2bea:	5c 91       	ld	r21, X
    2bec:	51 97       	sbiw	r26, 0x11	; 17
    2bee:	24 2f       	mov	r18, r20
    2bf0:	30 e0       	ldi	r19, 0x00	; 0
    2bf2:	28 0f       	add	r18, r24
    2bf4:	31 1d       	adc	r19, r1
    2bf6:	65 2f       	mov	r22, r21
    2bf8:	70 e0       	ldi	r23, 0x00	; 0
    2bfa:	62 17       	cp	r22, r18
    2bfc:	73 07       	cpc	r23, r19
    2bfe:	14 f4       	brge	.+4      	; 0x2c04 <u8g2_update_dimension_common+0x4e>
    2c00:	85 2f       	mov	r24, r21
    2c02:	84 1b       	sub	r24, r20
    2c04:	92 a7       	std	Z+42, r25	; 0x2a
    2c06:	88 0f       	add	r24, r24
    2c08:	88 0f       	add	r24, r24
    2c0a:	88 0f       	add	r24, r24
    2c0c:	89 0f       	add	r24, r25
    2c0e:	83 a7       	std	Z+43, r24	; 0x2b
    2c10:	80 ef       	ldi	r24, 0xF0	; 240
    2c12:	84 a7       	std	Z+44, r24	; 0x2c
    2c14:	54 96       	adiw	r26, 0x14	; 20
    2c16:	8d 91       	ld	r24, X+
    2c18:	9c 91       	ld	r25, X
    2c1a:	55 97       	sbiw	r26, 0x15	; 21
    2c1c:	81 3f       	cpi	r24, 0xF1	; 241
    2c1e:	91 05       	cpc	r25, r1
    2c20:	08 f4       	brcc	.+2      	; 0x2c24 <u8g2_update_dimension_common+0x6e>
    2c22:	84 a7       	std	Z+44, r24	; 0x2c
    2c24:	56 96       	adiw	r26, 0x16	; 22
    2c26:	8c 91       	ld	r24, X
    2c28:	85 a7       	std	Z+45, r24	; 0x2d
    2c2a:	08 95       	ret

00002c2c <u8g2_update_dimension_r0>:
    2c2c:	c4 cf       	rjmp	.-120    	; 0x2bb6 <u8g2_update_dimension_common>
    2c2e:	08 95       	ret

00002c30 <u8g2_apply_clip_window>:
    2c30:	0f 93       	push	r16
    2c32:	cf 93       	push	r28
    2c34:	df 93       	push	r29
    2c36:	ec 01       	movw	r28, r24
    2c38:	0d a9       	ldd	r16, Y+53	; 0x35
    2c3a:	2b a9       	ldd	r18, Y+51	; 0x33
    2c3c:	4c a9       	ldd	r20, Y+52	; 0x34
    2c3e:	6a a9       	ldd	r22, Y+50	; 0x32
    2c40:	3e df       	rcall	.-388    	; 0x2abe <u8g2_IsIntersection>
    2c42:	81 11       	cpse	r24, r1
    2c44:	04 c0       	rjmp	.+8      	; 0x2c4e <u8g2_apply_clip_window+0x1e>
    2c46:	c2 5a       	subi	r28, 0xA2	; 162
    2c48:	df 4f       	sbci	r29, 0xFF	; 255
    2c4a:	18 82       	st	Y, r1
    2c4c:	19 c0       	rjmp	.+50     	; 0x2c80 <u8g2_apply_clip_window+0x50>
    2c4e:	81 e0       	ldi	r24, 0x01	; 1
    2c50:	fe 01       	movw	r30, r28
    2c52:	e2 5a       	subi	r30, 0xA2	; 162
    2c54:	ff 4f       	sbci	r31, 0xFF	; 255
    2c56:	80 83       	st	Z, r24
    2c58:	8a a9       	ldd	r24, Y+50	; 0x32
    2c5a:	9e a5       	ldd	r25, Y+46	; 0x2e
    2c5c:	98 17       	cp	r25, r24
    2c5e:	08 f4       	brcc	.+2      	; 0x2c62 <u8g2_apply_clip_window+0x32>
    2c60:	8e a7       	std	Y+46, r24	; 0x2e
    2c62:	8b a9       	ldd	r24, Y+51	; 0x33
    2c64:	9f a5       	ldd	r25, Y+47	; 0x2f
    2c66:	89 17       	cp	r24, r25
    2c68:	08 f4       	brcc	.+2      	; 0x2c6c <u8g2_apply_clip_window+0x3c>
    2c6a:	8f a7       	std	Y+47, r24	; 0x2f
    2c6c:	8c a9       	ldd	r24, Y+52	; 0x34
    2c6e:	98 a9       	ldd	r25, Y+48	; 0x30
    2c70:	98 17       	cp	r25, r24
    2c72:	08 f4       	brcc	.+2      	; 0x2c76 <u8g2_apply_clip_window+0x46>
    2c74:	88 ab       	std	Y+48, r24	; 0x30
    2c76:	8d a9       	ldd	r24, Y+53	; 0x35
    2c78:	99 a9       	ldd	r25, Y+49	; 0x31
    2c7a:	89 17       	cp	r24, r25
    2c7c:	08 f4       	brcc	.+2      	; 0x2c80 <u8g2_apply_clip_window+0x50>
    2c7e:	89 ab       	std	Y+49, r24	; 0x31
    2c80:	df 91       	pop	r29
    2c82:	cf 91       	pop	r28
    2c84:	0f 91       	pop	r16
    2c86:	08 95       	ret

00002c88 <u8g2_update_page_win_r0>:
    2c88:	fc 01       	movw	r30, r24
    2c8a:	16 a6       	std	Z+46, r1	; 0x2e
    2c8c:	84 a5       	ldd	r24, Z+44	; 0x2c
    2c8e:	87 a7       	std	Z+47, r24	; 0x2f
    2c90:	82 a5       	ldd	r24, Z+42	; 0x2a
    2c92:	80 ab       	std	Z+48, r24	; 0x30
    2c94:	83 a5       	ldd	r24, Z+43	; 0x2b
    2c96:	81 ab       	std	Z+49, r24	; 0x31
    2c98:	cf 01       	movw	r24, r30
    2c9a:	ca cf       	rjmp	.-108    	; 0x2c30 <u8g2_apply_clip_window>
    2c9c:	08 95       	ret

00002c9e <u8g2_draw_l90_r0>:
    2c9e:	0f 93       	push	r16
    2ca0:	7e de       	rcall	.-772    	; 0x299e <u8g2_draw_hv_line_2dir>
    2ca2:	0f 91       	pop	r16
    2ca4:	08 95       	ret

00002ca6 <u8g2_SetMaxClipWindow>:
    2ca6:	dc 01       	movw	r26, r24
    2ca8:	d2 96       	adiw	r26, 0x32	; 50
    2caa:	1c 92       	st	X, r1
    2cac:	d2 97       	sbiw	r26, 0x32	; 50
    2cae:	d4 96       	adiw	r26, 0x34	; 52
    2cb0:	1c 92       	st	X, r1
    2cb2:	d4 97       	sbiw	r26, 0x34	; 52
    2cb4:	8f ef       	ldi	r24, 0xFF	; 255
    2cb6:	d3 96       	adiw	r26, 0x33	; 51
    2cb8:	8c 93       	st	X, r24
    2cba:	d3 97       	sbiw	r26, 0x33	; 51
    2cbc:	d5 96       	adiw	r26, 0x35	; 53
    2cbe:	8c 93       	st	X, r24
    2cc0:	d5 97       	sbiw	r26, 0x35	; 53
    2cc2:	91 96       	adiw	r26, 0x21	; 33
    2cc4:	ed 91       	ld	r30, X+
    2cc6:	fc 91       	ld	r31, X
    2cc8:	92 97       	sbiw	r26, 0x22	; 34
    2cca:	02 80       	ldd	r0, Z+2	; 0x02
    2ccc:	f3 81       	ldd	r31, Z+3	; 0x03
    2cce:	e0 2d       	mov	r30, r0
    2cd0:	cd 01       	movw	r24, r26
    2cd2:	09 95       	icall
    2cd4:	08 95       	ret

00002cd6 <u8g2_SetupBuffer>:
/*
  This procedure is called after setting up the display (u8x8 structure).
  --> This is the central init procedure for u8g2 object
*/
void u8g2_SetupBuffer(u8g2_t *u8g2, uint8_t *buf, uint8_t tile_buf_height, u8g2_draw_ll_hvline_cb ll_hvline_cb, const u8g2_cb_t *u8g2_cb)
{
    2cd6:	0f 93       	push	r16
    2cd8:	1f 93       	push	r17
    2cda:	cf 93       	push	r28
    2cdc:	df 93       	push	r29
    2cde:	ec 01       	movw	r28, r24
  u8g2->font = NULL;
    2ce0:	1f aa       	std	Y+55, r1	; 0x37
    2ce2:	1e aa       	std	Y+54, r1	; 0x36
  //u8g2->kerning = NULL;
  //u8g2->get_kerning_cb = u8g2_GetNullKerning;
  
  //u8g2->ll_hvline = u8g2_ll_hvline_vertical_top_lsb;
  u8g2->ll_hvline = ll_hvline_cb;
    2ce4:	38 a3       	std	Y+32, r19	; 0x20
    2ce6:	2f 8f       	std	Y+31, r18	; 0x1f
  
  u8g2->tile_buf_ptr = buf;
    2ce8:	7c a3       	std	Y+36, r23	; 0x24
    2cea:	6b a3       	std	Y+35, r22	; 0x23
  u8g2->tile_buf_height = tile_buf_height;
    2cec:	4d a3       	std	Y+37, r20	; 0x25
  
  u8g2->tile_curr_row = 0;
    2cee:	1e a2       	std	Y+38, r1	; 0x26
  
  u8g2->font_decode.is_transparent = 0; /* issue 443 */
    2cf0:	fc 01       	movw	r30, r24
    2cf2:	ed 5b       	subi	r30, 0xBD	; 189
    2cf4:	ff 4f       	sbci	r31, 0xFF	; 255
    2cf6:	10 82       	st	Z, r1
  u8g2->bitmap_transparency = 0;
    2cf8:	b0 96       	adiw	r30, 0x20	; 32
    2cfa:	10 82       	st	Z, r1
  
  u8g2->draw_color = 1;
    2cfc:	31 96       	adiw	r30, 0x01	; 1
    2cfe:	81 e0       	ldi	r24, 0x01	; 1
    2d00:	80 83       	st	Z, r24
  u8g2->is_auto_page_clear = 1;
    2d02:	31 96       	adiw	r30, 0x01	; 1
    2d04:	80 83       	st	Z, r24
  
  u8g2->cb = u8g2_cb;
    2d06:	1a a3       	std	Y+34, r17	; 0x22
    2d08:	09 a3       	std	Y+33, r16	; 0x21
  u8g2->cb->update_dimension(u8g2);
    2d0a:	d8 01       	movw	r26, r16
    2d0c:	ed 91       	ld	r30, X+
    2d0e:	fc 91       	ld	r31, X
    2d10:	ce 01       	movw	r24, r28
    2d12:	09 95       	icall
#ifdef U8G2_WITH_CLIP_WINDOW_SUPPORT
  u8g2_SetMaxClipWindow(u8g2);		/* assign a clip window and call the update() procedure */
    2d14:	ce 01       	movw	r24, r28
    2d16:	c7 df       	rcall	.-114    	; 0x2ca6 <u8g2_SetMaxClipWindow>
#else
  u8g2->cb->update_page_win(u8g2);
#endif

  u8g2_SetFontPosBaseline(u8g2);  /* issue 195 */
    2d18:	ce 01       	movw	r24, r28
    2d1a:	28 de       	rcall	.-944    	; 0x296c <u8g2_SetFontPosBaseline>
  
#ifdef U8G2_WITH_FONT_ROTATION  
  u8g2->font_decode.dir = 0;
    2d1c:	ca 5b       	subi	r28, 0xBA	; 186
    2d1e:	df 4f       	sbci	r29, 0xFF	; 255
    2d20:	18 82       	st	Y, r1
#endif
}
    2d22:	df 91       	pop	r29
    2d24:	cf 91       	pop	r28
    2d26:	1f 91       	pop	r17
    2d28:	0f 91       	pop	r16
    2d2a:	08 95       	ret

00002d2c <u8x8_utf8_next>:
      x++;
      cnt++;
    }
  }
  return cnt;
}
    2d2c:	66 23       	and	r22, r22
    2d2e:	09 f4       	brne	.+2      	; 0x2d32 <u8x8_utf8_next+0x6>
    2d30:	4b c0       	rjmp	.+150    	; 0x2dc8 <u8x8_utf8_next+0x9c>
    2d32:	6a 30       	cpi	r22, 0x0A	; 10
    2d34:	09 f4       	brne	.+2      	; 0x2d38 <u8x8_utf8_next+0xc>
    2d36:	4b c0       	rjmp	.+150    	; 0x2dce <u8x8_utf8_next+0xa2>
    2d38:	fc 01       	movw	r30, r24
    2d3a:	21 8d       	ldd	r18, Z+25	; 0x19
    2d3c:	21 11       	cpse	r18, r1
    2d3e:	2b c0       	rjmp	.+86     	; 0x2d96 <u8x8_utf8_next+0x6a>
    2d40:	6c 3f       	cpi	r22, 0xFC	; 252
    2d42:	20 f0       	brcs	.+8      	; 0x2d4c <u8x8_utf8_next+0x20>
    2d44:	25 e0       	ldi	r18, 0x05	; 5
    2d46:	21 8f       	std	Z+25, r18	; 0x19
    2d48:	61 70       	andi	r22, 0x01	; 1
    2d4a:	1e c0       	rjmp	.+60     	; 0x2d88 <u8x8_utf8_next+0x5c>
    2d4c:	68 3f       	cpi	r22, 0xF8	; 248
    2d4e:	28 f0       	brcs	.+10     	; 0x2d5a <u8x8_utf8_next+0x2e>
    2d50:	24 e0       	ldi	r18, 0x04	; 4
    2d52:	fc 01       	movw	r30, r24
    2d54:	21 8f       	std	Z+25, r18	; 0x19
    2d56:	63 70       	andi	r22, 0x03	; 3
    2d58:	17 c0       	rjmp	.+46     	; 0x2d88 <u8x8_utf8_next+0x5c>
    2d5a:	60 3f       	cpi	r22, 0xF0	; 240
    2d5c:	28 f0       	brcs	.+10     	; 0x2d68 <u8x8_utf8_next+0x3c>
    2d5e:	23 e0       	ldi	r18, 0x03	; 3
    2d60:	fc 01       	movw	r30, r24
    2d62:	21 8f       	std	Z+25, r18	; 0x19
    2d64:	67 70       	andi	r22, 0x07	; 7
    2d66:	10 c0       	rjmp	.+32     	; 0x2d88 <u8x8_utf8_next+0x5c>
    2d68:	60 3e       	cpi	r22, 0xE0	; 224
    2d6a:	28 f0       	brcs	.+10     	; 0x2d76 <u8x8_utf8_next+0x4a>
    2d6c:	22 e0       	ldi	r18, 0x02	; 2
    2d6e:	fc 01       	movw	r30, r24
    2d70:	21 8f       	std	Z+25, r18	; 0x19
    2d72:	6f 70       	andi	r22, 0x0F	; 15
    2d74:	09 c0       	rjmp	.+18     	; 0x2d88 <u8x8_utf8_next+0x5c>
    2d76:	60 3c       	cpi	r22, 0xC0	; 192
    2d78:	28 f0       	brcs	.+10     	; 0x2d84 <u8x8_utf8_next+0x58>
    2d7a:	21 e0       	ldi	r18, 0x01	; 1
    2d7c:	fc 01       	movw	r30, r24
    2d7e:	21 8f       	std	Z+25, r18	; 0x19
    2d80:	6f 71       	andi	r22, 0x1F	; 31
    2d82:	02 c0       	rjmp	.+4      	; 0x2d88 <u8x8_utf8_next+0x5c>
    2d84:	70 e0       	ldi	r23, 0x00	; 0
    2d86:	28 c0       	rjmp	.+80     	; 0x2dd8 <u8x8_utf8_next+0xac>
    2d88:	70 e0       	ldi	r23, 0x00	; 0
    2d8a:	fc 01       	movw	r30, r24
    2d8c:	73 8b       	std	Z+19, r23	; 0x13
    2d8e:	62 8b       	std	Z+18, r22	; 0x12
    2d90:	6e ef       	ldi	r22, 0xFE	; 254
    2d92:	7f ef       	ldi	r23, 0xFF	; 255
    2d94:	21 c0       	rjmp	.+66     	; 0x2dd8 <u8x8_utf8_next+0xac>
    2d96:	4f ef       	ldi	r20, 0xFF	; 255
    2d98:	42 0f       	add	r20, r18
    2d9a:	fc 01       	movw	r30, r24
    2d9c:	41 8f       	std	Z+25, r20	; 0x19
    2d9e:	22 89       	ldd	r18, Z+18	; 0x12
    2da0:	33 89       	ldd	r19, Z+19	; 0x13
    2da2:	00 24       	eor	r0, r0
    2da4:	36 95       	lsr	r19
    2da6:	27 95       	ror	r18
    2da8:	07 94       	ror	r0
    2daa:	36 95       	lsr	r19
    2dac:	27 95       	ror	r18
    2dae:	07 94       	ror	r0
    2db0:	32 2f       	mov	r19, r18
    2db2:	20 2d       	mov	r18, r0
    2db4:	6f 73       	andi	r22, 0x3F	; 63
    2db6:	f9 01       	movw	r30, r18
    2db8:	e6 2b       	or	r30, r22
    2dba:	bf 01       	movw	r22, r30
    2dbc:	fc 01       	movw	r30, r24
    2dbe:	73 8b       	std	Z+19, r23	; 0x13
    2dc0:	62 8b       	std	Z+18, r22	; 0x12
    2dc2:	41 11       	cpse	r20, r1
    2dc4:	07 c0       	rjmp	.+14     	; 0x2dd4 <u8x8_utf8_next+0xa8>
    2dc6:	08 c0       	rjmp	.+16     	; 0x2dd8 <u8x8_utf8_next+0xac>
    2dc8:	6f ef       	ldi	r22, 0xFF	; 255
    2dca:	7f ef       	ldi	r23, 0xFF	; 255
    2dcc:	05 c0       	rjmp	.+10     	; 0x2dd8 <u8x8_utf8_next+0xac>
    2dce:	6f ef       	ldi	r22, 0xFF	; 255
    2dd0:	7f ef       	ldi	r23, 0xFF	; 255
    2dd2:	02 c0       	rjmp	.+4      	; 0x2dd8 <u8x8_utf8_next+0xac>
    2dd4:	6e ef       	ldi	r22, 0xFE	; 254
    2dd6:	7f ef       	ldi	r23, 0xFF	; 255
    2dd8:	cb 01       	movw	r24, r22
    2dda:	08 95       	ret

00002ddc <u8x8_utf8_init>:
*/

/* reset the internal state machine */
void u8x8_utf8_init(u8x8_t *u8x8)
{
  u8x8->utf8_state = 0;	/* also reset during u8x8_SetupDefaults() */
    2ddc:	fc 01       	movw	r30, r24
    2dde:	11 8e       	std	Z+25, r1	; 0x19
    2de0:	08 95       	ret

00002de2 <u8x8_byte_SetDC>:
      break;
    default:
      return 0;
  }
  return 1;
}
    2de2:	46 2f       	mov	r20, r22
    2de4:	dc 01       	movw	r26, r24
    2de6:	18 96       	adiw	r26, 0x08	; 8
    2de8:	ed 91       	ld	r30, X+
    2dea:	fc 91       	ld	r31, X
    2dec:	19 97       	sbiw	r26, 0x09	; 9
    2dee:	20 e0       	ldi	r18, 0x00	; 0
    2df0:	30 e0       	ldi	r19, 0x00	; 0
    2df2:	60 e2       	ldi	r22, 0x20	; 32
    2df4:	09 95       	icall
    2df6:	08 95       	ret

00002df8 <u8x8_byte_SendBytes>:
    2df8:	9a 01       	movw	r18, r20
    2dfa:	dc 01       	movw	r26, r24
    2dfc:	18 96       	adiw	r26, 0x08	; 8
    2dfe:	ed 91       	ld	r30, X+
    2e00:	fc 91       	ld	r31, X
    2e02:	19 97       	sbiw	r26, 0x09	; 9
    2e04:	46 2f       	mov	r20, r22
    2e06:	67 e1       	ldi	r22, 0x17	; 23
    2e08:	09 95       	icall
    2e0a:	08 95       	ret

00002e0c <u8x8_byte_SendByte>:
    2e0c:	cf 93       	push	r28
    2e0e:	df 93       	push	r29
    2e10:	1f 92       	push	r1
    2e12:	cd b7       	in	r28, 0x3d	; 61
    2e14:	de b7       	in	r29, 0x3e	; 62
    2e16:	69 83       	std	Y+1, r22	; 0x01
    2e18:	ae 01       	movw	r20, r28
    2e1a:	4f 5f       	subi	r20, 0xFF	; 255
    2e1c:	5f 4f       	sbci	r21, 0xFF	; 255
    2e1e:	61 e0       	ldi	r22, 0x01	; 1
    2e20:	eb df       	rcall	.-42     	; 0x2df8 <u8x8_byte_SendBytes>
    2e22:	0f 90       	pop	r0
    2e24:	df 91       	pop	r29
    2e26:	cf 91       	pop	r28
    2e28:	08 95       	ret

00002e2a <u8x8_byte_sed1520>:
/* sed1520 or sbn1661 
  U8X8_MSG_GPIO_E --> E1
  U8X8_MSG_GPIO_CS --> E2
*/
uint8_t u8x8_byte_sed1520(u8x8_t *u8x8, uint8_t msg, uint8_t arg_int, void *arg_ptr)
{
    2e2a:	cf 92       	push	r12
    2e2c:	df 92       	push	r13
    2e2e:	ef 92       	push	r14
    2e30:	ff 92       	push	r15
    2e32:	0f 93       	push	r16
    2e34:	1f 93       	push	r17
    2e36:	cf 93       	push	r28
    2e38:	df 93       	push	r29
    2e3a:	8c 01       	movw	r16, r24
    2e3c:	79 01       	movw	r14, r18
  uint8_t i, b;
  uint8_t *data;
  static uint8_t enable_pin;
 
  switch(msg)
    2e3e:	68 31       	cpi	r22, 0x18	; 24
    2e40:	09 f4       	brne	.+2      	; 0x2e44 <u8x8_byte_sed1520+0x1a>
    2e42:	5f c0       	rjmp	.+190    	; 0x2f02 <u8x8_byte_sed1520+0xd8>
    2e44:	30 f4       	brcc	.+12     	; 0x2e52 <u8x8_byte_sed1520+0x28>
    2e46:	64 31       	cpi	r22, 0x14	; 20
    2e48:	09 f4       	brne	.+2      	; 0x2e4c <u8x8_byte_sed1520+0x22>
    2e4a:	44 c0       	rjmp	.+136    	; 0x2ed4 <u8x8_byte_sed1520+0xaa>
    2e4c:	67 31       	cpi	r22, 0x17	; 23
    2e4e:	49 f0       	breq	.+18     	; 0x2e62 <u8x8_byte_sed1520+0x38>
    2e50:	64 c0       	rjmp	.+200    	; 0x2f1a <u8x8_byte_sed1520+0xf0>
    2e52:	69 31       	cpi	r22, 0x19	; 25
    2e54:	21 f0       	breq	.+8      	; 0x2e5e <u8x8_byte_sed1520+0x34>
    2e56:	60 32       	cpi	r22, 0x20	; 32
    2e58:	09 f4       	brne	.+2      	; 0x2e5c <u8x8_byte_sed1520+0x32>
    2e5a:	4f c0       	rjmp	.+158    	; 0x2efa <u8x8_byte_sed1520+0xd0>
    2e5c:	5e c0       	rjmp	.+188    	; 0x2f1a <u8x8_byte_sed1520+0xf0>
    case U8X8_MSG_BYTE_END_TRANSFER:
      break;
    default:
      return 0;
  }
  return 1;
    2e5e:	81 e0       	ldi	r24, 0x01	; 1
    2e60:	5f c0       	rjmp	.+190    	; 0x2f20 <u8x8_byte_sed1520+0xf6>
 
  switch(msg)
  {
    case U8X8_MSG_BYTE_SEND:
      data = (uint8_t *)arg_ptr;
      while( arg_int > 0 )
    2e62:	44 23       	and	r20, r20
    2e64:	09 f4       	brne	.+2      	; 0x2e68 <u8x8_byte_sed1520+0x3e>
    2e66:	5b c0       	rjmp	.+182    	; 0x2f1e <u8x8_byte_sed1520+0xf4>
    2e68:	41 50       	subi	r20, 0x01	; 1
    2e6a:	c4 2e       	mov	r12, r20
    2e6c:	d1 2c       	mov	r13, r1
    2e6e:	8f ef       	ldi	r24, 0xFF	; 255
    2e70:	c8 1a       	sub	r12, r24
    2e72:	d8 0a       	sbc	r13, r24
    2e74:	c2 0e       	add	r12, r18
    2e76:	d3 1e       	adc	r13, r19
      {
	b = *data;
    2e78:	d7 01       	movw	r26, r14
    2e7a:	dd 91       	ld	r29, X+
    2e7c:	7d 01       	movw	r14, r26
	data++;
	arg_int--;
	for( i = U8X8_MSG_GPIO_D0; i <= U8X8_MSG_GPIO_D7; i++ )
    2e7e:	c0 e4       	ldi	r28, 0x40	; 64
	{
	  u8x8_gpio_call(u8x8, i, b&1);
    2e80:	4d 2f       	mov	r20, r29
    2e82:	41 70       	andi	r20, 0x01	; 1
    2e84:	6c 2f       	mov	r22, r28
    2e86:	c8 01       	movw	r24, r16
    2e88:	5b d2       	rcall	.+1206   	; 0x3340 <u8x8_gpio_call>
	  b >>= 1;
    2e8a:	d6 95       	lsr	r29
      while( arg_int > 0 )
      {
	b = *data;
	data++;
	arg_int--;
	for( i = U8X8_MSG_GPIO_D0; i <= U8X8_MSG_GPIO_D7; i++ )
    2e8c:	cf 5f       	subi	r28, 0xFF	; 255
    2e8e:	c8 34       	cpi	r28, 0x48	; 72
    2e90:	b9 f7       	brne	.-18     	; 0x2e80 <u8x8_byte_sed1520+0x56>
	{
	  u8x8_gpio_call(u8x8, i, b&1);
	  b >>= 1;
	}    
	
	u8x8_gpio_Delay(u8x8, U8X8_MSG_DELAY_NANO, u8x8->display_info->data_setup_time_ns);
    2e92:	d8 01       	movw	r26, r16
    2e94:	ed 91       	ld	r30, X+
    2e96:	fc 91       	ld	r31, X
    2e98:	46 85       	ldd	r20, Z+14	; 0x0e
    2e9a:	6c e2       	ldi	r22, 0x2C	; 44
    2e9c:	c8 01       	movw	r24, r16
    2e9e:	50 d2       	rcall	.+1184   	; 0x3340 <u8x8_gpio_call>
	u8x8_gpio_call(u8x8, enable_pin, 1);
    2ea0:	41 e0       	ldi	r20, 0x01	; 1
    2ea2:	60 91 44 03 	lds	r22, 0x0344	; 0x800344 <enable_pin.2989>
    2ea6:	c8 01       	movw	r24, r16
    2ea8:	4b d2       	rcall	.+1174   	; 0x3340 <u8x8_gpio_call>
	u8x8_gpio_Delay(u8x8, U8X8_MSG_DELAY_NANO, 200);		/* KS0108 requires 450 ns, use 200 here */
    2eaa:	48 ec       	ldi	r20, 0xC8	; 200
    2eac:	6c e2       	ldi	r22, 0x2C	; 44
    2eae:	c8 01       	movw	r24, r16
    2eb0:	47 d2       	rcall	.+1166   	; 0x3340 <u8x8_gpio_call>
	u8x8_gpio_Delay(u8x8, U8X8_MSG_DELAY_NANO, u8x8->display_info->write_pulse_width_ns);  /* expect 250 here */
    2eb2:	d8 01       	movw	r26, r16
    2eb4:	ed 91       	ld	r30, X+
    2eb6:	fc 91       	ld	r31, X
    2eb8:	47 85       	ldd	r20, Z+15	; 0x0f
    2eba:	6c e2       	ldi	r22, 0x2C	; 44
    2ebc:	c8 01       	movw	r24, r16
    2ebe:	40 d2       	rcall	.+1152   	; 0x3340 <u8x8_gpio_call>
	u8x8_gpio_call(u8x8, enable_pin, 0);
    2ec0:	40 e0       	ldi	r20, 0x00	; 0
    2ec2:	60 91 44 03 	lds	r22, 0x0344	; 0x800344 <enable_pin.2989>
    2ec6:	c8 01       	movw	r24, r16
    2ec8:	3b d2       	rcall	.+1142   	; 0x3340 <u8x8_gpio_call>
    2eca:	ec 14       	cp	r14, r12
 
  switch(msg)
  {
    case U8X8_MSG_BYTE_SEND:
      data = (uint8_t *)arg_ptr;
      while( arg_int > 0 )
    2ecc:	fd 04       	cpc	r15, r13
    2ece:	a1 f6       	brne	.-88     	; 0x2e78 <u8x8_byte_sed1520+0x4e>
    2ed0:	81 e0       	ldi	r24, 0x01	; 1
    case U8X8_MSG_BYTE_END_TRANSFER:
      break;
    default:
      return 0;
  }
  return 1;
    2ed2:	26 c0       	rjmp	.+76     	; 0x2f20 <u8x8_byte_sed1520+0xf6>
      }
      break;
      
    case U8X8_MSG_BYTE_INIT:
      /* disable chipselect */
      u8x8_gpio_SetCS(u8x8, u8x8->display_info->chip_disable_level);    
    2ed4:	dc 01       	movw	r26, r24
    2ed6:	ed 91       	ld	r30, X+
    2ed8:	fc 91       	ld	r31, X
    2eda:	41 81       	ldd	r20, Z+1	; 0x01
    2edc:	69 e4       	ldi	r22, 0x49	; 73
    2ede:	30 d2       	rcall	.+1120   	; 0x3340 <u8x8_gpio_call>
      /* ensure that the enable signals are low */
      u8x8_gpio_call(u8x8, U8X8_MSG_GPIO_E, 0);
    2ee0:	40 e0       	ldi	r20, 0x00	; 0
    2ee2:	68 e4       	ldi	r22, 0x48	; 72
    2ee4:	c8 01       	movw	r24, r16
    2ee6:	2c d2       	rcall	.+1112   	; 0x3340 <u8x8_gpio_call>
      u8x8_gpio_call(u8x8, U8X8_MSG_GPIO_CS, 0);
    2ee8:	40 e0       	ldi	r20, 0x00	; 0
    2eea:	69 e4       	ldi	r22, 0x49	; 73
    2eec:	c8 01       	movw	r24, r16
    2eee:	28 d2       	rcall	.+1104   	; 0x3340 <u8x8_gpio_call>
      enable_pin = U8X8_MSG_GPIO_E;
    2ef0:	88 e4       	ldi	r24, 0x48	; 72
    2ef2:	80 93 44 03 	sts	0x0344, r24	; 0x800344 <enable_pin.2989>
    case U8X8_MSG_BYTE_END_TRANSFER:
      break;
    default:
      return 0;
  }
  return 1;
    2ef6:	81 e0       	ldi	r24, 0x01	; 1
      u8x8_gpio_SetCS(u8x8, u8x8->display_info->chip_disable_level);    
      /* ensure that the enable signals are low */
      u8x8_gpio_call(u8x8, U8X8_MSG_GPIO_E, 0);
      u8x8_gpio_call(u8x8, U8X8_MSG_GPIO_CS, 0);
      enable_pin = U8X8_MSG_GPIO_E;
      break;
    2ef8:	13 c0       	rjmp	.+38     	; 0x2f20 <u8x8_byte_sed1520+0xf6>
    case U8X8_MSG_BYTE_SET_DC:
      u8x8_gpio_SetDC(u8x8, arg_int);
    2efa:	6a e4       	ldi	r22, 0x4A	; 74
    2efc:	21 d2       	rcall	.+1090   	; 0x3340 <u8x8_gpio_call>
    2efe:	81 e0       	ldi	r24, 0x01	; 1
    case U8X8_MSG_BYTE_END_TRANSFER:
      break;
    default:
      return 0;
  }
  return 1;
    2f00:	0f c0       	rjmp	.+30     	; 0x2f20 <u8x8_byte_sed1520+0xf6>
      u8x8_gpio_call(u8x8, U8X8_MSG_GPIO_CS, 0);
      enable_pin = U8X8_MSG_GPIO_E;
      break;
    case U8X8_MSG_BYTE_SET_DC:
      u8x8_gpio_SetDC(u8x8, arg_int);
      break;
    2f02:	41 11       	cpse	r20, r1
    case U8X8_MSG_BYTE_START_TRANSFER:
      /* cs lines are not supported for the SED1520/SBN1661 */
      /* instead, this will select the E1 or E2 line */ 
      enable_pin = U8X8_MSG_GPIO_E;
      if ( arg_int != 0 )
    2f04:	05 c0       	rjmp	.+10     	; 0x2f10 <u8x8_byte_sed1520+0xe6>
    2f06:	88 e4       	ldi	r24, 0x48	; 72
      u8x8_gpio_SetDC(u8x8, arg_int);
      break;
    case U8X8_MSG_BYTE_START_TRANSFER:
      /* cs lines are not supported for the SED1520/SBN1661 */
      /* instead, this will select the E1 or E2 line */ 
      enable_pin = U8X8_MSG_GPIO_E;
    2f08:	80 93 44 03 	sts	0x0344, r24	; 0x800344 <enable_pin.2989>
    2f0c:	81 e0       	ldi	r24, 0x01	; 1
    case U8X8_MSG_BYTE_END_TRANSFER:
      break;
    default:
      return 0;
  }
  return 1;
    2f0e:	08 c0       	rjmp	.+16     	; 0x2f20 <u8x8_byte_sed1520+0xf6>
    2f10:	89 e4       	ldi	r24, 0x49	; 73
    case U8X8_MSG_BYTE_START_TRANSFER:
      /* cs lines are not supported for the SED1520/SBN1661 */
      /* instead, this will select the E1 or E2 line */ 
      enable_pin = U8X8_MSG_GPIO_E;
      if ( arg_int != 0 )
	enable_pin = U8X8_MSG_GPIO_CS;
    2f12:	80 93 44 03 	sts	0x0344, r24	; 0x800344 <enable_pin.2989>
    2f16:	81 e0       	ldi	r24, 0x01	; 1
    case U8X8_MSG_BYTE_END_TRANSFER:
      break;
    default:
      return 0;
  }
  return 1;
    2f18:	03 c0       	rjmp	.+6      	; 0x2f20 <u8x8_byte_sed1520+0xf6>
    2f1a:	80 e0       	ldi	r24, 0x00	; 0
	enable_pin = U8X8_MSG_GPIO_CS;
      break;
    case U8X8_MSG_BYTE_END_TRANSFER:
      break;
    default:
      return 0;
    2f1c:	01 c0       	rjmp	.+2      	; 0x2f20 <u8x8_byte_sed1520+0xf6>
    2f1e:	81 e0       	ldi	r24, 0x01	; 1
  }
  return 1;
    2f20:	df 91       	pop	r29
}
    2f22:	cf 91       	pop	r28
    2f24:	1f 91       	pop	r17
    2f26:	0f 91       	pop	r16
    2f28:	ff 90       	pop	r15
    2f2a:	ef 90       	pop	r14
    2f2c:	df 90       	pop	r13
    2f2e:	cf 90       	pop	r12
    2f30:	08 95       	ret

00002f32 <u8x8_cad_SendCmd>:
    2f32:	46 2f       	mov	r20, r22
      return u8x8->byte_cb(u8x8, msg, arg_int, arg_ptr);
    default:
      return 0;
  }
  return 1;
}
    2f34:	dc 01       	movw	r26, r24
    2f36:	16 96       	adiw	r26, 0x06	; 6
    2f38:	ed 91       	ld	r30, X+
    2f3a:	fc 91       	ld	r31, X
    2f3c:	17 97       	sbiw	r26, 0x07	; 7
    2f3e:	20 e0       	ldi	r18, 0x00	; 0
    2f40:	30 e0       	ldi	r19, 0x00	; 0
    2f42:	65 e1       	ldi	r22, 0x15	; 21
    2f44:	09 95       	icall
    2f46:	08 95       	ret

00002f48 <u8x8_cad_SendData>:
    2f48:	9a 01       	movw	r18, r20
    2f4a:	dc 01       	movw	r26, r24
    2f4c:	16 96       	adiw	r26, 0x06	; 6
    2f4e:	ed 91       	ld	r30, X+
    2f50:	fc 91       	ld	r31, X
    2f52:	17 97       	sbiw	r26, 0x07	; 7
    2f54:	46 2f       	mov	r20, r22
    2f56:	67 e1       	ldi	r22, 0x17	; 23
    2f58:	09 95       	icall
    2f5a:	08 95       	ret

00002f5c <u8x8_cad_SendSequence>:
    2f5c:	ef 92       	push	r14
    2f5e:	ff 92       	push	r15
    2f60:	0f 93       	push	r16
    2f62:	1f 93       	push	r17
    2f64:	cf 93       	push	r28
    2f66:	df 93       	push	r29
    2f68:	1f 92       	push	r1
    2f6a:	cd b7       	in	r28, 0x3d	; 61
    2f6c:	de b7       	in	r29, 0x3e	; 62
    2f6e:	7c 01       	movw	r14, r24
    2f70:	8b 01       	movw	r16, r22
    2f72:	d8 01       	movw	r26, r16
    2f74:	6c 91       	ld	r22, X
    2f76:	67 31       	cpi	r22, 0x17	; 23
    2f78:	c1 f0       	breq	.+48     	; 0x2faa <u8x8_cad_SendSequence+0x4e>
    2f7a:	18 f4       	brcc	.+6      	; 0x2f82 <u8x8_cad_SendSequence+0x26>
    2f7c:	65 31       	cpi	r22, 0x15	; 21
    2f7e:	30 f4       	brcc	.+12     	; 0x2f8c <u8x8_cad_SendSequence+0x30>
    2f80:	36 c0       	rjmp	.+108    	; 0x2fee <u8x8_cad_SendSequence+0x92>
    2f82:	6a 31       	cpi	r22, 0x1A	; 26
    2f84:	f0 f0       	brcs	.+60     	; 0x2fc2 <u8x8_cad_SendSequence+0x66>
    2f86:	6e 3f       	cpi	r22, 0xFE	; 254
    2f88:	49 f1       	breq	.+82     	; 0x2fdc <u8x8_cad_SendSequence+0x80>
    2f8a:	31 c0       	rjmp	.+98     	; 0x2fee <u8x8_cad_SendSequence+0x92>
    2f8c:	f8 01       	movw	r30, r16
    2f8e:	41 81       	ldd	r20, Z+1	; 0x01
    2f90:	49 83       	std	Y+1, r20	; 0x01
    2f92:	d7 01       	movw	r26, r14
    2f94:	16 96       	adiw	r26, 0x06	; 6
    2f96:	ed 91       	ld	r30, X+
    2f98:	fc 91       	ld	r31, X
    2f9a:	17 97       	sbiw	r26, 0x07	; 7
    2f9c:	20 e0       	ldi	r18, 0x00	; 0
    2f9e:	30 e0       	ldi	r19, 0x00	; 0
    2fa0:	c7 01       	movw	r24, r14
    2fa2:	09 95       	icall
    2fa4:	0e 5f       	subi	r16, 0xFE	; 254
    2fa6:	1f 4f       	sbci	r17, 0xFF	; 255
    2fa8:	e4 cf       	rjmp	.-56     	; 0x2f72 <u8x8_cad_SendSequence+0x16>
    2faa:	f8 01       	movw	r30, r16
    2fac:	81 81       	ldd	r24, Z+1	; 0x01
    2fae:	89 83       	std	Y+1, r24	; 0x01
    2fb0:	ae 01       	movw	r20, r28
    2fb2:	4f 5f       	subi	r20, 0xFF	; 255
    2fb4:	5f 4f       	sbci	r21, 0xFF	; 255
    2fb6:	61 e0       	ldi	r22, 0x01	; 1
    2fb8:	c7 01       	movw	r24, r14
    2fba:	c6 df       	rcall	.-116    	; 0x2f48 <u8x8_cad_SendData>
    2fbc:	0e 5f       	subi	r16, 0xFE	; 254
    2fbe:	1f 4f       	sbci	r17, 0xFF	; 255
    2fc0:	d8 cf       	rjmp	.-80     	; 0x2f72 <u8x8_cad_SendSequence+0x16>
    2fc2:	0f 5f       	subi	r16, 0xFF	; 255
    2fc4:	1f 4f       	sbci	r17, 0xFF	; 255
    2fc6:	d7 01       	movw	r26, r14
    2fc8:	16 96       	adiw	r26, 0x06	; 6
    2fca:	ed 91       	ld	r30, X+
    2fcc:	fc 91       	ld	r31, X
    2fce:	17 97       	sbiw	r26, 0x07	; 7
    2fd0:	20 e0       	ldi	r18, 0x00	; 0
    2fd2:	30 e0       	ldi	r19, 0x00	; 0
    2fd4:	40 e0       	ldi	r20, 0x00	; 0
    2fd6:	c7 01       	movw	r24, r14
    2fd8:	09 95       	icall
    2fda:	cb cf       	rjmp	.-106    	; 0x2f72 <u8x8_cad_SendSequence+0x16>
    2fdc:	f8 01       	movw	r30, r16
    2fde:	41 81       	ldd	r20, Z+1	; 0x01
    2fe0:	49 83       	std	Y+1, r20	; 0x01
    2fe2:	69 e2       	ldi	r22, 0x29	; 41
    2fe4:	c7 01       	movw	r24, r14
    2fe6:	ac d1       	rcall	.+856    	; 0x3340 <u8x8_gpio_call>
    2fe8:	0e 5f       	subi	r16, 0xFE	; 254
    2fea:	1f 4f       	sbci	r17, 0xFF	; 255
    2fec:	c2 cf       	rjmp	.-124    	; 0x2f72 <u8x8_cad_SendSequence+0x16>
    2fee:	0f 90       	pop	r0
    2ff0:	df 91       	pop	r29
    2ff2:	cf 91       	pop	r28
    2ff4:	1f 91       	pop	r17
    2ff6:	0f 91       	pop	r16
    2ff8:	ff 90       	pop	r15
    2ffa:	ef 90       	pop	r14
    2ffc:	08 95       	ret

00002ffe <u8x8_cad_001>:
  convert to bytes by using 
    dc = 0 for commands and args and
    dc = 1 for data
*/
uint8_t u8x8_cad_001(u8x8_t *u8x8, uint8_t msg, uint8_t arg_int, void *arg_ptr)
{
    2ffe:	ef 92       	push	r14
    3000:	ff 92       	push	r15
    3002:	0f 93       	push	r16
    3004:	1f 93       	push	r17
    3006:	cf 93       	push	r28
    3008:	df 93       	push	r29
    300a:	8c 01       	movw	r16, r24
    300c:	c6 2f       	mov	r28, r22
    300e:	d4 2f       	mov	r29, r20
    3010:	79 01       	movw	r14, r18
  switch(msg)
    3012:	66 31       	cpi	r22, 0x16	; 22
    3014:	91 f0       	breq	.+36     	; 0x303a <u8x8_cad_001+0x3c>
    3016:	28 f4       	brcc	.+10     	; 0x3022 <u8x8_cad_001+0x24>
    3018:	64 31       	cpi	r22, 0x14	; 20
    301a:	c1 f0       	breq	.+48     	; 0x304c <u8x8_cad_001+0x4e>
    301c:	65 31       	cpi	r22, 0x15	; 21
    301e:	31 f0       	breq	.+12     	; 0x302c <u8x8_cad_001+0x2e>
    3020:	20 c0       	rjmp	.+64     	; 0x3062 <u8x8_cad_001+0x64>
    3022:	67 31       	cpi	r22, 0x17	; 23
    3024:	89 f0       	breq	.+34     	; 0x3048 <u8x8_cad_001+0x4a>
    3026:	6a 31       	cpi	r22, 0x1A	; 26
    3028:	e0 f4       	brcc	.+56     	; 0x3062 <u8x8_cad_001+0x64>
    302a:	10 c0       	rjmp	.+32     	; 0x304c <u8x8_cad_001+0x4e>
  {
    case U8X8_MSG_CAD_SEND_CMD:
      u8x8_byte_SetDC(u8x8, 0);
    302c:	60 e0       	ldi	r22, 0x00	; 0
    302e:	d9 de       	rcall	.-590    	; 0x2de2 <u8x8_byte_SetDC>
      u8x8_byte_SendByte(u8x8, arg_int);
    3030:	6d 2f       	mov	r22, r29
    3032:	c8 01       	movw	r24, r16
    3034:	eb de       	rcall	.-554    	; 0x2e0c <u8x8_byte_SendByte>
    case U8X8_MSG_CAD_END_TRANSFER:
      return u8x8->byte_cb(u8x8, msg, arg_int, arg_ptr);
    default:
      return 0;
  }
  return 1;
    3036:	81 e0       	ldi	r24, 0x01	; 1
    case U8X8_MSG_CAD_SEND_CMD:
      u8x8_byte_SetDC(u8x8, 0);
      u8x8_byte_SendByte(u8x8, arg_int);
      break;
    case U8X8_MSG_CAD_SEND_ARG:
      u8x8_byte_SetDC(u8x8, 0);
    3038:	15 c0       	rjmp	.+42     	; 0x3064 <u8x8_cad_001+0x66>
    303a:	60 e0       	ldi	r22, 0x00	; 0
      u8x8_byte_SendByte(u8x8, arg_int);
    303c:	d2 de       	rcall	.-604    	; 0x2de2 <u8x8_byte_SetDC>
    303e:	6d 2f       	mov	r22, r29
    3040:	c8 01       	movw	r24, r16
    case U8X8_MSG_CAD_END_TRANSFER:
      return u8x8->byte_cb(u8x8, msg, arg_int, arg_ptr);
    default:
      return 0;
  }
  return 1;
    3042:	e4 de       	rcall	.-568    	; 0x2e0c <u8x8_byte_SendByte>
      u8x8_byte_SendByte(u8x8, arg_int);
      break;
    case U8X8_MSG_CAD_SEND_ARG:
      u8x8_byte_SetDC(u8x8, 0);
      u8x8_byte_SendByte(u8x8, arg_int);
      break;
    3044:	81 e0       	ldi	r24, 0x01	; 1
    case U8X8_MSG_CAD_SEND_DATA:
      u8x8_byte_SetDC(u8x8, 1);
    3046:	0e c0       	rjmp	.+28     	; 0x3064 <u8x8_cad_001+0x66>
    3048:	61 e0       	ldi	r22, 0x01	; 1
    304a:	cb de       	rcall	.-618    	; 0x2de2 <u8x8_byte_SetDC>
      //break;
      /* fall through */
    case U8X8_MSG_CAD_INIT:
    case U8X8_MSG_CAD_START_TRANSFER:
    case U8X8_MSG_CAD_END_TRANSFER:
      return u8x8->byte_cb(u8x8, msg, arg_int, arg_ptr);
    304c:	d8 01       	movw	r26, r16
    304e:	18 96       	adiw	r26, 0x08	; 8
    3050:	ed 91       	ld	r30, X+
    3052:	fc 91       	ld	r31, X
    3054:	19 97       	sbiw	r26, 0x09	; 9
    3056:	97 01       	movw	r18, r14
    3058:	4d 2f       	mov	r20, r29
    305a:	6c 2f       	mov	r22, r28
    305c:	c8 01       	movw	r24, r16
    305e:	09 95       	icall
    3060:	01 c0       	rjmp	.+2      	; 0x3064 <u8x8_cad_001+0x66>
    default:
      return 0;
    3062:	80 e0       	ldi	r24, 0x00	; 0
  }
  return 1;
}
    3064:	df 91       	pop	r29
    3066:	cf 91       	pop	r28
    3068:	1f 91       	pop	r17
    306a:	0f 91       	pop	r16
    306c:	ff 90       	pop	r15
    306e:	ef 90       	pop	r14
    3070:	08 95       	ret

00003072 <u8x8_d_helper_display_setup_memory>:
  u8x8->display_cb(u8x8, U8X8_MSG_DISPLAY_SET_FLIP_MODE, mode, NULL);  
}

void u8x8_SetContrast(u8x8_t *u8x8, uint8_t value)
{
  u8x8->display_cb(u8x8, U8X8_MSG_DISPLAY_SET_CONTRAST, value, NULL);  
    3072:	fc 01       	movw	r30, r24
    3074:	71 83       	std	Z+1, r23	; 0x01
    3076:	60 83       	st	Z, r22
    3078:	fb 01       	movw	r30, r22
    307a:	22 89       	ldd	r18, Z+18	; 0x12
    307c:	fc 01       	movw	r30, r24
    307e:	24 8b       	std	Z+20, r18	; 0x14
    3080:	08 95       	ret

00003082 <u8x8_d_helper_display_init>:
    3082:	cf 93       	push	r28
    3084:	df 93       	push	r29
    3086:	ec 01       	movw	r28, r24
    3088:	ea 85       	ldd	r30, Y+10	; 0x0a
    308a:	fb 85       	ldd	r31, Y+11	; 0x0b
    308c:	20 e0       	ldi	r18, 0x00	; 0
    308e:	30 e0       	ldi	r19, 0x00	; 0
    3090:	40 e0       	ldi	r20, 0x00	; 0
    3092:	68 e2       	ldi	r22, 0x28	; 40
    3094:	09 95       	icall
    3096:	ee 81       	ldd	r30, Y+6	; 0x06
    3098:	ff 81       	ldd	r31, Y+7	; 0x07
    309a:	20 e0       	ldi	r18, 0x00	; 0
    309c:	30 e0       	ldi	r19, 0x00	; 0
    309e:	40 e0       	ldi	r20, 0x00	; 0
    30a0:	64 e1       	ldi	r22, 0x14	; 20
    30a2:	ce 01       	movw	r24, r28
    30a4:	09 95       	icall
    30a6:	41 e0       	ldi	r20, 0x01	; 1
    30a8:	6b e4       	ldi	r22, 0x4B	; 75
    30aa:	ce 01       	movw	r24, r28
    30ac:	49 d1       	rcall	.+658    	; 0x3340 <u8x8_gpio_call>
    30ae:	e8 81       	ld	r30, Y
    30b0:	f9 81       	ldd	r31, Y+1	; 0x01
    30b2:	44 81       	ldd	r20, Z+4	; 0x04
    30b4:	69 e2       	ldi	r22, 0x29	; 41
    30b6:	ce 01       	movw	r24, r28
    30b8:	43 d1       	rcall	.+646    	; 0x3340 <u8x8_gpio_call>
    30ba:	40 e0       	ldi	r20, 0x00	; 0
    30bc:	6b e4       	ldi	r22, 0x4B	; 75
    30be:	ce 01       	movw	r24, r28
    30c0:	3f d1       	rcall	.+638    	; 0x3340 <u8x8_gpio_call>
    30c2:	e8 81       	ld	r30, Y
    30c4:	f9 81       	ldd	r31, Y+1	; 0x01
    30c6:	44 81       	ldd	r20, Z+4	; 0x04
    30c8:	69 e2       	ldi	r22, 0x29	; 41
    30ca:	ce 01       	movw	r24, r28
    30cc:	39 d1       	rcall	.+626    	; 0x3340 <u8x8_gpio_call>
    30ce:	41 e0       	ldi	r20, 0x01	; 1
    30d0:	6b e4       	ldi	r22, 0x4B	; 75
    30d2:	ce 01       	movw	r24, r28
    30d4:	35 d1       	rcall	.+618    	; 0x3340 <u8x8_gpio_call>
    30d6:	e8 81       	ld	r30, Y
    30d8:	f9 81       	ldd	r31, Y+1	; 0x01
    30da:	45 81       	ldd	r20, Z+5	; 0x05
    30dc:	69 e2       	ldi	r22, 0x29	; 41
    30de:	ce 01       	movw	r24, r28
    30e0:	2f d1       	rcall	.+606    	; 0x3340 <u8x8_gpio_call>
    30e2:	df 91       	pop	r29
    30e4:	cf 91       	pop	r28
    30e6:	08 95       	ret

000030e8 <u8x8_DrawTile>:
    30e8:	0f 93       	push	r16
    30ea:	1f 93       	push	r17
    30ec:	cf 93       	push	r28
    30ee:	df 93       	push	r29
    30f0:	00 d0       	rcall	.+0      	; 0x30f2 <u8x8_DrawTile+0xa>
    30f2:	00 d0       	rcall	.+0      	; 0x30f4 <u8x8_DrawTile+0xc>
    30f4:	1f 92       	push	r1
    30f6:	cd b7       	in	r28, 0x3d	; 61
    30f8:	de b7       	in	r29, 0x3e	; 62
    30fa:	6c 83       	std	Y+4, r22	; 0x04
    30fc:	4d 83       	std	Y+5, r20	; 0x05
    30fe:	2b 83       	std	Y+3, r18	; 0x03
    3100:	1a 83       	std	Y+2, r17	; 0x02
    3102:	09 83       	std	Y+1, r16	; 0x01
    3104:	dc 01       	movw	r26, r24
    3106:	14 96       	adiw	r26, 0x04	; 4
    3108:	ed 91       	ld	r30, X+
    310a:	fc 91       	ld	r31, X
    310c:	15 97       	sbiw	r26, 0x05	; 5
    310e:	9e 01       	movw	r18, r28
    3110:	2f 5f       	subi	r18, 0xFF	; 255
    3112:	3f 4f       	sbci	r19, 0xFF	; 255
    3114:	41 e0       	ldi	r20, 0x01	; 1
    3116:	6f e0       	ldi	r22, 0x0F	; 15
    3118:	09 95       	icall
    311a:	0f 90       	pop	r0
    311c:	0f 90       	pop	r0
    311e:	0f 90       	pop	r0
    3120:	0f 90       	pop	r0
    3122:	0f 90       	pop	r0
    3124:	df 91       	pop	r29
    3126:	cf 91       	pop	r28
    3128:	1f 91       	pop	r17
    312a:	0f 91       	pop	r16
    312c:	08 95       	ret

0000312e <u8x8_SetupMemory>:
    312e:	dc 01       	movw	r26, r24
    3130:	14 96       	adiw	r26, 0x04	; 4
    3132:	ed 91       	ld	r30, X+
    3134:	fc 91       	ld	r31, X
    3136:	15 97       	sbiw	r26, 0x05	; 5
    3138:	20 e0       	ldi	r18, 0x00	; 0
    313a:	30 e0       	ldi	r19, 0x00	; 0
    313c:	40 e0       	ldi	r20, 0x00	; 0
    313e:	69 e0       	ldi	r22, 0x09	; 9
    3140:	09 95       	icall
    3142:	08 95       	ret

00003144 <u8x8_InitDisplay>:
    3144:	dc 01       	movw	r26, r24
    3146:	14 96       	adiw	r26, 0x04	; 4
    3148:	ed 91       	ld	r30, X+
    314a:	fc 91       	ld	r31, X
    314c:	15 97       	sbiw	r26, 0x05	; 5
    314e:	20 e0       	ldi	r18, 0x00	; 0
    3150:	30 e0       	ldi	r19, 0x00	; 0
    3152:	40 e0       	ldi	r20, 0x00	; 0
    3154:	6a e0       	ldi	r22, 0x0A	; 10
    3156:	09 95       	icall
    3158:	08 95       	ret

0000315a <u8x8_SetPowerSave>:
    315a:	46 2f       	mov	r20, r22
    315c:	dc 01       	movw	r26, r24
    315e:	14 96       	adiw	r26, 0x04	; 4
    3160:	ed 91       	ld	r30, X+
    3162:	fc 91       	ld	r31, X
    3164:	15 97       	sbiw	r26, 0x05	; 5
    3166:	20 e0       	ldi	r18, 0x00	; 0
    3168:	30 e0       	ldi	r19, 0x00	; 0
    316a:	6b e0       	ldi	r22, 0x0B	; 11
    316c:	09 95       	icall
    316e:	08 95       	ret

00003170 <u8x8_RefreshDisplay>:
}

void u8x8_RefreshDisplay(u8x8_t *u8x8)
{
  u8x8->display_cb(u8x8, U8X8_MSG_DISPLAY_REFRESH, 0, NULL);  
    3170:	dc 01       	movw	r26, r24
    3172:	14 96       	adiw	r26, 0x04	; 4
    3174:	ed 91       	ld	r30, X+
    3176:	fc 91       	ld	r31, X
    3178:	15 97       	sbiw	r26, 0x05	; 5
    317a:	20 e0       	ldi	r18, 0x00	; 0
    317c:	30 e0       	ldi	r19, 0x00	; 0
    317e:	40 e0       	ldi	r20, 0x00	; 0
    3180:	60 e1       	ldi	r22, 0x10	; 16
    3182:	09 95       	icall
    3184:	08 95       	ret

00003186 <u8x8_d_mt12232_122x32>:
  /* pixel_width = */ 122,
  /* pixel_height = */ 32
};

uint8_t u8x8_d_mt12232_122x32(u8x8_t *u8x8, uint8_t msg, uint8_t arg_int, void *arg_ptr)
{
    3186:	ef 92       	push	r14
    3188:	ff 92       	push	r15
    318a:	0f 93       	push	r16
    318c:	1f 93       	push	r17
    318e:	cf 93       	push	r28
    3190:	df 93       	push	r29
    3192:	ec 01       	movw	r28, r24
    3194:	89 01       	movw	r16, r18
  uint8_t *ptr;
  //uint8_t x;
  //uint8_t c;
  
  switch(msg)
    3196:	6a 30       	cpi	r22, 0x0A	; 10
    3198:	79 f0       	breq	.+30     	; 0x31b8 <u8x8_d_mt12232_122x32+0x32>
    319a:	18 f4       	brcc	.+6      	; 0x31a2 <u8x8_d_mt12232_122x32+0x1c>
    319c:	69 30       	cpi	r22, 0x09	; 9
    319e:	39 f0       	breq	.+14     	; 0x31ae <u8x8_d_mt12232_122x32+0x28>
    31a0:	c7 c0       	rjmp	.+398    	; 0x3330 <u8x8_d_mt12232_122x32+0x1aa>
    31a2:	6b 30       	cpi	r22, 0x0B	; 11
    31a4:	a1 f1       	breq	.+104    	; 0x320e <u8x8_d_mt12232_122x32+0x88>
    31a6:	6f 30       	cpi	r22, 0x0F	; 15
    31a8:	09 f4       	brne	.+2      	; 0x31ac <u8x8_d_mt12232_122x32+0x26>
    31aa:	84 c0       	rjmp	.+264    	; 0x32b4 <u8x8_d_mt12232_122x32+0x12e>
    31ac:	c1 c0       	rjmp	.+386    	; 0x3330 <u8x8_d_mt12232_122x32+0x1aa>
  {
    case U8X8_MSG_DISPLAY_SETUP_MEMORY:
      u8x8_d_helper_display_setup_memory(u8x8, &u8x8_mt12232_122x32_display_info);
    31ae:	64 e1       	ldi	r22, 0x14	; 20
    31b0:	71 e0       	ldi	r23, 0x01	; 1
    31b2:	5f df       	rcall	.-322    	; 0x3072 <u8x8_d_helper_display_setup_memory>
    
      break;
    default:
      return 0;
  }
  return 1;
    31b4:	81 e0       	ldi	r24, 0x01	; 1
  {
    case U8X8_MSG_DISPLAY_SETUP_MEMORY:
      u8x8_d_helper_display_setup_memory(u8x8, &u8x8_mt12232_122x32_display_info);
      break;
    case U8X8_MSG_DISPLAY_INIT:
      u8x8_d_helper_display_init(u8x8);
    31b6:	bd c0       	rjmp	.+378    	; 0x3332 <u8x8_d_mt12232_122x32+0x1ac>
    31b8:	64 df       	rcall	.-312    	; 0x3082 <u8x8_d_helper_display_init>
    
      u8x8->cad_cb(u8x8, U8X8_MSG_CAD_START_TRANSFER, 0, NULL);
    31ba:	ee 81       	ldd	r30, Y+6	; 0x06
    31bc:	ff 81       	ldd	r31, Y+7	; 0x07
    31be:	20 e0       	ldi	r18, 0x00	; 0
    31c0:	30 e0       	ldi	r19, 0x00	; 0
    31c2:	40 e0       	ldi	r20, 0x00	; 0
    31c4:	68 e1       	ldi	r22, 0x18	; 24
    31c6:	ce 01       	movw	r24, r28
    31c8:	09 95       	icall
      u8x8_cad_SendSequence(u8x8, u8x8_d_mt12232_L_init_seq);
    31ca:	6b e3       	ldi	r22, 0x3B	; 59
    31cc:	71 e0       	ldi	r23, 0x01	; 1
    31ce:	ce 01       	movw	r24, r28
    31d0:	c5 de       	rcall	.-630    	; 0x2f5c <u8x8_cad_SendSequence>
      u8x8->cad_cb(u8x8, U8X8_MSG_CAD_END_TRANSFER, 0, NULL);
    31d2:	ee 81       	ldd	r30, Y+6	; 0x06
    31d4:	ff 81       	ldd	r31, Y+7	; 0x07
    31d6:	20 e0       	ldi	r18, 0x00	; 0
    31d8:	30 e0       	ldi	r19, 0x00	; 0
    31da:	40 e0       	ldi	r20, 0x00	; 0
    31dc:	69 e1       	ldi	r22, 0x19	; 25
    31de:	ce 01       	movw	r24, r28
    31e0:	09 95       	icall
    
      u8x8->cad_cb(u8x8, U8X8_MSG_CAD_START_TRANSFER, 1, NULL);
    31e2:	ee 81       	ldd	r30, Y+6	; 0x06
    31e4:	ff 81       	ldd	r31, Y+7	; 0x07
    31e6:	20 e0       	ldi	r18, 0x00	; 0
    31e8:	30 e0       	ldi	r19, 0x00	; 0
    31ea:	41 e0       	ldi	r20, 0x01	; 1
    31ec:	68 e1       	ldi	r22, 0x18	; 24
    31ee:	ce 01       	movw	r24, r28
    31f0:	09 95       	icall
      u8x8_cad_SendSequence(u8x8, u8x8_d_mt12232_R_init_seq);
    31f2:	62 e3       	ldi	r22, 0x32	; 50
    31f4:	71 e0       	ldi	r23, 0x01	; 1
    31f6:	ce 01       	movw	r24, r28
    31f8:	b1 de       	rcall	.-670    	; 0x2f5c <u8x8_cad_SendSequence>
      u8x8->cad_cb(u8x8, U8X8_MSG_CAD_END_TRANSFER, 1, NULL);
    31fa:	ee 81       	ldd	r30, Y+6	; 0x06
    31fc:	ff 81       	ldd	r31, Y+7	; 0x07
    31fe:	20 e0       	ldi	r18, 0x00	; 0
    3200:	30 e0       	ldi	r19, 0x00	; 0
    3202:	41 e0       	ldi	r20, 0x01	; 1
    3204:	69 e1       	ldi	r22, 0x19	; 25
    3206:	ce 01       	movw	r24, r28
    3208:	09 95       	icall
    
      break;
    default:
      return 0;
  }
  return 1;
    320a:	81 e0       	ldi	r24, 0x01	; 1
      u8x8->cad_cb(u8x8, U8X8_MSG_CAD_END_TRANSFER, 0, NULL);
    
      u8x8->cad_cb(u8x8, U8X8_MSG_CAD_START_TRANSFER, 1, NULL);
      u8x8_cad_SendSequence(u8x8, u8x8_d_mt12232_R_init_seq);
      u8x8->cad_cb(u8x8, U8X8_MSG_CAD_END_TRANSFER, 1, NULL);
      break;
    320c:	92 c0       	rjmp	.+292    	; 0x3332 <u8x8_d_mt12232_122x32+0x1ac>
    case U8X8_MSG_DISPLAY_SET_POWER_SAVE:
      
      if ( arg_int == 0 )
    320e:	41 11       	cpse	r20, r1
    3210:	28 c0       	rjmp	.+80     	; 0x3262 <u8x8_d_mt12232_122x32+0xdc>
      {
	u8x8->cad_cb(u8x8, U8X8_MSG_CAD_START_TRANSFER, 0, NULL);
    3212:	ee 81       	ldd	r30, Y+6	; 0x06
    3214:	ff 81       	ldd	r31, Y+7	; 0x07
    3216:	20 e0       	ldi	r18, 0x00	; 0
    3218:	30 e0       	ldi	r19, 0x00	; 0
    321a:	68 e1       	ldi	r22, 0x18	; 24
	u8x8_cad_SendSequence(u8x8, u8x8_d_mt12232_powersave0_seq);
    321c:	09 95       	icall
    321e:	6f e2       	ldi	r22, 0x2F	; 47
    3220:	71 e0       	ldi	r23, 0x01	; 1
    3222:	ce 01       	movw	r24, r28
    3224:	9b de       	rcall	.-714    	; 0x2f5c <u8x8_cad_SendSequence>
	u8x8->cad_cb(u8x8, U8X8_MSG_CAD_END_TRANSFER, 0, NULL);
    3226:	ee 81       	ldd	r30, Y+6	; 0x06
    3228:	ff 81       	ldd	r31, Y+7	; 0x07
    322a:	20 e0       	ldi	r18, 0x00	; 0
    322c:	30 e0       	ldi	r19, 0x00	; 0
    322e:	40 e0       	ldi	r20, 0x00	; 0
    3230:	69 e1       	ldi	r22, 0x19	; 25
    3232:	ce 01       	movw	r24, r28
    3234:	09 95       	icall

	u8x8->cad_cb(u8x8, U8X8_MSG_CAD_START_TRANSFER, 1, NULL);
    3236:	ee 81       	ldd	r30, Y+6	; 0x06
    3238:	ff 81       	ldd	r31, Y+7	; 0x07
    323a:	20 e0       	ldi	r18, 0x00	; 0
    323c:	30 e0       	ldi	r19, 0x00	; 0
    323e:	41 e0       	ldi	r20, 0x01	; 1
    3240:	68 e1       	ldi	r22, 0x18	; 24
    3242:	ce 01       	movw	r24, r28
	u8x8_cad_SendSequence(u8x8, u8x8_d_mt12232_powersave0_seq);
    3244:	09 95       	icall
    3246:	6f e2       	ldi	r22, 0x2F	; 47
    3248:	71 e0       	ldi	r23, 0x01	; 1
    324a:	ce 01       	movw	r24, r28
    324c:	87 de       	rcall	.-754    	; 0x2f5c <u8x8_cad_SendSequence>
	u8x8->cad_cb(u8x8, U8X8_MSG_CAD_END_TRANSFER, 1, NULL);	
    324e:	ee 81       	ldd	r30, Y+6	; 0x06
    3250:	ff 81       	ldd	r31, Y+7	; 0x07
    3252:	20 e0       	ldi	r18, 0x00	; 0
    3254:	30 e0       	ldi	r19, 0x00	; 0
    3256:	41 e0       	ldi	r20, 0x01	; 1
    3258:	69 e1       	ldi	r22, 0x19	; 25
    325a:	ce 01       	movw	r24, r28
    325c:	09 95       	icall
    
      break;
    default:
      return 0;
  }
  return 1;
    325e:	81 e0       	ldi	r24, 0x01	; 1
    3260:	68 c0       	rjmp	.+208    	; 0x3332 <u8x8_d_mt12232_122x32+0x1ac>
	u8x8_cad_SendSequence(u8x8, u8x8_d_mt12232_powersave0_seq);
	u8x8->cad_cb(u8x8, U8X8_MSG_CAD_END_TRANSFER, 1, NULL);	
      }
      else
      {
	u8x8->cad_cb(u8x8, U8X8_MSG_CAD_START_TRANSFER, 0, NULL);
    3262:	ee 81       	ldd	r30, Y+6	; 0x06
    3264:	ff 81       	ldd	r31, Y+7	; 0x07
    3266:	20 e0       	ldi	r18, 0x00	; 0
    3268:	30 e0       	ldi	r19, 0x00	; 0
    326a:	40 e0       	ldi	r20, 0x00	; 0
    326c:	68 e1       	ldi	r22, 0x18	; 24
	u8x8_cad_SendSequence(u8x8, u8x8_d_mt12232_powersave1_seq);
    326e:	09 95       	icall
    3270:	6c e2       	ldi	r22, 0x2C	; 44
    3272:	71 e0       	ldi	r23, 0x01	; 1
    3274:	ce 01       	movw	r24, r28
    3276:	72 de       	rcall	.-796    	; 0x2f5c <u8x8_cad_SendSequence>
	u8x8->cad_cb(u8x8, U8X8_MSG_CAD_END_TRANSFER, 0, NULL);
    3278:	ee 81       	ldd	r30, Y+6	; 0x06
    327a:	ff 81       	ldd	r31, Y+7	; 0x07
    327c:	20 e0       	ldi	r18, 0x00	; 0
    327e:	30 e0       	ldi	r19, 0x00	; 0
    3280:	40 e0       	ldi	r20, 0x00	; 0
    3282:	69 e1       	ldi	r22, 0x19	; 25
    3284:	ce 01       	movw	r24, r28
    3286:	09 95       	icall
	
	u8x8->cad_cb(u8x8, U8X8_MSG_CAD_START_TRANSFER, 1, NULL);
    3288:	ee 81       	ldd	r30, Y+6	; 0x06
    328a:	ff 81       	ldd	r31, Y+7	; 0x07
    328c:	20 e0       	ldi	r18, 0x00	; 0
    328e:	30 e0       	ldi	r19, 0x00	; 0
    3290:	41 e0       	ldi	r20, 0x01	; 1
    3292:	68 e1       	ldi	r22, 0x18	; 24
    3294:	ce 01       	movw	r24, r28
	u8x8_cad_SendSequence(u8x8, u8x8_d_mt12232_powersave1_seq);
    3296:	09 95       	icall
    3298:	6c e2       	ldi	r22, 0x2C	; 44
    329a:	71 e0       	ldi	r23, 0x01	; 1
    329c:	ce 01       	movw	r24, r28
    329e:	5e de       	rcall	.-836    	; 0x2f5c <u8x8_cad_SendSequence>
	u8x8->cad_cb(u8x8, U8X8_MSG_CAD_END_TRANSFER, 1, NULL);
    32a0:	ee 81       	ldd	r30, Y+6	; 0x06
    32a2:	ff 81       	ldd	r31, Y+7	; 0x07
    32a4:	20 e0       	ldi	r18, 0x00	; 0
    32a6:	30 e0       	ldi	r19, 0x00	; 0
    32a8:	41 e0       	ldi	r20, 0x01	; 1
    32aa:	69 e1       	ldi	r22, 0x19	; 25
    32ac:	ce 01       	movw	r24, r28
    32ae:	09 95       	icall
    
      break;
    default:
      return 0;
  }
  return 1;
    32b0:	81 e0       	ldi	r24, 0x01	; 1
    32b2:	3f c0       	rjmp	.+126    	; 0x3332 <u8x8_d_mt12232_122x32+0x1ac>
	
      }
      break;
    case U8X8_MSG_DISPLAY_DRAW_TILE:

      ptr = ((u8x8_tile_t *)arg_ptr)->tile_ptr;
    32b4:	f9 01       	movw	r30, r18
    32b6:	e0 80       	ld	r14, Z
    32b8:	f1 80       	ldd	r15, Z+1	; 0x01
      // x and c are ignored (u8g2 only)
      //x = ((u8x8_tile_t *)arg_ptr)->x_pos;
      //c = ((u8x8_tile_t *)arg_ptr)->cnt;
      
      u8x8->cad_cb(u8x8, U8X8_MSG_CAD_START_TRANSFER, 0, NULL);
    32ba:	ee 81       	ldd	r30, Y+6	; 0x06
    32bc:	ff 81       	ldd	r31, Y+7	; 0x07
    32be:	20 e0       	ldi	r18, 0x00	; 0
    32c0:	30 e0       	ldi	r19, 0x00	; 0
    32c2:	40 e0       	ldi	r20, 0x00	; 0
    32c4:	68 e1       	ldi	r22, 0x18	; 24
      u8x8_cad_SendCmd(u8x8, 0x000 | 13);		// column 0
    32c6:	09 95       	icall
    32c8:	6d e0       	ldi	r22, 0x0D	; 13
    32ca:	ce 01       	movw	r24, r28
      u8x8_cad_SendCmd(u8x8, 0x0b8 | (((u8x8_tile_t *)arg_ptr)->y_pos));
    32cc:	32 de       	rcall	.-924    	; 0x2f32 <u8x8_cad_SendCmd>
    32ce:	f8 01       	movw	r30, r16
    32d0:	64 81       	ldd	r22, Z+4	; 0x04
    32d2:	68 6b       	ori	r22, 0xB8	; 184
    32d4:	ce 01       	movw	r24, r28
    32d6:	2d de       	rcall	.-934    	; 0x2f32 <u8x8_cad_SendCmd>
      u8x8_cad_SendData(u8x8, 67, ptr);	/* note: SendData can not handle more than 255 bytes */    
    32d8:	a7 01       	movw	r20, r14
    32da:	63 e4       	ldi	r22, 0x43	; 67
    32dc:	ce 01       	movw	r24, r28
    32de:	34 de       	rcall	.-920    	; 0x2f48 <u8x8_cad_SendData>
    32e0:	ee 81       	ldd	r30, Y+6	; 0x06
      u8x8->cad_cb(u8x8, U8X8_MSG_CAD_END_TRANSFER, 0, NULL);
    32e2:	ff 81       	ldd	r31, Y+7	; 0x07
    32e4:	20 e0       	ldi	r18, 0x00	; 0
    32e6:	30 e0       	ldi	r19, 0x00	; 0
    32e8:	40 e0       	ldi	r20, 0x00	; 0
    32ea:	69 e1       	ldi	r22, 0x19	; 25
    32ec:	ce 01       	movw	r24, r28
    32ee:	09 95       	icall

      ptr += 67;
      
      u8x8->cad_cb(u8x8, U8X8_MSG_CAD_START_TRANSFER, 1, NULL);
    32f0:	ee 81       	ldd	r30, Y+6	; 0x06
    32f2:	ff 81       	ldd	r31, Y+7	; 0x07
    32f4:	20 e0       	ldi	r18, 0x00	; 0
    32f6:	30 e0       	ldi	r19, 0x00	; 0
    32f8:	41 e0       	ldi	r20, 0x01	; 1
    32fa:	68 e1       	ldi	r22, 0x18	; 24
    32fc:	ce 01       	movw	r24, r28
      u8x8_cad_SendCmd(u8x8, 0x000 | 0);		// column 0
    32fe:	09 95       	icall
    3300:	60 e0       	ldi	r22, 0x00	; 0
    3302:	ce 01       	movw	r24, r28
      u8x8_cad_SendCmd(u8x8, 0x0b8 | (((u8x8_tile_t *)arg_ptr)->y_pos));
    3304:	16 de       	rcall	.-980    	; 0x2f32 <u8x8_cad_SendCmd>
    3306:	f8 01       	movw	r30, r16
    3308:	64 81       	ldd	r22, Z+4	; 0x04
    330a:	68 6b       	ori	r22, 0xB8	; 184
    330c:	ce 01       	movw	r24, r28
    330e:	11 de       	rcall	.-990    	; 0x2f32 <u8x8_cad_SendCmd>
    
      u8x8_cad_SendData(u8x8, 61, ptr);	/* note: SendData can not handle more than 255 bytes */    
    3310:	a7 01       	movw	r20, r14
    3312:	4d 5b       	subi	r20, 0xBD	; 189
    3314:	5f 4f       	sbci	r21, 0xFF	; 255
    3316:	6d e3       	ldi	r22, 0x3D	; 61
    3318:	ce 01       	movw	r24, r28
    331a:	16 de       	rcall	.-980    	; 0x2f48 <u8x8_cad_SendData>
    331c:	ee 81       	ldd	r30, Y+6	; 0x06
      u8x8->cad_cb(u8x8, U8X8_MSG_CAD_END_TRANSFER, 1, NULL);
    331e:	ff 81       	ldd	r31, Y+7	; 0x07
    3320:	20 e0       	ldi	r18, 0x00	; 0
    3322:	30 e0       	ldi	r19, 0x00	; 0
    3324:	41 e0       	ldi	r20, 0x01	; 1
    3326:	69 e1       	ldi	r22, 0x19	; 25
    3328:	ce 01       	movw	r24, r28
    332a:	09 95       	icall
    332c:	81 e0       	ldi	r24, 0x01	; 1
    
      break;
    default:
      return 0;
  }
  return 1;
    332e:	01 c0       	rjmp	.+2      	; 0x3332 <u8x8_d_mt12232_122x32+0x1ac>
      u8x8_cad_SendCmd(u8x8, 0x0b8 | (((u8x8_tile_t *)arg_ptr)->y_pos));
    
      u8x8_cad_SendData(u8x8, 61, ptr);	/* note: SendData can not handle more than 255 bytes */    
      u8x8->cad_cb(u8x8, U8X8_MSG_CAD_END_TRANSFER, 1, NULL);
    
      break;
    3330:	80 e0       	ldi	r24, 0x00	; 0
    default:
      return 0;
    3332:	df 91       	pop	r29
  }
  return 1;
}
    3334:	cf 91       	pop	r28
    3336:	1f 91       	pop	r17
    3338:	0f 91       	pop	r16
    333a:	ff 90       	pop	r15
    333c:	ef 90       	pop	r14
    333e:	08 95       	ret

00003340 <u8x8_gpio_call>:
#include "u8x8.h"


void u8x8_gpio_call(u8x8_t *u8x8, uint8_t msg, uint8_t arg)
{
  u8x8->gpio_and_delay_cb(u8x8, msg, arg, NULL);
    3340:	dc 01       	movw	r26, r24
    3342:	1a 96       	adiw	r26, 0x0a	; 10
    3344:	ed 91       	ld	r30, X+
    3346:	fc 91       	ld	r31, X
    3348:	1b 97       	sbiw	r26, 0x0b	; 11
    334a:	20 e0       	ldi	r18, 0x00	; 0
    334c:	30 e0       	ldi	r19, 0x00	; 0
    334e:	09 95       	icall
    3350:	08 95       	ret

00003352 <u8x8_dummy_cb>:
      u8x8_d_helper_display_init(u8x8);
      break;
  }
  /* the null device callback will succeed for all messages */
  return 1;
}
    3352:	80 e0       	ldi	r24, 0x00	; 0
    3354:	08 95       	ret

00003356 <u8x8_SetupDefaults>:
    Setup u8x8
  Args:
    u8x8	An empty u8x8 structure
*/
void u8x8_SetupDefaults(u8x8_t *u8x8)
{
    3356:	fc 01       	movw	r30, r24
    u8x8->display_info = NULL;
    3358:	11 82       	std	Z+1, r1	; 0x01
    335a:	10 82       	st	Z, r1
    u8x8->display_cb = u8x8_dummy_cb;
    335c:	89 ea       	ldi	r24, 0xA9	; 169
    335e:	99 e1       	ldi	r25, 0x19	; 25
    3360:	95 83       	std	Z+5, r25	; 0x05
    3362:	84 83       	std	Z+4, r24	; 0x04
    u8x8->cad_cb = u8x8_dummy_cb;
    3364:	97 83       	std	Z+7, r25	; 0x07
    3366:	86 83       	std	Z+6, r24	; 0x06
    u8x8->byte_cb = u8x8_dummy_cb;
    3368:	91 87       	std	Z+9, r25	; 0x09
    336a:	80 87       	std	Z+8, r24	; 0x08
    u8x8->gpio_and_delay_cb = u8x8_dummy_cb;
    336c:	93 87       	std	Z+11, r25	; 0x0b
    336e:	82 87       	std	Z+10, r24	; 0x0a
    u8x8->is_font_inverse_mode = 0;
    3370:	15 8a       	std	Z+21, r1	; 0x15
    u8x8->device_address = 0;
    3372:	10 8e       	std	Z+24, r1	; 0x18
    u8x8->utf8_state = 0;		/* also reset by u8x8_utf8_init */
    3374:	11 8e       	std	Z+25, r1	; 0x19
    u8x8->bus_clock = 0;		/* issue 769 */
    3376:	14 86       	std	Z+12, r1	; 0x0c
    3378:	15 86       	std	Z+13, r1	; 0x0d
    337a:	16 86       	std	Z+14, r1	; 0x0e
    337c:	17 86       	std	Z+15, r1	; 0x0f
    u8x8->i2c_address = 255;
    337e:	8f ef       	ldi	r24, 0xFF	; 255
    3380:	86 8b       	std	Z+22, r24	; 0x16
    u8x8->debounce_default_pin_state = 255;	/* assume all low active buttons */
    3382:	83 8f       	std	Z+27, r24	; 0x1b
    3384:	08 95       	ret

00003386 <u8x8_Setup>:
    byte_cb			Display controller/communication specific callback funtion
    gpio_and_delay_cb	Environment specific callback function

*/
void u8x8_Setup(u8x8_t *u8x8, u8x8_msg_cb display_cb, u8x8_msg_cb cad_cb, u8x8_msg_cb byte_cb, u8x8_msg_cb gpio_and_delay_cb)
{
    3386:	af 92       	push	r10
    3388:	bf 92       	push	r11
    338a:	cf 92       	push	r12
    338c:	df 92       	push	r13
    338e:	ef 92       	push	r14
    3390:	ff 92       	push	r15
    3392:	0f 93       	push	r16
    3394:	1f 93       	push	r17
    3396:	cf 93       	push	r28
    3398:	df 93       	push	r29
    339a:	ec 01       	movw	r28, r24
    339c:	5b 01       	movw	r10, r22
    339e:	6a 01       	movw	r12, r20
    33a0:	79 01       	movw	r14, r18
  /* setup defaults and reset pins to U8X8_PIN_NONE */
  u8x8_SetupDefaults(u8x8);
    33a2:	d9 df       	rcall	.-78     	; 0x3356 <u8x8_SetupDefaults>

  /* setup specific callbacks */
  u8x8->display_cb = display_cb;
    33a4:	bd 82       	std	Y+5, r11	; 0x05
    33a6:	ac 82       	std	Y+4, r10	; 0x04
  u8x8->cad_cb = cad_cb;
    33a8:	df 82       	std	Y+7, r13	; 0x07
    33aa:	ce 82       	std	Y+6, r12	; 0x06
  u8x8->byte_cb = byte_cb;
    33ac:	f9 86       	std	Y+9, r15	; 0x09
    33ae:	e8 86       	std	Y+8, r14	; 0x08
  u8x8->gpio_and_delay_cb = gpio_and_delay_cb;
    33b0:	1b 87       	std	Y+11, r17	; 0x0b
    33b2:	0a 87       	std	Y+10, r16	; 0x0a

  /* setup display info */
  u8x8_SetupMemory(u8x8);
    33b4:	ce 01       	movw	r24, r28
    33b6:	bb de       	rcall	.-650    	; 0x312e <u8x8_SetupMemory>
}
    33b8:	df 91       	pop	r29
    33ba:	cf 91       	pop	r28
    33bc:	1f 91       	pop	r17
    33be:	0f 91       	pop	r16
    33c0:	ff 90       	pop	r15
    33c2:	ef 90       	pop	r14
    33c4:	df 90       	pop	r13
    33c6:	cf 90       	pop	r12
    33c8:	bf 90       	pop	r11
    33ca:	af 90       	pop	r10
    33cc:	08 95       	ret

000033ce <__udivmodsi4>:
    33ce:	a1 e2       	ldi	r26, 0x21	; 33
    33d0:	1a 2e       	mov	r1, r26
    33d2:	aa 1b       	sub	r26, r26
    33d4:	bb 1b       	sub	r27, r27
    33d6:	fd 01       	movw	r30, r26
    33d8:	0d c0       	rjmp	.+26     	; 0x33f4 <__udivmodsi4_ep>

000033da <__udivmodsi4_loop>:
    33da:	aa 1f       	adc	r26, r26
    33dc:	bb 1f       	adc	r27, r27
    33de:	ee 1f       	adc	r30, r30
    33e0:	ff 1f       	adc	r31, r31
    33e2:	a2 17       	cp	r26, r18
    33e4:	b3 07       	cpc	r27, r19
    33e6:	e4 07       	cpc	r30, r20
    33e8:	f5 07       	cpc	r31, r21
    33ea:	20 f0       	brcs	.+8      	; 0x33f4 <__udivmodsi4_ep>
    33ec:	a2 1b       	sub	r26, r18
    33ee:	b3 0b       	sbc	r27, r19
    33f0:	e4 0b       	sbc	r30, r20
    33f2:	f5 0b       	sbc	r31, r21

000033f4 <__udivmodsi4_ep>:
    33f4:	66 1f       	adc	r22, r22
    33f6:	77 1f       	adc	r23, r23
    33f8:	88 1f       	adc	r24, r24
    33fa:	99 1f       	adc	r25, r25
    33fc:	1a 94       	dec	r1
    33fe:	69 f7       	brne	.-38     	; 0x33da <__udivmodsi4_loop>
    3400:	60 95       	com	r22
    3402:	70 95       	com	r23
    3404:	80 95       	com	r24
    3406:	90 95       	com	r25
    3408:	9b 01       	movw	r18, r22
    340a:	ac 01       	movw	r20, r24
    340c:	bd 01       	movw	r22, r26
    340e:	cf 01       	movw	r24, r30
    3410:	08 95       	ret

00003412 <__tablejump2__>:
    3412:	ee 0f       	add	r30, r30
    3414:	ff 1f       	adc	r31, r31
    3416:	05 90       	lpm	r0, Z+
    3418:	f4 91       	lpm	r31, Z
    341a:	e0 2d       	mov	r30, r0
    341c:	09 94       	ijmp

0000341e <__umulhisi3>:
    341e:	a2 9f       	mul	r26, r18
    3420:	b0 01       	movw	r22, r0
    3422:	b3 9f       	mul	r27, r19
    3424:	c0 01       	movw	r24, r0
    3426:	a3 9f       	mul	r26, r19
    3428:	70 0d       	add	r23, r0
    342a:	81 1d       	adc	r24, r1
    342c:	11 24       	eor	r1, r1
    342e:	91 1d       	adc	r25, r1
    3430:	b2 9f       	mul	r27, r18
    3432:	70 0d       	add	r23, r0
    3434:	81 1d       	adc	r24, r1
    3436:	11 24       	eor	r1, r1
    3438:	91 1d       	adc	r25, r1
    343a:	08 95       	ret

0000343c <memset>:
    343c:	dc 01       	movw	r26, r24
    343e:	01 c0       	rjmp	.+2      	; 0x3442 <memset+0x6>
    3440:	6d 93       	st	X+, r22
    3442:	41 50       	subi	r20, 0x01	; 1
    3444:	50 40       	sbci	r21, 0x00	; 0
    3446:	e0 f7       	brcc	.-8      	; 0x3440 <memset+0x4>
    3448:	08 95       	ret

0000344a <_exit>:
    344a:	f8 94       	cli

0000344c <__stop_program>:
    344c:	ff cf       	rjmp	.-2      	; 0x344c <__stop_program>
